
/home/pdsilva/Projects/vgaPico/vgaPico2/libvga/build/vgaPico2.elf:     file format elf32-littlearm

Sections:
Idx Name          Size      VMA       LMA       File off  Algn
  0 .text         00002c84  10000000  10000000  00001000  2**3
                  CONTENTS, ALLOC, LOAD, READONLY, CODE
  1 .rodata       00000fd0  10002c84  10002c84  00003c84  2**2
                  CONTENTS, ALLOC, LOAD, READONLY, DATA
  2 .ARM.exidx    00000008  10003c54  10003c54  00004c54  2**2
                  CONTENTS, ALLOC, LOAD, READONLY, DATA
  3 .binary_info  00000020  10003c5c  10003c5c  00004c5c  2**2
                  CONTENTS, ALLOC, LOAD, READONLY, DATA
  4 .ram_vector_table 00000110  20000000  20000000  00006000  2**2
                  ALLOC
  5 .uninitialized_data 00000000  20000110  20000110  00005dd8  2**0
                  CONTENTS
  6 .data         00000148  20000110  10003c7c  00005110  2**3
                  CONTENTS, ALLOC, LOAD, READONLY, CODE
  7 .tdata        00000000  20000258  20000258  00005dd8  2**0
                  CONTENTS, ALLOC, LOAD, DATA, THREAD_LOCAL
  8 .tbss         00000000  20000258  20000258  00000000  2**0
                  ALLOC, THREAD_LOCAL
  9 .bss          00025c5c  20000258  10003dc4  00006258  2**3
                  ALLOC
 10 .heap         00000800  20025eb4  10003dc4  00005eb4  2**2
                  ALLOC, READONLY
 11 .scratch_x    00000000  20080000  20080000  00005dd8  2**0
                  CONTENTS
 12 .scratch_y    00000000  20081000  20081000  00005dd8  2**0
                  CONTENTS
 13 .stack1_dummy 00000800  20080000  20080000  00006000  2**2
                  ALLOC
 14 .stack_dummy  00000800  20081000  20081000  00006000  2**5
                  ALLOC, READONLY
 15 .flash_end    00000014  10003dc4  10003dc4  00005dc4  2**2
                  CONTENTS, ALLOC, LOAD, READONLY, DATA
 16 .ARM.attributes 00000034  00000000  00000000  00005dd8  2**0
                  CONTENTS, READONLY
 17 .comment      00000045  00000000  00000000  00005e0c  2**0
                  CONTENTS, READONLY
 18 .debug_info   0002a4e8  00000000  00000000  00005e51  2**0
                  CONTENTS, READONLY, DEBUGGING, OCTETS
 19 .debug_abbrev 00006c83  00000000  00000000  00030339  2**0
                  CONTENTS, READONLY, DEBUGGING, OCTETS
 20 .debug_loclists 00014feb  00000000  00000000  00036fbc  2**0
                  CONTENTS, READONLY, DEBUGGING, OCTETS
 21 .debug_aranges 00000d90  00000000  00000000  0004bfa8  2**3
                  CONTENTS, READONLY, DEBUGGING, OCTETS
 22 .debug_rnglists 0000426f  00000000  00000000  0004cd38  2**0
                  CONTENTS, READONLY, DEBUGGING, OCTETS
 23 .debug_line   0001b510  00000000  00000000  00050fa7  2**0
                  CONTENTS, READONLY, DEBUGGING, OCTETS
 24 .debug_str    000071e6  00000000  00000000  0006c4b7  2**0
                  CONTENTS, READONLY, DEBUGGING, OCTETS
 25 .debug_frame  0000279c  00000000  00000000  000736a0  2**2
                  CONTENTS, READONLY, DEBUGGING, OCTETS
 26 .debug_line_str 00000159  00000000  00000000  00075e3c  2**0
                  CONTENTS, READONLY, DEBUGGING, OCTETS

/home/pdsilva/Projects/vgaPico/vgaPico2/libvga/build/vgaPico2.elf:     file format elf32-littlearm


Disassembly of section .text:

10000000 <__VECTOR_TABLE>:
10000000:	20082000 	.word	0x20082000
10000004:	1000015d 	.word	0x1000015d
10000008:	1000011b 	.word	0x1000011b
1000000c:	1000011d 	.word	0x1000011d
10000010:	10000111 	.word	0x10000111
10000014:	10000111 	.word	0x10000111
10000018:	10000111 	.word	0x10000111
1000001c:	10000111 	.word	0x10000111
10000020:	10000119 	.word	0x10000119
10000024:	10000119 	.word	0x10000119
10000028:	10000119 	.word	0x10000119
1000002c:	1000011f 	.word	0x1000011f
10000030:	10000111 	.word	0x10000111
10000034:	10000119 	.word	0x10000119
10000038:	10000121 	.word	0x10000121
1000003c:	10000123 	.word	0x10000123
10000040:	10000111 	.word	0x10000111
10000044:	10000111 	.word	0x10000111
10000048:	10000111 	.word	0x10000111
1000004c:	10000111 	.word	0x10000111
10000050:	10000111 	.word	0x10000111
10000054:	10000111 	.word	0x10000111
10000058:	10000111 	.word	0x10000111
1000005c:	10000111 	.word	0x10000111
10000060:	10000111 	.word	0x10000111
10000064:	10000111 	.word	0x10000111
10000068:	10000111 	.word	0x10000111
1000006c:	10000111 	.word	0x10000111
10000070:	10000111 	.word	0x10000111
10000074:	10000111 	.word	0x10000111
10000078:	10000111 	.word	0x10000111
1000007c:	10000111 	.word	0x10000111
10000080:	10000111 	.word	0x10000111
10000084:	10000111 	.word	0x10000111
10000088:	10000111 	.word	0x10000111
1000008c:	10000111 	.word	0x10000111
10000090:	10000111 	.word	0x10000111
10000094:	10000111 	.word	0x10000111
10000098:	10000111 	.word	0x10000111
1000009c:	10000111 	.word	0x10000111
100000a0:	10000111 	.word	0x10000111
100000a4:	10000111 	.word	0x10000111
100000a8:	10000111 	.word	0x10000111
100000ac:	10000111 	.word	0x10000111
100000b0:	10000111 	.word	0x10000111
100000b4:	10000111 	.word	0x10000111
100000b8:	10000111 	.word	0x10000111
100000bc:	10000111 	.word	0x10000111
100000c0:	10000111 	.word	0x10000111
100000c4:	10000111 	.word	0x10000111
100000c8:	10000111 	.word	0x10000111
100000cc:	10000111 	.word	0x10000111
100000d0:	10000111 	.word	0x10000111
100000d4:	10000111 	.word	0x10000111
100000d8:	10000111 	.word	0x10000111
100000dc:	10000111 	.word	0x10000111
100000e0:	10000111 	.word	0x10000111
100000e4:	10000111 	.word	0x10000111
100000e8:	10000111 	.word	0x10000111
100000ec:	10000111 	.word	0x10000111
100000f0:	10000111 	.word	0x10000111
100000f4:	10000111 	.word	0x10000111
100000f8:	10000111 	.word	0x10000111
100000fc:	10000111 	.word	0x10000111
10000100:	10000111 	.word	0x10000111
10000104:	10000111 	.word	0x10000111
10000108:	10000111 	.word	0x10000111
1000010c:	10000111 	.word	0x10000111

10000110 <__unhandled_user_irq>:
10000110:	f3ef 8005 	mrs	r0, IPSR
10000114:	3810      	subs	r0, #16

10000116 <unhandled_user_irq_num_in_r0>:
10000116:	be00      	bkpt	0x0000

10000118 <isr_invalid>:
10000118:	be00      	bkpt	0x0000

1000011a <isr_nmi>:
1000011a:	be00      	bkpt	0x0000

1000011c <isr_hardfault>:
1000011c:	be00      	bkpt	0x0000

1000011e <isr_svcall>:
1000011e:	be00      	bkpt	0x0000

10000120 <isr_pendsv>:
10000120:	be00      	bkpt	0x0000

10000122 <isr_systick>:
10000122:	be00      	bkpt	0x0000

10000124 <__default_isrs_end>:
10000124:	7188ebf2 	.word	0x7188ebf2
10000128:	10003c5c 	.word	0x10003c5c
1000012c:	10003c7c 	.word	0x10003c7c
10000130:	100001a0 	.word	0x100001a0
10000134:	e71aa390 	.word	0xe71aa390

10000138 <__binary_info_header_end>:
10000138:	ffffded3 	.word	0xffffded3
1000013c:	10210142 	.word	0x10210142
10000140:	000001ff 	.word	0x000001ff
10000144:	00003c8c 	.word	0x00003c8c
10000148:	ab123579 	.word	0xab123579

1000014c <_entry_point>:
1000014c:	f04f 0000 	mov.w	r0, #0

10000150 <_enter_vtable_in_r0>:
10000150:	491e      	ldr	r1, [pc, #120]	@ (100001cc <data_cpy_table+0x2c>)
10000152:	6008      	str	r0, [r1, #0]
10000154:	c806      	ldmia	r0!, {r1, r2}
10000156:	f381 8808 	msr	MSP, r1
1000015a:	4710      	bx	r2

1000015c <_reset_handler>:
1000015c:	f04f 4050 	mov.w	r0, #3489660928	@ 0xd0000000
10000160:	6800      	ldr	r0, [r0, #0]
10000162:	b110      	cbz	r0, 1000016a <hold_non_core0_in_bootrom+0x6>

10000164 <hold_non_core0_in_bootrom>:
10000164:	f04f 0000 	mov.w	r0, #0
10000168:	e7f2      	b.n	10000150 <_enter_vtable_in_r0>
1000016a:	a40d      	add	r4, pc, #52	@ (adr r4, 100001a0 <data_cpy_table>)
1000016c:	cc0e      	ldmia	r4!, {r1, r2, r3}
1000016e:	2900      	cmp	r1, #0
10000170:	d002      	beq.n	10000178 <hold_non_core0_in_bootrom+0x14>
10000172:	f000 f812 	bl	1000019a <data_cpy>
10000176:	e7f9      	b.n	1000016c <hold_non_core0_in_bootrom+0x8>
10000178:	4915      	ldr	r1, [pc, #84]	@ (100001d0 <data_cpy_table+0x30>)
1000017a:	4a16      	ldr	r2, [pc, #88]	@ (100001d4 <data_cpy_table+0x34>)
1000017c:	2000      	movs	r0, #0
1000017e:	e000      	b.n	10000182 <bss_fill_test>

10000180 <bss_fill_loop>:
10000180:	c101      	stmia	r1!, {r0}

10000182 <bss_fill_test>:
10000182:	4291      	cmp	r1, r2
10000184:	d1fc      	bne.n	10000180 <bss_fill_loop>

10000186 <platform_entry>:
10000186:	4914      	ldr	r1, [pc, #80]	@ (100001d8 <data_cpy_table+0x38>)
10000188:	4788      	blx	r1
1000018a:	4914      	ldr	r1, [pc, #80]	@ (100001dc <data_cpy_table+0x3c>)
1000018c:	4788      	blx	r1
1000018e:	4914      	ldr	r1, [pc, #80]	@ (100001e0 <data_cpy_table+0x40>)
10000190:	4788      	blx	r1
10000192:	be00      	bkpt	0x0000
10000194:	e7fd      	b.n	10000192 <platform_entry+0xc>

10000196 <data_cpy_loop>:
10000196:	c901      	ldmia	r1!, {r0}
10000198:	c201      	stmia	r2!, {r0}

1000019a <data_cpy>:
1000019a:	429a      	cmp	r2, r3
1000019c:	d3fb      	bcc.n	10000196 <data_cpy_loop>
1000019e:	4770      	bx	lr

100001a0 <data_cpy_table>:
100001a0:	10003c7c 	.word	0x10003c7c
100001a4:	20000110 	.word	0x20000110
100001a8:	20000258 	.word	0x20000258
100001ac:	10003dc4 	.word	0x10003dc4
100001b0:	20080000 	.word	0x20080000
100001b4:	20080000 	.word	0x20080000
100001b8:	10003dc4 	.word	0x10003dc4
100001bc:	20081000 	.word	0x20081000
100001c0:	20081000 	.word	0x20081000
100001c4:	00000000 	.word	0x00000000
100001c8:	4770      	bx	lr
100001ca:	0000      	.short	0x0000
100001cc:	e000ed08 	.word	0xe000ed08
100001d0:	20000258 	.word	0x20000258
100001d4:	20025eb4 	.word	0x20025eb4
100001d8:	1000252d 	.word	0x1000252d
100001dc:	10000779 	.word	0x10000779
100001e0:	10002525 	.word	0x10002525

100001e4 <_init>:
100001e4:	b5f8      	push	{r3, r4, r5, r6, r7, lr}
100001e6:	bf00      	nop

100001e8 <register_tm_clones>:
100001e8:	4b06      	ldr	r3, [pc, #24]	@ (10000204 <register_tm_clones+0x1c>)
100001ea:	4907      	ldr	r1, [pc, #28]	@ (10000208 <register_tm_clones+0x20>)
100001ec:	1ac9      	subs	r1, r1, r3
100001ee:	1089      	asrs	r1, r1, #2
100001f0:	bf48      	it	mi
100001f2:	3101      	addmi	r1, #1
100001f4:	1049      	asrs	r1, r1, #1
100001f6:	d003      	beq.n	10000200 <register_tm_clones+0x18>
100001f8:	4b04      	ldr	r3, [pc, #16]	@ (1000020c <register_tm_clones+0x24>)
100001fa:	b10b      	cbz	r3, 10000200 <register_tm_clones+0x18>
100001fc:	4801      	ldr	r0, [pc, #4]	@ (10000204 <register_tm_clones+0x1c>)
100001fe:	4718      	bx	r3
10000200:	4770      	bx	lr
10000202:	bf00      	nop
10000204:	20000258 	.word	0x20000258
10000208:	20000258 	.word	0x20000258
1000020c:	00000000 	.word	0x00000000

10000210 <frame_dummy>:
10000210:	b508      	push	{r3, lr}
10000212:	4b05      	ldr	r3, [pc, #20]	@ (10000228 <frame_dummy+0x18>)
10000214:	b11b      	cbz	r3, 1000021e <frame_dummy+0xe>
10000216:	4905      	ldr	r1, [pc, #20]	@ (1000022c <frame_dummy+0x1c>)
10000218:	4805      	ldr	r0, [pc, #20]	@ (10000230 <frame_dummy+0x20>)
1000021a:	f3af 8000 	nop.w
1000021e:	e8bd 4008 	ldmia.w	sp!, {r3, lr}
10000222:	f7ff bfe1 	b.w	100001e8 <register_tm_clones>
10000226:	bf00      	nop
10000228:	00000000 	.word	0x00000000
1000022c:	20000508 	.word	0x20000508
10000230:	10002c84 	.word	0x10002c84
10000234:	00000000 	.word	0x00000000

10000238 <initVGA>:
10000238:	e92d 4ff0 	stmdb	sp!, {r4, r5, r6, r7, r8, r9, sl, fp, lr}
1000023c:	ed2d 8b02 	vpush	{d8}
10000240:	4987      	ldr	r1, [pc, #540]	@ (10000460 <initVGA+0x228>)
10000242:	b08b      	sub	sp, #44	@ 0x2c
10000244:	4887      	ldr	r0, [pc, #540]	@ (10000464 <initVGA+0x22c>)
10000246:	f002 fadb 	bl	10002800 <pio_add_program>
1000024a:	4987      	ldr	r1, [pc, #540]	@ (10000468 <initVGA+0x230>)
1000024c:	4681      	mov	r9, r0
1000024e:	4885      	ldr	r0, [pc, #532]	@ (10000464 <initVGA+0x22c>)
10000250:	f002 fad6 	bl	10002800 <pio_add_program>
10000254:	4985      	ldr	r1, [pc, #532]	@ (1000046c <initVGA+0x234>)
10000256:	4680      	mov	r8, r0
10000258:	4882      	ldr	r0, [pc, #520]	@ (10000464 <initVGA+0x22c>)
1000025a:	f002 fad1 	bl	10002800 <pio_add_program>
1000025e:	ed9f 8b7c 	vldr	d8, [pc, #496]	@ 10000450 <initVGA+0x218>
10000262:	4607      	mov	r7, r0
10000264:	2100      	movs	r1, #0
10000266:	487f      	ldr	r0, [pc, #508]	@ (10000464 <initVGA+0x22c>)
10000268:	f002 faa6 	bl	100027b8 <pio_sm_claim>
1000026c:	2101      	movs	r1, #1
1000026e:	487d      	ldr	r0, [pc, #500]	@ (10000464 <initVGA+0x22c>)
10000270:	f002 faa2 	bl	100027b8 <pio_sm_claim>
10000274:	f04f 0a00 	mov.w	sl, #0
10000278:	f44f 2b40 	mov.w	fp, #786432	@ 0xc0000
1000027c:	2102      	movs	r1, #2
1000027e:	4879      	ldr	r0, [pc, #484]	@ (10000464 <initVGA+0x22c>)
10000280:	f002 fa9a 	bl	100027b8 <pio_sm_claim>
10000284:	ed8d 8b02 	vstr	d8, [sp, #8]
10000288:	f109 0608 	add.w	r6, r9, #8
1000028c:	ac02      	add	r4, sp, #8
1000028e:	ad06      	add	r5, sp, #24
10000290:	f8cd a014 	str.w	sl, [sp, #20]
10000294:	f8cd b010 	str.w	fp, [sp, #16]
10000298:	f109 0301 	add.w	r3, r9, #1
1000029c:	0336      	lsls	r6, r6, #12
1000029e:	ea46 16c3 	orr.w	r6, r6, r3, lsl #7
100002a2:	e894 000f 	ldmia.w	r4, {r0, r1, r2, r3}
100002a6:	e885 000f 	stmia.w	r5, {r0, r1, r2, r3}
100002aa:	9607      	str	r6, [sp, #28]
100002ac:	e895 000f 	ldmia.w	r5, {r0, r1, r2, r3}
100002b0:	2601      	movs	r6, #1
100002b2:	e884 000f 	stmia.w	r4, {r0, r1, r2, r3}
100002b6:	f44f 23c0 	mov.w	r3, #393216	@ 0x60000
100002ba:	f8df c1cc 	ldr.w	ip, [pc, #460]	@ 10000488 <initVGA+0x250>
100002be:	2106      	movs	r1, #6
100002c0:	2010      	movs	r0, #16
100002c2:	f8cd c014 	str.w	ip, [sp, #20]
100002c6:	9302      	str	r3, [sp, #8]
100002c8:	f001 f88e 	bl	100013e8 <gpio_set_function>
100002cc:	2210      	movs	r2, #16
100002ce:	4633      	mov	r3, r6
100002d0:	4651      	mov	r1, sl
100002d2:	4864      	ldr	r0, [pc, #400]	@ (10000464 <initVGA+0x22c>)
100002d4:	9600      	str	r6, [sp, #0]
100002d6:	f002 fb0d 	bl	100028f4 <pio_sm_set_consecutive_pindirs>
100002da:	4623      	mov	r3, r4
100002dc:	464a      	mov	r2, r9
100002de:	4651      	mov	r1, sl
100002e0:	4860      	ldr	r0, [pc, #384]	@ (10000464 <initVGA+0x22c>)
100002e2:	f002 fb4d 	bl	10002980 <pio_sm_init>
100002e6:	f44f 23c0 	mov.w	r3, #393216	@ 0x60000
100002ea:	9306      	str	r3, [sp, #24]
100002ec:	f108 030d 	add.w	r3, r8, #13
100002f0:	eb08 0206 	add.w	r2, r8, r6
100002f4:	031b      	lsls	r3, r3, #12
100002f6:	ea43 13c2 	orr.w	r3, r3, r2, lsl #7
100002fa:	f023 43c0 	bic.w	r3, r3, #1610612736	@ 0x60000000
100002fe:	f043 4380 	orr.w	r3, r3, #1073741824	@ 0x40000000
10000302:	9307      	str	r3, [sp, #28]
10000304:	4b5a      	ldr	r3, [pc, #360]	@ (10000470 <initVGA+0x238>)
10000306:	2106      	movs	r1, #6
10000308:	2011      	movs	r0, #17
1000030a:	9309      	str	r3, [sp, #36]	@ 0x24
1000030c:	f8cd b020 	str.w	fp, [sp, #32]
10000310:	f001 f86a 	bl	100013e8 <gpio_set_function>
10000314:	2211      	movs	r2, #17
10000316:	4633      	mov	r3, r6
10000318:	4631      	mov	r1, r6
1000031a:	4852      	ldr	r0, [pc, #328]	@ (10000464 <initVGA+0x22c>)
1000031c:	9600      	str	r6, [sp, #0]
1000031e:	f002 fae9 	bl	100028f4 <pio_sm_set_consecutive_pindirs>
10000322:	462b      	mov	r3, r5
10000324:	4642      	mov	r2, r8
10000326:	f20f 1930 	addw	r9, pc, #304	@ 0x130
1000032a:	e9d9 8900 	ldrd	r8, r9, [r9]
1000032e:	4631      	mov	r1, r6
10000330:	484c      	ldr	r0, [pc, #304]	@ (10000464 <initVGA+0x22c>)
10000332:	f002 fb25 	bl	10002980 <pio_sm_init>
10000336:	ed8d 8b02 	vstr	d8, [sp, #8]
1000033a:	e9cd ba04 	strd	fp, sl, [sp, #16]
1000033e:	f107 0c08 	add.w	ip, r7, #8
10000342:	1cbb      	adds	r3, r7, #2
10000344:	ea4f 3c0c 	mov.w	ip, ip, lsl #12
10000348:	ea4c 1cc3 	orr.w	ip, ip, r3, lsl #7
1000034c:	e894 000f 	ldmia.w	r4, {r0, r1, r2, r3}
10000350:	e885 000f 	stmia.w	r5, {r0, r1, r2, r3}
10000354:	f8cd c01c 	str.w	ip, [sp, #28]
10000358:	e895 000f 	ldmia.w	r5, {r0, r1, r2, r3}
1000035c:	e884 000f 	stmia.w	r4, {r0, r1, r2, r3}
10000360:	2106      	movs	r1, #6
10000362:	2012      	movs	r0, #18
10000364:	e9cd 8904 	strd	r8, r9, [sp, #16]
10000368:	f001 f83e 	bl	100013e8 <gpio_set_function>
1000036c:	2106      	movs	r1, #6
1000036e:	2013      	movs	r0, #19
10000370:	f001 f83a 	bl	100013e8 <gpio_set_function>
10000374:	2106      	movs	r1, #6
10000376:	2014      	movs	r0, #20
10000378:	f001 f836 	bl	100013e8 <gpio_set_function>
1000037c:	2106      	movs	r1, #6
1000037e:	2015      	movs	r0, #21
10000380:	f001 f832 	bl	100013e8 <gpio_set_function>
10000384:	2304      	movs	r3, #4
10000386:	2212      	movs	r2, #18
10000388:	2102      	movs	r1, #2
1000038a:	4836      	ldr	r0, [pc, #216]	@ (10000464 <initVGA+0x22c>)
1000038c:	9600      	str	r6, [sp, #0]
1000038e:	f002 fab1 	bl	100028f4 <pio_sm_set_consecutive_pindirs>
10000392:	4623      	mov	r3, r4
10000394:	463a      	mov	r2, r7
10000396:	2102      	movs	r1, #2
10000398:	4832      	ldr	r0, [pc, #200]	@ (10000464 <initVGA+0x22c>)
1000039a:	f002 faf1 	bl	10002980 <pio_sm_init>
1000039e:	4630      	mov	r0, r6
100003a0:	f002 fb42 	bl	10002a28 <dma_claim_unused_channel>
100003a4:	4604      	mov	r4, r0
100003a6:	4630      	mov	r0, r6
100003a8:	f002 fb3e 	bl	10002a28 <dma_claim_unused_channel>
100003ac:	4603      	mov	r3, r0
100003ae:	f44f 3e16 	mov.w	lr, #153600	@ 0x25800
100003b2:	4d30      	ldr	r5, [pc, #192]	@ (10000474 <initVGA+0x23c>)
100003b4:	4930      	ldr	r1, [pc, #192]	@ (10000478 <initVGA+0x240>)
100003b6:	4831      	ldr	r0, [pc, #196]	@ (1000047c <initVGA+0x244>)
100003b8:	f8df 80d0 	ldr.w	r8, [pc, #208]	@ 1000048c <initVGA+0x254>
100003bc:	ea4f 1c84 	mov.w	ip, r4, lsl #6
100003c0:	f10c 4ca0 	add.w	ip, ip, #1342177280	@ 0x50000000
100003c4:	ea01 3143 	and.w	r1, r1, r3, lsl #13
100003c8:	ea05 3544 	and.w	r5, r5, r4, lsl #13
100003cc:	f8cc 8000 	str.w	r8, [ip]
100003d0:	ea41 3144 	orr.w	r1, r1, r4, lsl #13
100003d4:	f8cc 0004 	str.w	r0, [ip, #4]
100003d8:	ea45 3043 	orr.w	r0, r5, r3, lsl #13
100003dc:	4f28      	ldr	r7, [pc, #160]	@ (10000480 <initVGA+0x248>)
100003de:	f440 2080 	orr.w	r0, r0, #262144	@ 0x40000
100003e2:	f441 01fc 	orr.w	r1, r1, #8257536	@ 0x7e0000
100003e6:	019b      	lsls	r3, r3, #6
100003e8:	f103 43a0 	add.w	r3, r3, #1342177280	@ 0x50000000
100003ec:	f040 0011 	orr.w	r0, r0, #17
100003f0:	f041 0109 	orr.w	r1, r1, #9
100003f4:	4a1b      	ldr	r2, [pc, #108]	@ (10000464 <initVGA+0x22c>)
100003f6:	f8cc e008 	str.w	lr, [ip, #8]
100003fa:	f8cc 0010 	str.w	r0, [ip, #16]
100003fe:	601f      	str	r7, [r3, #0]
10000400:	f8c3 c004 	str.w	ip, [r3, #4]
10000404:	609e      	str	r6, [r3, #8]
10000406:	6119      	str	r1, [r3, #16]
10000408:	6853      	ldr	r3, [r2, #4]
1000040a:	03d9      	lsls	r1, r3, #15
1000040c:	d4fc      	bmi.n	10000408 <initVGA+0x1d0>
1000040e:	f240 238f 	movw	r3, #655	@ 0x28f
10000412:	4914      	ldr	r1, [pc, #80]	@ (10000464 <initVGA+0x22c>)
10000414:	6113      	str	r3, [r2, #16]
10000416:	684b      	ldr	r3, [r1, #4]
10000418:	039a      	lsls	r2, r3, #14
1000041a:	d4fc      	bmi.n	10000416 <initVGA+0x1de>
1000041c:	f240 13df 	movw	r3, #479	@ 0x1df
10000420:	4a10      	ldr	r2, [pc, #64]	@ (10000464 <initVGA+0x22c>)
10000422:	614b      	str	r3, [r1, #20]
10000424:	6853      	ldr	r3, [r2, #4]
10000426:	035b      	lsls	r3, r3, #13
10000428:	d4fc      	bmi.n	10000424 <initVGA+0x1ec>
1000042a:	f240 153f 	movw	r5, #319	@ 0x13f
1000042e:	2301      	movs	r3, #1
10000430:	6195      	str	r5, [r2, #24]
10000432:	f240 7007 	movw	r0, #1799	@ 0x707
10000436:	f04f 42a0 	mov.w	r2, #1342177280	@ 0x50000000
1000043a:	4912      	ldr	r1, [pc, #72]	@ (10000484 <initVGA+0x24c>)
1000043c:	40a3      	lsls	r3, r4
1000043e:	6008      	str	r0, [r1, #0]
10000440:	f8c2 3450 	str.w	r3, [r2, #1104]	@ 0x450
10000444:	b00b      	add	sp, #44	@ 0x2c
10000446:	ecbd 8b02 	vpop	{d8}
1000044a:	e8bd 8ff0 	ldmia.w	sp!, {r4, r5, r6, r7, r8, r9, sl, fp, pc}
1000044e:	bf00      	nop
10000450:	00010000 	.word	0x00010000
10000454:	0001f000 	.word	0x0001f000
10000458:	400c0000 	.word	0x400c0000
1000045c:	10400252 	.word	0x10400252
10000460:	10002cc4 	.word	0x10002cc4
10000464:	50200000 	.word	0x50200000
10000468:	10002ca0 	.word	0x10002ca0
1000046c:	10002c84 	.word	0x10002c84
10000470:	44004620 	.word	0x44004620
10000474:	fc001ffd 	.word	0xfc001ffd
10000478:	fc7e1ffd 	.word	0xfc7e1ffd
1000047c:	50200018 	.word	0x50200018
10000480:	20000228 	.word	0x20000228
10000484:	50202000 	.word	0x50202000
10000488:	04000200 	.word	0x04000200
1000048c:	200006a8 	.word	0x200006a8

10000490 <protothread_toggle25>:
10000490:	6803      	ldr	r3, [r0, #0]
10000492:	b570      	push	{r4, r5, r6, lr}
10000494:	2501      	movs	r5, #1
10000496:	4604      	mov	r4, r0
10000498:	b333      	cbz	r3, 100004e8 <protothread_toggle25+0x58>
1000049a:	4e1b      	ldr	r6, [pc, #108]	@ (10000508 <protothread_toggle25+0x78>)
1000049c:	6026      	str	r6, [r4, #0]
1000049e:	b90d      	cbnz	r5, 100004a4 <protothread_toggle25+0x14>
100004a0:	2001      	movs	r0, #1
100004a2:	bd70      	pop	{r4, r5, r6, pc}
100004a4:	f001 fc74 	bl	10001d90 <time_us_64>
100004a8:	4d18      	ldr	r5, [pc, #96]	@ (1000050c <protothread_toggle25+0x7c>)
100004aa:	e9d5 2300 	ldrd	r2, r3, [r5]
100004ae:	4290      	cmp	r0, r2
100004b0:	4199      	sbcs	r1, r3
100004b2:	d3f5      	bcc.n	100004a0 <protothread_toggle25+0x10>
100004b4:	f04f 4350 	mov.w	r3, #3489660928	@ 0xd0000000
100004b8:	681b      	ldr	r3, [r3, #0]
100004ba:	2b01      	cmp	r3, #1
100004bc:	d020      	beq.n	10000500 <protothread_toggle25+0x70>
100004be:	2201      	movs	r2, #1
100004c0:	4b13      	ldr	r3, [pc, #76]	@ (10000510 <protothread_toggle25+0x80>)
100004c2:	601a      	str	r2, [r3, #0]
100004c4:	f001 fc64 	bl	10001d90 <time_us_64>
100004c8:	4a12      	ldr	r2, [pc, #72]	@ (10000514 <protothread_toggle25+0x84>)
100004ca:	4b13      	ldr	r3, [pc, #76]	@ (10000518 <protothread_toggle25+0x88>)
100004cc:	18c0      	adds	r0, r0, r3
100004ce:	7813      	ldrb	r3, [r2, #0]
100004d0:	f141 0100 	adc.w	r1, r1, #0
100004d4:	f083 0301 	eor.w	r3, r3, #1
100004d8:	6069      	str	r1, [r5, #4]
100004da:	6028      	str	r0, [r5, #0]
100004dc:	2119      	movs	r1, #25
100004de:	7013      	strb	r3, [r2, #0]
100004e0:	ec43 1040 	gpioc_bit_out_put r1, r3
100004e4:	2500      	movs	r5, #0
100004e6:	e7d9      	b.n	1000049c <protothread_toggle25+0xc>
100004e8:	2019      	movs	r0, #25
100004ea:	f000 ff9b 	bl	10001424 <gpio_init>
100004ee:	2319      	movs	r3, #25
100004f0:	ec45 3044 	gpioc_bit_oe_put r3, r5
100004f4:	ec45 3040 	gpioc_bit_out_put r3, r5
100004f8:	4b03      	ldr	r3, [pc, #12]	@ (10000508 <protothread_toggle25+0x78>)
100004fa:	2001      	movs	r0, #1
100004fc:	6023      	str	r3, [r4, #0]
100004fe:	bd70      	pop	{r4, r5, r6, pc}
10000500:	4a06      	ldr	r2, [pc, #24]	@ (1000051c <protothread_toggle25+0x8c>)
10000502:	6013      	str	r3, [r2, #0]
10000504:	e7de      	b.n	100004c4 <protothread_toggle25+0x34>
10000506:	bf00      	nop
10000508:	1000049c 	.word	0x1000049c
1000050c:	200003d8 	.word	0x200003d8
10000510:	20000540 	.word	0x20000540
10000514:	20025eb0 	.word	0x20025eb0
10000518:	000186a0 	.word	0x000186a0
1000051c:	20000544 	.word	0x20000544

10000520 <protothread_sched.constprop.0.isra.0>:
10000520:	e92d 4ff8 	stmdb	sp!, {r3, r4, r5, r6, r7, r8, r9, sl, fp, lr}
10000524:	4b3f      	ldr	r3, [pc, #252]	@ (10000624 <protothread_sched.constprop.0.isra.0+0x104>)
10000526:	681f      	ldr	r7, [r3, #0]
10000528:	2f00      	cmp	r7, #0
1000052a:	d177      	bne.n	1000061c <protothread_sched.constprop.0.isra.0+0xfc>
1000052c:	4b3e      	ldr	r3, [pc, #248]	@ (10000628 <protothread_sched.constprop.0.isra.0+0x108>)
1000052e:	f8d3 8000 	ldr.w	r8, [r3]
10000532:	f1b8 0f00 	cmp.w	r8, #0
10000536:	d11c      	bne.n	10000572 <protothread_sched.constprop.0.isra.0+0x52>
10000538:	4e3c      	ldr	r6, [pc, #240]	@ (1000062c <protothread_sched.constprop.0.isra.0+0x10c>)
1000053a:	4647      	mov	r7, r8
1000053c:	4c3c      	ldr	r4, [pc, #240]	@ (10000630 <protothread_sched.constprop.0.isra.0+0x110>)
1000053e:	f8df 90f4 	ldr.w	r9, [pc, #244]	@ 10000634 <protothread_sched.constprop.0.isra.0+0x114>
10000542:	6833      	ldr	r3, [r6, #0]
10000544:	e011      	b.n	1000056a <protothread_sched.constprop.0.isra.0+0x4a>
10000546:	2300      	movs	r3, #0
10000548:	4d3a      	ldr	r5, [pc, #232]	@ (10000634 <protothread_sched.constprop.0.isra.0+0x114>)
1000054a:	eb03 0343 	add.w	r3, r3, r3, lsl #1
1000054e:	eb09 0383 	add.w	r3, r9, r3, lsl #2
10000552:	4628      	mov	r0, r5
10000554:	689b      	ldr	r3, [r3, #8]
10000556:	4798      	blx	r3
10000558:	6823      	ldr	r3, [r4, #0]
1000055a:	6832      	ldr	r2, [r6, #0]
1000055c:	3301      	adds	r3, #1
1000055e:	4293      	cmp	r3, r2
10000560:	6023      	str	r3, [r4, #0]
10000562:	f105 050c 	add.w	r5, r5, #12
10000566:	dbf0      	blt.n	1000054a <protothread_sched.constprop.0.isra.0+0x2a>
10000568:	4613      	mov	r3, r2
1000056a:	2b00      	cmp	r3, #0
1000056c:	6027      	str	r7, [r4, #0]
1000056e:	dcea      	bgt.n	10000546 <protothread_sched.constprop.0.isra.0+0x26>
10000570:	e7fe      	b.n	10000570 <protothread_sched.constprop.0.isra.0+0x50>
10000572:	f1b8 0f01 	cmp.w	r8, #1
10000576:	d001      	beq.n	1000057c <protothread_sched.constprop.0.isra.0+0x5c>
10000578:	e8bd 8ff8 	ldmia.w	sp!, {r3, r4, r5, r6, r7, r8, r9, sl, fp, pc}
1000057c:	4c2c      	ldr	r4, [pc, #176]	@ (10000630 <protothread_sched.constprop.0.isra.0+0x110>)
1000057e:	4e2b      	ldr	r6, [pc, #172]	@ (1000062c <protothread_sched.constprop.0.isra.0+0x10c>)
10000580:	f8df 90b0 	ldr.w	r9, [pc, #176]	@ 10000634 <protothread_sched.constprop.0.isra.0+0x114>
10000584:	f8df 80bc 	ldr.w	r8, [pc, #188]	@ 10000644 <protothread_sched.constprop.0.isra.0+0x124>
10000588:	4d2b      	ldr	r5, [pc, #172]	@ (10000638 <protothread_sched.constprop.0.isra.0+0x118>)
1000058a:	f8df a0bc 	ldr.w	sl, [pc, #188]	@ 10000648 <protothread_sched.constprop.0.isra.0+0x128>
1000058e:	f8d8 3000 	ldr.w	r3, [r8]
10000592:	6832      	ldr	r2, [r6, #0]
10000594:	3301      	adds	r3, #1
10000596:	2a00      	cmp	r2, #0
10000598:	f8c8 3000 	str.w	r3, [r8]
1000059c:	6027      	str	r7, [r4, #0]
1000059e:	dc00      	bgt.n	100005a2 <protothread_sched.constprop.0.isra.0+0x82>
100005a0:	e7fe      	b.n	100005a0 <protothread_sched.constprop.0.isra.0+0x80>
100005a2:	f8df b090 	ldr.w	fp, [pc, #144]	@ 10000634 <protothread_sched.constprop.0.isra.0+0x114>
100005a6:	602f      	str	r7, [r5, #0]
100005a8:	f001 fbf2 	bl	10001d90 <time_us_64>
100005ac:	6823      	ldr	r3, [r4, #0]
100005ae:	e9ca 0100 	strd	r0, r1, [sl]
100005b2:	eb03 0343 	add.w	r3, r3, r3, lsl #1
100005b6:	eb09 0383 	add.w	r3, r9, r3, lsl #2
100005ba:	689b      	ldr	r3, [r3, #8]
100005bc:	4658      	mov	r0, fp
100005be:	4798      	blx	r3
100005c0:	682a      	ldr	r2, [r5, #0]
100005c2:	6823      	ldr	r3, [r4, #0]
100005c4:	2a01      	cmp	r2, #1
100005c6:	d007      	beq.n	100005d8 <protothread_sched.constprop.0.isra.0+0xb8>
100005c8:	6832      	ldr	r2, [r6, #0]
100005ca:	3301      	adds	r3, #1
100005cc:	4293      	cmp	r3, r2
100005ce:	6023      	str	r3, [r4, #0]
100005d0:	f10b 0b0c 	add.w	fp, fp, #12
100005d4:	dadb      	bge.n	1000058e <protothread_sched.constprop.0.isra.0+0x6e>
100005d6:	e7e6      	b.n	100005a6 <protothread_sched.constprop.0.isra.0+0x86>
100005d8:	4918      	ldr	r1, [pc, #96]	@ (1000063c <protothread_sched.constprop.0.isra.0+0x11c>)
100005da:	f851 2023 	ldr.w	r2, [r1, r3, lsl #2]
100005de:	3201      	adds	r2, #1
100005e0:	f841 2023 	str.w	r2, [r1, r3, lsl #2]
100005e4:	f001 fbd4 	bl	10001d90 <time_us_64>
100005e8:	468e      	mov	lr, r1
100005ea:	f8d4 b000 	ldr.w	fp, [r4]
100005ee:	4b14      	ldr	r3, [pc, #80]	@ (10000640 <protothread_sched.constprop.0.isra.0+0x120>)
100005f0:	f8da 1004 	ldr.w	r1, [sl, #4]
100005f4:	f853 203b 	ldr.w	r2, [r3, fp, lsl #3]
100005f8:	eb03 0ccb 	add.w	ip, r3, fp, lsl #3
100005fc:	f8da 3000 	ldr.w	r3, [sl]
10000600:	1ad3      	subs	r3, r2, r3
10000602:	f8dc 2004 	ldr.w	r2, [ip, #4]
10000606:	eb62 0201 	sbc.w	r2, r2, r1
1000060a:	181b      	adds	r3, r3, r0
1000060c:	480c      	ldr	r0, [pc, #48]	@ (10000640 <protothread_sched.constprop.0.isra.0+0x120>)
1000060e:	eb42 020e 	adc.w	r2, r2, lr
10000612:	f840 303b 	str.w	r3, [r0, fp, lsl #3]
10000616:	f8cc 2004 	str.w	r2, [ip, #4]
1000061a:	e7b8      	b.n	1000058e <protothread_sched.constprop.0.isra.0+0x6e>
1000061c:	f047 0701 	orr.w	r7, r7, #1
10000620:	4738      	bx	r7
10000622:	bf00      	nop
10000624:	20000548 	.word	0x20000548
10000628:	20000550 	.word	0x20000550
1000062c:	20000554 	.word	0x20000554
10000630:	200004fc 	.word	0x200004fc
10000634:	2000055c 	.word	0x2000055c
10000638:	20000540 	.word	0x20000540
1000063c:	20000654 	.word	0x20000654
10000640:	200003e0 	.word	0x200003e0
10000644:	2000064c 	.word	0x2000064c
10000648:	20000480 	.word	0x20000480

1000064c <protothread_sched1.constprop.0.isra.0>:
1000064c:	e92d 4ff8 	stmdb	sp!, {r3, r4, r5, r6, r7, r8, r9, sl, fp, lr}
10000650:	4b3f      	ldr	r3, [pc, #252]	@ (10000750 <protothread_sched1.constprop.0.isra.0+0x104>)
10000652:	681f      	ldr	r7, [r3, #0]
10000654:	2f00      	cmp	r7, #0
10000656:	d177      	bne.n	10000748 <protothread_sched1.constprop.0.isra.0+0xfc>
10000658:	4b3e      	ldr	r3, [pc, #248]	@ (10000754 <protothread_sched1.constprop.0.isra.0+0x108>)
1000065a:	f8d3 8000 	ldr.w	r8, [r3]
1000065e:	f1b8 0f00 	cmp.w	r8, #0
10000662:	d11c      	bne.n	1000069e <protothread_sched1.constprop.0.isra.0+0x52>
10000664:	4e3c      	ldr	r6, [pc, #240]	@ (10000758 <protothread_sched1.constprop.0.isra.0+0x10c>)
10000666:	4647      	mov	r7, r8
10000668:	4c3c      	ldr	r4, [pc, #240]	@ (1000075c <protothread_sched1.constprop.0.isra.0+0x110>)
1000066a:	f8df 90f4 	ldr.w	r9, [pc, #244]	@ 10000760 <protothread_sched1.constprop.0.isra.0+0x114>
1000066e:	6833      	ldr	r3, [r6, #0]
10000670:	e011      	b.n	10000696 <protothread_sched1.constprop.0.isra.0+0x4a>
10000672:	2300      	movs	r3, #0
10000674:	4d3a      	ldr	r5, [pc, #232]	@ (10000760 <protothread_sched1.constprop.0.isra.0+0x114>)
10000676:	eb03 0343 	add.w	r3, r3, r3, lsl #1
1000067a:	eb09 0383 	add.w	r3, r9, r3, lsl #2
1000067e:	4628      	mov	r0, r5
10000680:	689b      	ldr	r3, [r3, #8]
10000682:	4798      	blx	r3
10000684:	6823      	ldr	r3, [r4, #0]
10000686:	6832      	ldr	r2, [r6, #0]
10000688:	3301      	adds	r3, #1
1000068a:	4293      	cmp	r3, r2
1000068c:	6023      	str	r3, [r4, #0]
1000068e:	f105 050c 	add.w	r5, r5, #12
10000692:	dbf0      	blt.n	10000676 <protothread_sched1.constprop.0.isra.0+0x2a>
10000694:	4613      	mov	r3, r2
10000696:	2b00      	cmp	r3, #0
10000698:	6027      	str	r7, [r4, #0]
1000069a:	dcea      	bgt.n	10000672 <protothread_sched1.constprop.0.isra.0+0x26>
1000069c:	e7fe      	b.n	1000069c <protothread_sched1.constprop.0.isra.0+0x50>
1000069e:	f1b8 0f01 	cmp.w	r8, #1
100006a2:	d001      	beq.n	100006a8 <protothread_sched1.constprop.0.isra.0+0x5c>
100006a4:	e8bd 8ff8 	ldmia.w	sp!, {r3, r4, r5, r6, r7, r8, r9, sl, fp, pc}
100006a8:	4c2c      	ldr	r4, [pc, #176]	@ (1000075c <protothread_sched1.constprop.0.isra.0+0x110>)
100006aa:	4e2b      	ldr	r6, [pc, #172]	@ (10000758 <protothread_sched1.constprop.0.isra.0+0x10c>)
100006ac:	f8df 90b0 	ldr.w	r9, [pc, #176]	@ 10000760 <protothread_sched1.constprop.0.isra.0+0x114>
100006b0:	f8df 80bc 	ldr.w	r8, [pc, #188]	@ 10000770 <protothread_sched1.constprop.0.isra.0+0x124>
100006b4:	4d2b      	ldr	r5, [pc, #172]	@ (10000764 <protothread_sched1.constprop.0.isra.0+0x118>)
100006b6:	f8df a0bc 	ldr.w	sl, [pc, #188]	@ 10000774 <protothread_sched1.constprop.0.isra.0+0x128>
100006ba:	f8d8 3000 	ldr.w	r3, [r8]
100006be:	6832      	ldr	r2, [r6, #0]
100006c0:	3301      	adds	r3, #1
100006c2:	2a00      	cmp	r2, #0
100006c4:	f8c8 3000 	str.w	r3, [r8]
100006c8:	6027      	str	r7, [r4, #0]
100006ca:	dc00      	bgt.n	100006ce <protothread_sched1.constprop.0.isra.0+0x82>
100006cc:	e7fe      	b.n	100006cc <protothread_sched1.constprop.0.isra.0+0x80>
100006ce:	f8df b090 	ldr.w	fp, [pc, #144]	@ 10000760 <protothread_sched1.constprop.0.isra.0+0x114>
100006d2:	602f      	str	r7, [r5, #0]
100006d4:	f001 fb5c 	bl	10001d90 <time_us_64>
100006d8:	6823      	ldr	r3, [r4, #0]
100006da:	e9ca 0100 	strd	r0, r1, [sl]
100006de:	eb03 0343 	add.w	r3, r3, r3, lsl #1
100006e2:	eb09 0383 	add.w	r3, r9, r3, lsl #2
100006e6:	689b      	ldr	r3, [r3, #8]
100006e8:	4658      	mov	r0, fp
100006ea:	4798      	blx	r3
100006ec:	682a      	ldr	r2, [r5, #0]
100006ee:	6823      	ldr	r3, [r4, #0]
100006f0:	2a01      	cmp	r2, #1
100006f2:	d007      	beq.n	10000704 <protothread_sched1.constprop.0.isra.0+0xb8>
100006f4:	6832      	ldr	r2, [r6, #0]
100006f6:	3301      	adds	r3, #1
100006f8:	4293      	cmp	r3, r2
100006fa:	6023      	str	r3, [r4, #0]
100006fc:	f10b 0b0c 	add.w	fp, fp, #12
10000700:	dadb      	bge.n	100006ba <protothread_sched1.constprop.0.isra.0+0x6e>
10000702:	e7e6      	b.n	100006d2 <protothread_sched1.constprop.0.isra.0+0x86>
10000704:	4918      	ldr	r1, [pc, #96]	@ (10000768 <protothread_sched1.constprop.0.isra.0+0x11c>)
10000706:	f851 2023 	ldr.w	r2, [r1, r3, lsl #2]
1000070a:	3201      	adds	r2, #1
1000070c:	f841 2023 	str.w	r2, [r1, r3, lsl #2]
10000710:	f001 fb3e 	bl	10001d90 <time_us_64>
10000714:	468e      	mov	lr, r1
10000716:	f8d4 b000 	ldr.w	fp, [r4]
1000071a:	4b14      	ldr	r3, [pc, #80]	@ (1000076c <protothread_sched1.constprop.0.isra.0+0x120>)
1000071c:	f8da 1004 	ldr.w	r1, [sl, #4]
10000720:	f853 203b 	ldr.w	r2, [r3, fp, lsl #3]
10000724:	eb03 0ccb 	add.w	ip, r3, fp, lsl #3
10000728:	f8da 3000 	ldr.w	r3, [sl]
1000072c:	1ad3      	subs	r3, r2, r3
1000072e:	f8dc 2004 	ldr.w	r2, [ip, #4]
10000732:	eb62 0201 	sbc.w	r2, r2, r1
10000736:	181b      	adds	r3, r3, r0
10000738:	480c      	ldr	r0, [pc, #48]	@ (1000076c <protothread_sched1.constprop.0.isra.0+0x120>)
1000073a:	eb42 020e 	adc.w	r2, r2, lr
1000073e:	f840 303b 	str.w	r3, [r0, fp, lsl #3]
10000742:	f8cc 2004 	str.w	r2, [ip, #4]
10000746:	e7b8      	b.n	100006ba <protothread_sched1.constprop.0.isra.0+0x6e>
10000748:	f047 0701 	orr.w	r7, r7, #1
1000074c:	4738      	bx	r7
1000074e:	bf00      	nop
10000750:	2000054c 	.word	0x2000054c
10000754:	20000550 	.word	0x20000550
10000758:	20000558 	.word	0x20000558
1000075c:	20000500 	.word	0x20000500
10000760:	200005d4 	.word	0x200005d4
10000764:	20000544 	.word	0x20000544
10000768:	2000067c 	.word	0x2000067c
1000076c:	20000430 	.word	0x20000430
10000770:	20000650 	.word	0x20000650
10000774:	20000488 	.word	0x20000488

10000778 <main>:
10000778:	b570      	push	{r4, r5, r6, lr}
1000077a:	b084      	sub	sp, #16
1000077c:	4850      	ldr	r0, [pc, #320]	@ (100008c0 <main+0x148>)
1000077e:	ab03      	add	r3, sp, #12
10000780:	aa02      	add	r2, sp, #8
10000782:	a901      	add	r1, sp, #4
10000784:	f001 fc3e 	bl	10002004 <check_sys_clock_khz>
10000788:	b918      	cbnz	r0, 10000792 <main+0x1a>
1000078a:	494d      	ldr	r1, [pc, #308]	@ (100008c0 <main+0x148>)
1000078c:	484d      	ldr	r0, [pc, #308]	@ (100008c4 <main+0x14c>)
1000078e:	f000 fe6d 	bl	1000146c <panic>
10000792:	e9dd 1202 	ldrd	r1, r2, [sp, #8]
10000796:	9801      	ldr	r0, [sp, #4]
10000798:	f001 fb72 	bl	10001e80 <set_sys_clock_pll>
1000079c:	f001 ffaa 	bl	100026f4 <stdio_init_all>
100007a0:	f7ff fd4a 	bl	10000238 <initVGA>
100007a4:	2001      	movs	r0, #1
100007a6:	f000 f8a5 	bl	100008f4 <init_text_screen>
100007aa:	200f      	movs	r0, #15
100007ac:	f000 fde2 	bl	10001374 <setTextColor>
100007b0:	2001      	movs	r0, #1
100007b2:	f000 fdd7 	bl	10001364 <setTextSize>
100007b6:	4844      	ldr	r0, [pc, #272]	@ (100008c8 <main+0x150>)
100007b8:	f000 fde6 	bl	10001388 <printString>
100007bc:	4843      	ldr	r0, [pc, #268]	@ (100008cc <main+0x154>)
100007be:	f000 fde3 	bl	10001388 <printString>
100007c2:	4841      	ldr	r0, [pc, #260]	@ (100008c8 <main+0x150>)
100007c4:	f000 fde0 	bl	10001388 <printString>
100007c8:	4840      	ldr	r0, [pc, #256]	@ (100008cc <main+0x154>)
100007ca:	f000 fddd 	bl	10001388 <printString>
100007ce:	483e      	ldr	r0, [pc, #248]	@ (100008c8 <main+0x150>)
100007d0:	f000 fdda 	bl	10001388 <printString>
100007d4:	483d      	ldr	r0, [pc, #244]	@ (100008cc <main+0x154>)
100007d6:	f000 fdd7 	bl	10001388 <printString>
100007da:	483b      	ldr	r0, [pc, #236]	@ (100008c8 <main+0x150>)
100007dc:	f000 fdd4 	bl	10001388 <printString>
100007e0:	483a      	ldr	r0, [pc, #232]	@ (100008cc <main+0x154>)
100007e2:	f000 fdd1 	bl	10001388 <printString>
100007e6:	4838      	ldr	r0, [pc, #224]	@ (100008c8 <main+0x150>)
100007e8:	f000 fdce 	bl	10001388 <printString>
100007ec:	4837      	ldr	r0, [pc, #220]	@ (100008cc <main+0x154>)
100007ee:	f000 fdcb 	bl	10001388 <printString>
100007f2:	4835      	ldr	r0, [pc, #212]	@ (100008c8 <main+0x150>)
100007f4:	f000 fdc8 	bl	10001388 <printString>
100007f8:	4834      	ldr	r0, [pc, #208]	@ (100008cc <main+0x154>)
100007fa:	f000 fdc5 	bl	10001388 <printString>
100007fe:	4832      	ldr	r0, [pc, #200]	@ (100008c8 <main+0x150>)
10000800:	f000 fdc2 	bl	10001388 <printString>
10000804:	4831      	ldr	r0, [pc, #196]	@ (100008cc <main+0x154>)
10000806:	f000 fdbf 	bl	10001388 <printString>
1000080a:	482f      	ldr	r0, [pc, #188]	@ (100008c8 <main+0x150>)
1000080c:	f000 fdbc 	bl	10001388 <printString>
10000810:	482e      	ldr	r0, [pc, #184]	@ (100008cc <main+0x154>)
10000812:	f000 fdb9 	bl	10001388 <printString>
10000816:	482c      	ldr	r0, [pc, #176]	@ (100008c8 <main+0x150>)
10000818:	f000 fdb6 	bl	10001388 <printString>
1000081c:	482b      	ldr	r0, [pc, #172]	@ (100008cc <main+0x154>)
1000081e:	f000 fdb3 	bl	10001388 <printString>
10000822:	4829      	ldr	r0, [pc, #164]	@ (100008c8 <main+0x150>)
10000824:	f000 fdb0 	bl	10001388 <printString>
10000828:	4828      	ldr	r0, [pc, #160]	@ (100008cc <main+0x154>)
1000082a:	f000 fdad 	bl	10001388 <printString>
1000082e:	4826      	ldr	r0, [pc, #152]	@ (100008c8 <main+0x150>)
10000830:	f000 fdaa 	bl	10001388 <printString>
10000834:	4825      	ldr	r0, [pc, #148]	@ (100008cc <main+0x154>)
10000836:	f000 fda7 	bl	10001388 <printString>
1000083a:	4823      	ldr	r0, [pc, #140]	@ (100008c8 <main+0x150>)
1000083c:	f000 fda4 	bl	10001388 <printString>
10000840:	4822      	ldr	r0, [pc, #136]	@ (100008cc <main+0x154>)
10000842:	f000 fda1 	bl	10001388 <printString>
10000846:	2002      	movs	r0, #2
10000848:	f000 fd8c 	bl	10001364 <setTextSize>
1000084c:	4820      	ldr	r0, [pc, #128]	@ (100008d0 <main+0x158>)
1000084e:	f000 fd9b 	bl	10001388 <printString>
10000852:	4820      	ldr	r0, [pc, #128]	@ (100008d4 <main+0x15c>)
10000854:	f000 fd98 	bl	10001388 <printString>
10000858:	f04f 4350 	mov.w	r3, #3489660928	@ 0xd0000000
1000085c:	681b      	ldr	r3, [r3, #0]
1000085e:	2b01      	cmp	r3, #1
10000860:	d017      	beq.n	10000892 <main+0x11a>
10000862:	4a1d      	ldr	r2, [pc, #116]	@ (100008d8 <main+0x160>)
10000864:	6813      	ldr	r3, [r2, #0]
10000866:	2b09      	cmp	r3, #9
10000868:	dc0b      	bgt.n	10000882 <main+0x10a>
1000086a:	210c      	movs	r1, #12
1000086c:	2400      	movs	r4, #0
1000086e:	1c5e      	adds	r6, r3, #1
10000870:	6016      	str	r6, [r2, #0]
10000872:	fb01 f203 	mul.w	r2, r1, r3
10000876:	4819      	ldr	r0, [pc, #100]	@ (100008dc <main+0x164>)
10000878:	4d19      	ldr	r5, [pc, #100]	@ (100008e0 <main+0x168>)
1000087a:	1881      	adds	r1, r0, r2
1000087c:	e9c1 3501 	strd	r3, r5, [r1, #4]
10000880:	5084      	str	r4, [r0, r2]
10000882:	2200      	movs	r2, #0
10000884:	4b17      	ldr	r3, [pc, #92]	@ (100008e4 <main+0x16c>)
10000886:	601a      	str	r2, [r3, #0]
10000888:	f7ff fe4a 	bl	10000520 <protothread_sched.constprop.0.isra.0>
1000088c:	2000      	movs	r0, #0
1000088e:	b004      	add	sp, #16
10000890:	bd70      	pop	{r4, r5, r6, pc}
10000892:	4a15      	ldr	r2, [pc, #84]	@ (100008e8 <main+0x170>)
10000894:	6813      	ldr	r3, [r2, #0]
10000896:	2b09      	cmp	r3, #9
10000898:	dd05      	ble.n	100008a6 <main+0x12e>
1000089a:	2200      	movs	r2, #0
1000089c:	4b13      	ldr	r3, [pc, #76]	@ (100008ec <main+0x174>)
1000089e:	601a      	str	r2, [r3, #0]
100008a0:	f7ff fed4 	bl	1000064c <protothread_sched1.constprop.0.isra.0>
100008a4:	e7f2      	b.n	1000088c <main+0x114>
100008a6:	210c      	movs	r1, #12
100008a8:	2400      	movs	r4, #0
100008aa:	1c5e      	adds	r6, r3, #1
100008ac:	6016      	str	r6, [r2, #0]
100008ae:	fb01 f203 	mul.w	r2, r1, r3
100008b2:	480f      	ldr	r0, [pc, #60]	@ (100008f0 <main+0x178>)
100008b4:	4d0a      	ldr	r5, [pc, #40]	@ (100008e0 <main+0x168>)
100008b6:	1881      	adds	r1, r0, r2
100008b8:	e9c1 3501 	strd	r3, r5, [r1, #4]
100008bc:	5084      	str	r4, [r0, r2]
100008be:	e7ec      	b.n	1000089a <main+0x122>
100008c0:	000249f0 	.word	0x000249f0
100008c4:	10002db4 	.word	0x10002db4
100008c8:	10002ce0 	.word	0x10002ce0
100008cc:	10002d34 	.word	0x10002d34
100008d0:	10002d88 	.word	0x10002d88
100008d4:	10002d5c 	.word	0x10002d5c
100008d8:	20000554 	.word	0x20000554
100008dc:	2000055c 	.word	0x2000055c
100008e0:	10000491 	.word	0x10000491
100008e4:	20000548 	.word	0x20000548
100008e8:	20000558 	.word	0x20000558
100008ec:	2000054c 	.word	0x2000054c
100008f0:	200005d4 	.word	0x200005d4

100008f4 <init_text_screen>:
100008f4:	b410      	push	{r4}
100008f6:	b9c8      	cbnz	r0, 1000092c <init_text_screen+0x38>
100008f8:	2301      	movs	r3, #1
100008fa:	f04f 0c0f 	mov.w	ip, #15
100008fe:	f44f 74a0 	mov.w	r4, #320	@ 0x140
10000902:	22f0      	movs	r2, #240	@ 0xf0
10000904:	4918      	ldr	r1, [pc, #96]	@ (10000968 <init_text_screen+0x74>)
10000906:	8008      	strh	r0, [r1, #0]
10000908:	4918      	ldr	r1, [pc, #96]	@ (1000096c <init_text_screen+0x78>)
1000090a:	8008      	strh	r0, [r1, #0]
1000090c:	4918      	ldr	r1, [pc, #96]	@ (10000970 <init_text_screen+0x7c>)
1000090e:	800b      	strh	r3, [r1, #0]
10000910:	4918      	ldr	r1, [pc, #96]	@ (10000974 <init_text_screen+0x80>)
10000912:	f881 c000 	strb.w	ip, [r1]
10000916:	4918      	ldr	r1, [pc, #96]	@ (10000978 <init_text_screen+0x84>)
10000918:	7008      	strb	r0, [r1, #0]
1000091a:	4818      	ldr	r0, [pc, #96]	@ (1000097c <init_text_screen+0x88>)
1000091c:	4918      	ldr	r1, [pc, #96]	@ (10000980 <init_text_screen+0x8c>)
1000091e:	7003      	strb	r3, [r0, #0]
10000920:	4b18      	ldr	r3, [pc, #96]	@ (10000984 <init_text_screen+0x90>)
10000922:	600c      	str	r4, [r1, #0]
10000924:	601a      	str	r2, [r3, #0]
10000926:	f85d 4b04 	ldr.w	r4, [sp], #4
1000092a:	4770      	bx	lr
1000092c:	2801      	cmp	r0, #1
1000092e:	d1fa      	bne.n	10000926 <init_text_screen+0x32>
10000930:	2300      	movs	r3, #0
10000932:	f04f 0c0f 	mov.w	ip, #15
10000936:	f44f 7420 	mov.w	r4, #640	@ 0x280
1000093a:	f44f 72f0 	mov.w	r2, #480	@ 0x1e0
1000093e:	490a      	ldr	r1, [pc, #40]	@ (10000968 <init_text_screen+0x74>)
10000940:	800b      	strh	r3, [r1, #0]
10000942:	490a      	ldr	r1, [pc, #40]	@ (1000096c <init_text_screen+0x78>)
10000944:	800b      	strh	r3, [r1, #0]
10000946:	490a      	ldr	r1, [pc, #40]	@ (10000970 <init_text_screen+0x7c>)
10000948:	8008      	strh	r0, [r1, #0]
1000094a:	490a      	ldr	r1, [pc, #40]	@ (10000974 <init_text_screen+0x80>)
1000094c:	f881 c000 	strb.w	ip, [r1]
10000950:	4909      	ldr	r1, [pc, #36]	@ (10000978 <init_text_screen+0x84>)
10000952:	700b      	strb	r3, [r1, #0]
10000954:	4b09      	ldr	r3, [pc, #36]	@ (1000097c <init_text_screen+0x88>)
10000956:	490a      	ldr	r1, [pc, #40]	@ (10000980 <init_text_screen+0x8c>)
10000958:	7018      	strb	r0, [r3, #0]
1000095a:	4b0a      	ldr	r3, [pc, #40]	@ (10000984 <init_text_screen+0x90>)
1000095c:	600c      	str	r4, [r1, #0]
1000095e:	601a      	str	r2, [r3, #0]
10000960:	f85d 4b04 	ldr.w	r4, [sp], #4
10000964:	4770      	bx	lr
10000966:	bf00      	nop
10000968:	20025eaa 	.word	0x20025eaa
1000096c:	20025eac 	.word	0x20025eac
10000970:	20025eae 	.word	0x20025eae
10000974:	20025eb2 	.word	0x20025eb2
10000978:	20025eb1 	.word	0x20025eb1
1000097c:	20025eb3 	.word	0x20025eb3
10000980:	200004c0 	.word	0x200004c0
10000984:	20000490 	.word	0x20000490

10000988 <fillRect>:
10000988:	e92d 4ff0 	stmdb	sp!, {r4, r5, r6, r7, r8, r9, sl, fp, lr}
1000098c:	4c47      	ldr	r4, [pc, #284]	@ (10000aac <fillRect+0x124>)
1000098e:	185e      	adds	r6, r3, r1
10000990:	6827      	ldr	r7, [r4, #0]
10000992:	b083      	sub	sp, #12
10000994:	42be      	cmp	r6, r7
10000996:	4605      	mov	r5, r0
10000998:	460c      	mov	r4, r1
1000099a:	f89d b030 	ldrb.w	fp, [sp, #48]	@ 0x30
1000099e:	dd03      	ble.n	100009a8 <fillRect+0x20>
100009a0:	1e7b      	subs	r3, r7, #1
100009a2:	1a5b      	subs	r3, r3, r1
100009a4:	b21b      	sxth	r3, r3
100009a6:	185e      	adds	r6, r3, r1
100009a8:	2b00      	cmp	r3, #0
100009aa:	dd06      	ble.n	100009ba <fillRect+0x32>
100009ac:	4b40      	ldr	r3, [pc, #256]	@ (10000ab0 <fillRect+0x128>)
100009ae:	f8d3 8000 	ldr.w	r8, [r3]
100009b2:	4545      	cmp	r5, r8
100009b4:	da01      	bge.n	100009ba <fillRect+0x32>
100009b6:	42b9      	cmp	r1, r7
100009b8:	db02      	blt.n	100009c0 <fillRect+0x38>
100009ba:	b003      	add	sp, #12
100009bc:	e8bd 8ff0 	ldmia.w	sp!, {r4, r5, r6, r7, r8, r9, sl, fp, pc}
100009c0:	eba8 0905 	sub.w	r9, r8, r5
100009c4:	18ab      	adds	r3, r5, r2
100009c6:	42be      	cmp	r6, r7
100009c8:	f109 39ff 	add.w	r9, r9, #4294967295	@ 0xffffffff
100009cc:	bfa8      	it	ge
100009ce:	463e      	movge	r6, r7
100009d0:	4598      	cmp	r8, r3
100009d2:	bfa8      	it	ge
100009d4:	4691      	movge	r9, r2
100009d6:	1c6b      	adds	r3, r5, #1
100009d8:	f005 0a01 	and.w	sl, r5, #1
100009dc:	9301      	str	r3, [sp, #4]
100009de:	f109 33ff 	add.w	r3, r9, #4294967295	@ 0xffffffff
100009e2:	9300      	str	r3, [sp, #0]
100009e4:	462b      	mov	r3, r5
100009e6:	4655      	mov	r5, sl
100009e8:	469a      	mov	sl, r3
100009ea:	b975      	cbnz	r5, 10000a0a <fillRect+0x82>
100009ec:	464b      	mov	r3, r9
100009ee:	07d8      	lsls	r0, r3, #31
100009f0:	4651      	mov	r1, sl
100009f2:	d425      	bmi.n	10000a40 <fillRect+0xb8>
100009f4:	105a      	asrs	r2, r3, #1
100009f6:	2a00      	cmp	r2, #0
100009f8:	dd02      	ble.n	10000a00 <fillRect+0x78>
100009fa:	f5b4 7ff0 	cmp.w	r4, #480	@ 0x1e0
100009fe:	db48      	blt.n	10000a92 <fillRect+0x10a>
10000a00:	3401      	adds	r4, #1
10000a02:	42b4      	cmp	r4, r6
10000a04:	dad9      	bge.n	100009ba <fillRect+0x32>
10000a06:	2d00      	cmp	r5, #0
10000a08:	d0f0      	beq.n	100009ec <fillRect+0x64>
10000a0a:	ea4a 0204 	orr.w	r2, sl, r4
10000a0e:	0412      	lsls	r2, r2, #16
10000a10:	b223      	sxth	r3, r4
10000a12:	d411      	bmi.n	10000a38 <fillRect+0xb0>
10000a14:	429f      	cmp	r7, r3
10000a16:	dd0f      	ble.n	10000a38 <fillRect+0xb0>
10000a18:	fb03 a308 	mla	r3, r3, r8, sl
10000a1c:	4825      	ldr	r0, [pc, #148]	@ (10000ab4 <fillRect+0x12c>)
10000a1e:	1059      	asrs	r1, r3, #1
10000a20:	5c42      	ldrb	r2, [r0, r1]
10000a22:	07db      	lsls	r3, r3, #31
10000a24:	bf55      	itete	pl
10000a26:	f022 030f 	bicpl.w	r3, r2, #15
10000a2a:	f002 030f 	andmi.w	r3, r2, #15
10000a2e:	ea4b 0303 	orrpl.w	r3, fp, r3
10000a32:	ea43 130b 	orrmi.w	r3, r3, fp, lsl #4
10000a36:	5443      	strb	r3, [r0, r1]
10000a38:	e9dd 3100 	ldrd	r3, r1, [sp]
10000a3c:	07d8      	lsls	r0, r3, #31
10000a3e:	d5d9      	bpl.n	100009f4 <fillRect+0x6c>
10000a40:	fa0f fe84 	sxth.w	lr, r4
10000a44:	f3c4 3cc0 	ubfx	ip, r4, #15, #1
10000a48:	4577      	cmp	r7, lr
10000a4a:	bfd8      	it	le
10000a4c:	f04c 0c01 	orrle.w	ip, ip, #1
10000a50:	18ca      	adds	r2, r1, r3
10000a52:	3a01      	subs	r2, #1
10000a54:	f3c2 30c0 	ubfx	r0, r2, #15, #1
10000a58:	ea40 000c 	orr.w	r0, r0, ip
10000a5c:	b2c0      	uxtb	r0, r0
10000a5e:	b212      	sxth	r2, r2
10000a60:	b9a8      	cbnz	r0, 10000a8e <fillRect+0x106>
10000a62:	4542      	cmp	r2, r8
10000a64:	da13      	bge.n	10000a8e <fillRect+0x106>
10000a66:	fb08 220e 	mla	r2, r8, lr, r2
10000a6a:	f8df e048 	ldr.w	lr, [pc, #72]	@ 10000ab4 <fillRect+0x12c>
10000a6e:	ea4f 0c62 	mov.w	ip, r2, asr #1
10000a72:	f81e 000c 	ldrb.w	r0, [lr, ip]
10000a76:	07d2      	lsls	r2, r2, #31
10000a78:	bf55      	itete	pl
10000a7a:	f020 020f 	bicpl.w	r2, r0, #15
10000a7e:	f000 020f 	andmi.w	r2, r0, #15
10000a82:	ea4b 0202 	orrpl.w	r2, fp, r2
10000a86:	ea42 120b 	orrmi.w	r2, r2, fp, lsl #4
10000a8a:	f80e 200c 	strb.w	r2, [lr, ip]
10000a8e:	3b01      	subs	r3, #1
10000a90:	e7b0      	b.n	100009f4 <fillRect+0x6c>
10000a92:	eb04 0384 	add.w	r3, r4, r4, lsl #2
10000a96:	4807      	ldr	r0, [pc, #28]	@ (10000ab4 <fillRect+0x12c>)
10000a98:	019b      	lsls	r3, r3, #6
10000a9a:	eb03 0361 	add.w	r3, r3, r1, asr #1
10000a9e:	4418      	add	r0, r3
10000aa0:	ea4b 110b 	orr.w	r1, fp, fp, lsl #4
10000aa4:	f001 ffd0 	bl	10002a48 <memset>
10000aa8:	e7aa      	b.n	10000a00 <fillRect+0x78>
10000aaa:	bf00      	nop
10000aac:	20000490 	.word	0x20000490
10000ab0:	200004c0 	.word	0x200004c0
10000ab4:	200006a8 	.word	0x200006a8

10000ab8 <drawChar2>:
10000ab8:	e92d 4ff0 	stmdb	sp!, {r4, r5, r6, r7, r8, r9, sl, fp, lr}
10000abc:	f04f 0c00 	mov.w	ip, #0
10000ac0:	460d      	mov	r5, r1
10000ac2:	4617      	mov	r7, r2
10000ac4:	b201      	sxth	r1, r0
10000ac6:	b095      	sub	sp, #84	@ 0x54
10000ac8:	461c      	mov	r4, r3
10000aca:	2208      	movs	r2, #8
10000acc:	2310      	movs	r3, #16
10000ace:	4606      	mov	r6, r0
10000ad0:	468b      	mov	fp, r1
10000ad2:	4608      	mov	r0, r1
10000ad4:	f8cd c000 	str.w	ip, [sp]
10000ad8:	b229      	sxth	r1, r5
10000ada:	f7ff ff55 	bl	10000988 <fillRect>
10000ade:	4b39      	ldr	r3, [pc, #228]	@ (10000bc4 <drawChar2+0x10c>)
10000ae0:	7818      	ldrb	r0, [r3, #0]
10000ae2:	fb17 fe00 	smulbb	lr, r7, r0
10000ae6:	2800      	cmp	r0, #0
10000ae8:	f000 822e 	beq.w	10000f48 <drawChar2+0x490>
10000aec:	b2a9      	uxth	r1, r5
10000aee:	4408      	add	r0, r1
10000af0:	b283      	uxth	r3, r0
10000af2:	9313      	str	r3, [sp, #76]	@ 0x4c
10000af4:	4b34      	ldr	r3, [pc, #208]	@ (10000bc8 <drawChar2+0x110>)
10000af6:	f106 0801 	add.w	r8, r6, #1
10000afa:	681d      	ldr	r5, [r3, #0]
10000afc:	1d30      	adds	r0, r6, #4
10000afe:	455d      	cmp	r5, fp
10000b00:	f106 0a02 	add.w	sl, r6, #2
10000b04:	9002      	str	r0, [sp, #8]
10000b06:	fa0f f088 	sxth.w	r0, r8
10000b0a:	f3c8 38c0 	ubfx	r8, r8, #15, #1
10000b0e:	bfcc      	ite	gt
10000b10:	f04f 0c00 	movgt.w	ip, #0
10000b14:	f04f 0c01 	movle.w	ip, #1
10000b18:	900c      	str	r0, [sp, #48]	@ 0x30
10000b1a:	42a8      	cmp	r0, r5
10000b1c:	bfa8      	it	ge
10000b1e:	f048 0801 	orrge.w	r8, r8, #1
10000b22:	fa0f f08a 	sxth.w	r0, sl
10000b26:	f3ca 3ac0 	ubfx	sl, sl, #15, #1
10000b2a:	4657      	mov	r7, sl
10000b2c:	4285      	cmp	r5, r0
10000b2e:	bfd8      	it	le
10000b30:	f047 0701 	orrle.w	r7, r7, #1
10000b34:	f106 0903 	add.w	r9, r6, #3
10000b38:	9708      	str	r7, [sp, #32]
10000b3a:	fa0f f789 	sxth.w	r7, r9
10000b3e:	f3c9 39c0 	ubfx	r9, r9, #15, #1
10000b42:	900e      	str	r0, [sp, #56]	@ 0x38
10000b44:	4648      	mov	r0, r9
10000b46:	42bd      	cmp	r5, r7
10000b48:	bfd8      	it	le
10000b4a:	f040 0001 	orrle.w	r0, r0, #1
10000b4e:	9003      	str	r0, [sp, #12]
10000b50:	9802      	ldr	r0, [sp, #8]
10000b52:	970f      	str	r7, [sp, #60]	@ 0x3c
10000b54:	b207      	sxth	r7, r0
10000b56:	f3c0 30c0 	ubfx	r0, r0, #15, #1
10000b5a:	42bd      	cmp	r5, r7
10000b5c:	bfd8      	it	le
10000b5e:	f040 0001 	orrle.w	r0, r0, #1
10000b62:	1d72      	adds	r2, r6, #5
10000b64:	9004      	str	r0, [sp, #16]
10000b66:	ea4c 70db 	orr.w	r0, ip, fp, lsr #31
10000b6a:	9006      	str	r0, [sp, #24]
10000b6c:	b210      	sxth	r0, r2
10000b6e:	f3c2 32c0 	ubfx	r2, r2, #15, #1
10000b72:	4285      	cmp	r5, r0
10000b74:	bfd8      	it	le
10000b76:	f042 0201 	orrle.w	r2, r2, #1
10000b7a:	1db3      	adds	r3, r6, #6
10000b7c:	9205      	str	r2, [sp, #20]
10000b7e:	b21a      	sxth	r2, r3
10000b80:	f3c3 33c0 	ubfx	r3, r3, #15, #1
10000b84:	4295      	cmp	r5, r2
10000b86:	bfd8      	it	le
10000b88:	f043 0301 	orrle.w	r3, r3, #1
10000b8c:	3607      	adds	r6, #7
10000b8e:	9309      	str	r3, [sp, #36]	@ 0x24
10000b90:	b233      	sxth	r3, r6
10000b92:	f3c6 36c0 	ubfx	r6, r6, #15, #1
10000b96:	429d      	cmp	r5, r3
10000b98:	bfd8      	it	le
10000b9a:	f046 0601 	orrle.w	r6, r6, #1
10000b9e:	930d      	str	r3, [sp, #52]	@ 0x34
10000ba0:	4b0a      	ldr	r3, [pc, #40]	@ (10000bcc <drawChar2+0x114>)
10000ba2:	b2e4      	uxtb	r4, r4
10000ba4:	681b      	ldr	r3, [r3, #0]
10000ba6:	9710      	str	r7, [sp, #64]	@ 0x40
10000ba8:	9302      	str	r3, [sp, #8]
10000baa:	4b09      	ldr	r3, [pc, #36]	@ (10000bd0 <drawChar2+0x118>)
10000bac:	9f13      	ldr	r7, [sp, #76]	@ 0x4c
10000bae:	449e      	add	lr, r3
10000bb0:	f8cd b02c 	str.w	fp, [sp, #44]	@ 0x2c
10000bb4:	4b07      	ldr	r3, [pc, #28]	@ (10000bd4 <drawChar2+0x11c>)
10000bb6:	9011      	str	r0, [sp, #68]	@ 0x44
10000bb8:	9212      	str	r2, [sp, #72]	@ 0x48
10000bba:	9607      	str	r6, [sp, #28]
10000bbc:	ea4f 1904 	mov.w	r9, r4, lsl #4
10000bc0:	950a      	str	r5, [sp, #40]	@ 0x28
10000bc2:	e0cb      	b.n	10000d5c <drawChar2+0x2a4>
10000bc4:	2000022d 	.word	0x2000022d
10000bc8:	200004c0 	.word	0x200004c0
10000bcc:	20000490 	.word	0x20000490
10000bd0:	10002ef3 	.word	0x10002ef3
10000bd4:	200006a8 	.word	0x200006a8
10000bd8:	f1bc 0f00 	cmp.w	ip, #0
10000bdc:	d10f      	bne.n	10000bfe <drawChar2+0x146>
10000bde:	9d0b      	ldr	r5, [sp, #44]	@ 0x2c
10000be0:	eb02 0b05 	add.w	fp, r2, r5
10000be4:	ea4f 0a6b 	mov.w	sl, fp, asr #1
10000be8:	f813 c00a 	ldrb.w	ip, [r3, sl]
10000bec:	f01b 0f01 	tst.w	fp, #1
10000bf0:	bf0c      	ite	eq
10000bf2:	f02c 0c0f 	biceq.w	ip, ip, #15
10000bf6:	f00c 0c0f 	andne.w	ip, ip, #15
10000bfa:	f803 c00a 	strb.w	ip, [r3, sl]
10000bfe:	0675      	lsls	r5, r6, #25
10000c00:	ea40 0c08 	orr.w	ip, r0, r8
10000c04:	f100 80d9 	bmi.w	10000dba <drawChar2+0x302>
10000c08:	f1bc 0f00 	cmp.w	ip, #0
10000c0c:	d10f      	bne.n	10000c2e <drawChar2+0x176>
10000c0e:	9d0c      	ldr	r5, [sp, #48]	@ 0x30
10000c10:	eb05 0b02 	add.w	fp, r5, r2
10000c14:	ea4f 0a6b 	mov.w	sl, fp, asr #1
10000c18:	f813 c00a 	ldrb.w	ip, [r3, sl]
10000c1c:	f01b 0f01 	tst.w	fp, #1
10000c20:	bf0c      	ite	eq
10000c22:	f02c 0c0f 	biceq.w	ip, ip, #15
10000c26:	f00c 0c0f 	andne.w	ip, ip, #15
10000c2a:	f803 c00a 	strb.w	ip, [r3, sl]
10000c2e:	9d08      	ldr	r5, [sp, #32]
10000c30:	ea40 0c05 	orr.w	ip, r0, r5
10000c34:	06b5      	lsls	r5, r6, #26
10000c36:	f100 80de 	bmi.w	10000df6 <drawChar2+0x33e>
10000c3a:	f1bc 0f00 	cmp.w	ip, #0
10000c3e:	d10f      	bne.n	10000c60 <drawChar2+0x1a8>
10000c40:	9d0e      	ldr	r5, [sp, #56]	@ 0x38
10000c42:	eb02 0b05 	add.w	fp, r2, r5
10000c46:	ea4f 0a6b 	mov.w	sl, fp, asr #1
10000c4a:	f813 c00a 	ldrb.w	ip, [r3, sl]
10000c4e:	f01b 0f01 	tst.w	fp, #1
10000c52:	bf0c      	ite	eq
10000c54:	f02c 0c0f 	biceq.w	ip, ip, #15
10000c58:	f00c 0c0f 	andne.w	ip, ip, #15
10000c5c:	f803 c00a 	strb.w	ip, [r3, sl]
10000c60:	9d03      	ldr	r5, [sp, #12]
10000c62:	ea40 0c05 	orr.w	ip, r0, r5
10000c66:	06f5      	lsls	r5, r6, #27
10000c68:	f100 80e3 	bmi.w	10000e32 <drawChar2+0x37a>
10000c6c:	f1bc 0f00 	cmp.w	ip, #0
10000c70:	d10f      	bne.n	10000c92 <drawChar2+0x1da>
10000c72:	9d0f      	ldr	r5, [sp, #60]	@ 0x3c
10000c74:	eb02 0b05 	add.w	fp, r2, r5
10000c78:	ea4f 0a6b 	mov.w	sl, fp, asr #1
10000c7c:	f813 c00a 	ldrb.w	ip, [r3, sl]
10000c80:	f01b 0f01 	tst.w	fp, #1
10000c84:	bf0c      	ite	eq
10000c86:	f02c 0c0f 	biceq.w	ip, ip, #15
10000c8a:	f00c 0c0f 	andne.w	ip, ip, #15
10000c8e:	f803 c00a 	strb.w	ip, [r3, sl]
10000c92:	9d04      	ldr	r5, [sp, #16]
10000c94:	ea40 0c05 	orr.w	ip, r0, r5
10000c98:	0735      	lsls	r5, r6, #28
10000c9a:	f100 80e8 	bmi.w	10000e6e <drawChar2+0x3b6>
10000c9e:	f1bc 0f00 	cmp.w	ip, #0
10000ca2:	d10f      	bne.n	10000cc4 <drawChar2+0x20c>
10000ca4:	9d10      	ldr	r5, [sp, #64]	@ 0x40
10000ca6:	eb02 0b05 	add.w	fp, r2, r5
10000caa:	ea4f 0a6b 	mov.w	sl, fp, asr #1
10000cae:	f813 c00a 	ldrb.w	ip, [r3, sl]
10000cb2:	f01b 0f01 	tst.w	fp, #1
10000cb6:	bf0c      	ite	eq
10000cb8:	f02c 0c0f 	biceq.w	ip, ip, #15
10000cbc:	f00c 0c0f 	andne.w	ip, ip, #15
10000cc0:	f803 c00a 	strb.w	ip, [r3, sl]
10000cc4:	9d05      	ldr	r5, [sp, #20]
10000cc6:	ea40 0c05 	orr.w	ip, r0, r5
10000cca:	0775      	lsls	r5, r6, #29
10000ccc:	f100 80ed 	bmi.w	10000eaa <drawChar2+0x3f2>
10000cd0:	f1bc 0f00 	cmp.w	ip, #0
10000cd4:	d10f      	bne.n	10000cf6 <drawChar2+0x23e>
10000cd6:	9d11      	ldr	r5, [sp, #68]	@ 0x44
10000cd8:	eb02 0b05 	add.w	fp, r2, r5
10000cdc:	ea4f 0a6b 	mov.w	sl, fp, asr #1
10000ce0:	f813 c00a 	ldrb.w	ip, [r3, sl]
10000ce4:	f01b 0f01 	tst.w	fp, #1
10000ce8:	bf0c      	ite	eq
10000cea:	f02c 0c0f 	biceq.w	ip, ip, #15
10000cee:	f00c 0c0f 	andne.w	ip, ip, #15
10000cf2:	f803 c00a 	strb.w	ip, [r3, sl]
10000cf6:	9d09      	ldr	r5, [sp, #36]	@ 0x24
10000cf8:	ea40 0c05 	orr.w	ip, r0, r5
10000cfc:	07b5      	lsls	r5, r6, #30
10000cfe:	f100 80f2 	bmi.w	10000ee6 <drawChar2+0x42e>
10000d02:	f1bc 0f00 	cmp.w	ip, #0
10000d06:	d10f      	bne.n	10000d28 <drawChar2+0x270>
10000d08:	9d12      	ldr	r5, [sp, #72]	@ 0x48
10000d0a:	eb02 0b05 	add.w	fp, r2, r5
10000d0e:	ea4f 0a6b 	mov.w	sl, fp, asr #1
10000d12:	f813 c00a 	ldrb.w	ip, [r3, sl]
10000d16:	f01b 0f01 	tst.w	fp, #1
10000d1a:	bf0c      	ite	eq
10000d1c:	f02c 0c0f 	biceq.w	ip, ip, #15
10000d20:	f00c 0c0f 	andne.w	ip, ip, #15
10000d24:	f803 c00a 	strb.w	ip, [r3, sl]
10000d28:	9d07      	ldr	r5, [sp, #28]
10000d2a:	07f6      	lsls	r6, r6, #31
10000d2c:	ea40 0005 	orr.w	r0, r0, r5
10000d30:	f140 80f7 	bpl.w	10000f22 <drawChar2+0x46a>
10000d34:	b968      	cbnz	r0, 10000d52 <drawChar2+0x29a>
10000d36:	980d      	ldr	r0, [sp, #52]	@ 0x34
10000d38:	4402      	add	r2, r0
10000d3a:	1056      	asrs	r6, r2, #1
10000d3c:	5d98      	ldrb	r0, [r3, r6]
10000d3e:	07d5      	lsls	r5, r2, #31
10000d40:	bf4b      	itete	mi
10000d42:	f000 000f 	andmi.w	r0, r0, #15
10000d46:	f020 000f 	bicpl.w	r0, r0, #15
10000d4a:	ea40 0009 	orrmi.w	r0, r0, r9
10000d4e:	4320      	orrpl	r0, r4
10000d50:	5598      	strb	r0, [r3, r6]
10000d52:	3101      	adds	r1, #1
10000d54:	b289      	uxth	r1, r1
10000d56:	428f      	cmp	r7, r1
10000d58:	f000 80f6 	beq.w	10000f48 <drawChar2+0x490>
10000d5c:	9e02      	ldr	r6, [sp, #8]
10000d5e:	b20a      	sxth	r2, r1
10000d60:	0bc8      	lsrs	r0, r1, #15
10000d62:	42b2      	cmp	r2, r6
10000d64:	bfa8      	it	ge
10000d66:	f040 0001 	orrge.w	r0, r0, #1
10000d6a:	9d0a      	ldr	r5, [sp, #40]	@ 0x28
10000d6c:	f81e 6f01 	ldrb.w	r6, [lr, #1]!
10000d70:	fb05 f202 	mul.w	r2, r5, r2
10000d74:	9d06      	ldr	r5, [sp, #24]
10000d76:	ea40 0c05 	orr.w	ip, r0, r5
10000d7a:	0635      	lsls	r5, r6, #24
10000d7c:	f57f af2c 	bpl.w	10000bd8 <drawChar2+0x120>
10000d80:	f1bc 0f00 	cmp.w	ip, #0
10000d84:	f47f af3b 	bne.w	10000bfe <drawChar2+0x146>
10000d88:	9d0b      	ldr	r5, [sp, #44]	@ 0x2c
10000d8a:	eb02 0b05 	add.w	fp, r2, r5
10000d8e:	ea4f 0a6b 	mov.w	sl, fp, asr #1
10000d92:	f813 c00a 	ldrb.w	ip, [r3, sl]
10000d96:	f01b 0f01 	tst.w	fp, #1
10000d9a:	bf0b      	itete	eq
10000d9c:	f02c 0c0f 	biceq.w	ip, ip, #15
10000da0:	f00c 0c0f 	andne.w	ip, ip, #15
10000da4:	ea44 0c0c 	orreq.w	ip, r4, ip
10000da8:	ea49 0c0c 	orrne.w	ip, r9, ip
10000dac:	0675      	lsls	r5, r6, #25
10000dae:	f803 c00a 	strb.w	ip, [r3, sl]
10000db2:	ea40 0c08 	orr.w	ip, r0, r8
10000db6:	f57f af27 	bpl.w	10000c08 <drawChar2+0x150>
10000dba:	f1bc 0f00 	cmp.w	ip, #0
10000dbe:	f47f af36 	bne.w	10000c2e <drawChar2+0x176>
10000dc2:	9d0c      	ldr	r5, [sp, #48]	@ 0x30
10000dc4:	eb05 0b02 	add.w	fp, r5, r2
10000dc8:	ea4f 0a6b 	mov.w	sl, fp, asr #1
10000dcc:	f813 c00a 	ldrb.w	ip, [r3, sl]
10000dd0:	f01b 0f01 	tst.w	fp, #1
10000dd4:	bf0b      	itete	eq
10000dd6:	f02c 0c0f 	biceq.w	ip, ip, #15
10000dda:	f00c 0c0f 	andne.w	ip, ip, #15
10000dde:	ea44 0c0c 	orreq.w	ip, r4, ip
10000de2:	ea49 0c0c 	orrne.w	ip, r9, ip
10000de6:	f803 c00a 	strb.w	ip, [r3, sl]
10000dea:	9d08      	ldr	r5, [sp, #32]
10000dec:	ea40 0c05 	orr.w	ip, r0, r5
10000df0:	06b5      	lsls	r5, r6, #26
10000df2:	f57f af22 	bpl.w	10000c3a <drawChar2+0x182>
10000df6:	f1bc 0f00 	cmp.w	ip, #0
10000dfa:	f47f af31 	bne.w	10000c60 <drawChar2+0x1a8>
10000dfe:	9d0e      	ldr	r5, [sp, #56]	@ 0x38
10000e00:	eb02 0b05 	add.w	fp, r2, r5
10000e04:	ea4f 0a6b 	mov.w	sl, fp, asr #1
10000e08:	f813 c00a 	ldrb.w	ip, [r3, sl]
10000e0c:	f01b 0f01 	tst.w	fp, #1
10000e10:	bf0b      	itete	eq
10000e12:	f02c 0c0f 	biceq.w	ip, ip, #15
10000e16:	f00c 0c0f 	andne.w	ip, ip, #15
10000e1a:	ea44 0c0c 	orreq.w	ip, r4, ip
10000e1e:	ea4c 0c09 	orrne.w	ip, ip, r9
10000e22:	f803 c00a 	strb.w	ip, [r3, sl]
10000e26:	9d03      	ldr	r5, [sp, #12]
10000e28:	ea40 0c05 	orr.w	ip, r0, r5
10000e2c:	06f5      	lsls	r5, r6, #27
10000e2e:	f57f af1d 	bpl.w	10000c6c <drawChar2+0x1b4>
10000e32:	f1bc 0f00 	cmp.w	ip, #0
10000e36:	f47f af2c 	bne.w	10000c92 <drawChar2+0x1da>
10000e3a:	9d0f      	ldr	r5, [sp, #60]	@ 0x3c
10000e3c:	eb02 0b05 	add.w	fp, r2, r5
10000e40:	ea4f 0a6b 	mov.w	sl, fp, asr #1
10000e44:	f813 c00a 	ldrb.w	ip, [r3, sl]
10000e48:	f01b 0f01 	tst.w	fp, #1
10000e4c:	bf0b      	itete	eq
10000e4e:	f02c 0c0f 	biceq.w	ip, ip, #15
10000e52:	f00c 0c0f 	andne.w	ip, ip, #15
10000e56:	ea44 0c0c 	orreq.w	ip, r4, ip
10000e5a:	ea4c 0c09 	orrne.w	ip, ip, r9
10000e5e:	f803 c00a 	strb.w	ip, [r3, sl]
10000e62:	9d04      	ldr	r5, [sp, #16]
10000e64:	ea40 0c05 	orr.w	ip, r0, r5
10000e68:	0735      	lsls	r5, r6, #28
10000e6a:	f57f af18 	bpl.w	10000c9e <drawChar2+0x1e6>
10000e6e:	f1bc 0f00 	cmp.w	ip, #0
10000e72:	f47f af27 	bne.w	10000cc4 <drawChar2+0x20c>
10000e76:	9d10      	ldr	r5, [sp, #64]	@ 0x40
10000e78:	eb02 0b05 	add.w	fp, r2, r5
10000e7c:	ea4f 0a6b 	mov.w	sl, fp, asr #1
10000e80:	f813 c00a 	ldrb.w	ip, [r3, sl]
10000e84:	f01b 0f01 	tst.w	fp, #1
10000e88:	bf0b      	itete	eq
10000e8a:	f02c 0c0f 	biceq.w	ip, ip, #15
10000e8e:	f00c 0c0f 	andne.w	ip, ip, #15
10000e92:	ea44 0c0c 	orreq.w	ip, r4, ip
10000e96:	ea4c 0c09 	orrne.w	ip, ip, r9
10000e9a:	f803 c00a 	strb.w	ip, [r3, sl]
10000e9e:	9d05      	ldr	r5, [sp, #20]
10000ea0:	ea40 0c05 	orr.w	ip, r0, r5
10000ea4:	0775      	lsls	r5, r6, #29
10000ea6:	f57f af13 	bpl.w	10000cd0 <drawChar2+0x218>
10000eaa:	f1bc 0f00 	cmp.w	ip, #0
10000eae:	f47f af22 	bne.w	10000cf6 <drawChar2+0x23e>
10000eb2:	9d11      	ldr	r5, [sp, #68]	@ 0x44
10000eb4:	eb02 0b05 	add.w	fp, r2, r5
10000eb8:	ea4f 0a6b 	mov.w	sl, fp, asr #1
10000ebc:	f813 c00a 	ldrb.w	ip, [r3, sl]
10000ec0:	f01b 0f01 	tst.w	fp, #1
10000ec4:	bf0b      	itete	eq
10000ec6:	f02c 0c0f 	biceq.w	ip, ip, #15
10000eca:	f00c 0c0f 	andne.w	ip, ip, #15
10000ece:	ea44 0c0c 	orreq.w	ip, r4, ip
10000ed2:	ea4c 0c09 	orrne.w	ip, ip, r9
10000ed6:	f803 c00a 	strb.w	ip, [r3, sl]
10000eda:	9d09      	ldr	r5, [sp, #36]	@ 0x24
10000edc:	ea40 0c05 	orr.w	ip, r0, r5
10000ee0:	07b5      	lsls	r5, r6, #30
10000ee2:	f57f af0e 	bpl.w	10000d02 <drawChar2+0x24a>
10000ee6:	f1bc 0f00 	cmp.w	ip, #0
10000eea:	f47f af1d 	bne.w	10000d28 <drawChar2+0x270>
10000eee:	9d12      	ldr	r5, [sp, #72]	@ 0x48
10000ef0:	eb02 0b05 	add.w	fp, r2, r5
10000ef4:	ea4f 0a6b 	mov.w	sl, fp, asr #1
10000ef8:	f813 c00a 	ldrb.w	ip, [r3, sl]
10000efc:	f01b 0f01 	tst.w	fp, #1
10000f00:	bf0b      	itete	eq
10000f02:	f02c 0c0f 	biceq.w	ip, ip, #15
10000f06:	f00c 0c0f 	andne.w	ip, ip, #15
10000f0a:	ea44 0c0c 	orreq.w	ip, r4, ip
10000f0e:	ea4c 0c09 	orrne.w	ip, ip, r9
10000f12:	f803 c00a 	strb.w	ip, [r3, sl]
10000f16:	9d07      	ldr	r5, [sp, #28]
10000f18:	07f6      	lsls	r6, r6, #31
10000f1a:	ea40 0005 	orr.w	r0, r0, r5
10000f1e:	f53f af09 	bmi.w	10000d34 <drawChar2+0x27c>
10000f22:	2800      	cmp	r0, #0
10000f24:	f47f af15 	bne.w	10000d52 <drawChar2+0x29a>
10000f28:	980d      	ldr	r0, [sp, #52]	@ 0x34
10000f2a:	3101      	adds	r1, #1
10000f2c:	4402      	add	r2, r0
10000f2e:	1056      	asrs	r6, r2, #1
10000f30:	5d98      	ldrb	r0, [r3, r6]
10000f32:	07d2      	lsls	r2, r2, #31
10000f34:	b289      	uxth	r1, r1
10000f36:	bf4c      	ite	mi
10000f38:	f000 000f 	andmi.w	r0, r0, #15
10000f3c:	f020 000f 	bicpl.w	r0, r0, #15
10000f40:	428f      	cmp	r7, r1
10000f42:	5598      	strb	r0, [r3, r6]
10000f44:	f47f af0a 	bne.w	10000d5c <drawChar2+0x2a4>
10000f48:	b015      	add	sp, #84	@ 0x54
10000f4a:	e8bd 8ff0 	ldmia.w	sp!, {r4, r5, r6, r7, r8, r9, sl, fp, pc}
10000f4e:	bf00      	nop

10000f50 <tft_write.part.0>:
10000f50:	e92d 4ff0 	stmdb	sp!, {r4, r5, r6, r7, r8, r9, sl, fp, lr}
10000f54:	49a3      	ldr	r1, [pc, #652]	@ (100011e4 <tft_write.part.0+0x294>)
10000f56:	4ba4      	ldr	r3, [pc, #656]	@ (100011e8 <tft_write.part.0+0x298>)
10000f58:	7809      	ldrb	r1, [r1, #0]
10000f5a:	4aa4      	ldr	r2, [pc, #656]	@ (100011ec <tft_write.part.0+0x29c>)
10000f5c:	b091      	sub	sp, #68	@ 0x44
10000f5e:	7812      	ldrb	r2, [r2, #0]
10000f60:	881b      	ldrh	r3, [r3, #0]
10000f62:	9103      	str	r1, [sp, #12]
10000f64:	49a2      	ldr	r1, [pc, #648]	@ (100011f0 <tft_write.part.0+0x2a0>)
10000f66:	9204      	str	r2, [sp, #16]
10000f68:	880d      	ldrh	r5, [r1, #0]
10000f6a:	b2da      	uxtb	r2, r3
10000f6c:	49a1      	ldr	r1, [pc, #644]	@ (100011f4 <tft_write.part.0+0x2a4>)
10000f6e:	2a02      	cmp	r2, #2
10000f70:	4604      	mov	r4, r0
10000f72:	f8b1 b000 	ldrh.w	fp, [r1]
10000f76:	d028      	beq.n	10000fca <tft_write.part.0+0x7a>
10000f78:	9b04      	ldr	r3, [sp, #16]
10000f7a:	9201      	str	r2, [sp, #4]
10000f7c:	9300      	str	r3, [sp, #0]
10000f7e:	4602      	mov	r2, r0
10000f80:	9b03      	ldr	r3, [sp, #12]
10000f82:	4659      	mov	r1, fp
10000f84:	4628      	mov	r0, r5
10000f86:	f7ff fd97 	bl	10000ab8 <drawChar2>
10000f8a:	4b9b      	ldr	r3, [pc, #620]	@ (100011f8 <tft_write.part.0+0x2a8>)
10000f8c:	f8d3 a000 	ldr.w	sl, [r3]
10000f90:	4b95      	ldr	r3, [pc, #596]	@ (100011e8 <tft_write.part.0+0x298>)
10000f92:	4a97      	ldr	r2, [pc, #604]	@ (100011f0 <tft_write.part.0+0x2a0>)
10000f94:	881b      	ldrh	r3, [r3, #0]
10000f96:	8815      	ldrh	r5, [r2, #0]
10000f98:	4a98      	ldr	r2, [pc, #608]	@ (100011fc <tft_write.part.0+0x2ac>)
10000f9a:	4895      	ldr	r0, [pc, #596]	@ (100011f0 <tft_write.part.0+0x2a0>)
10000f9c:	7812      	ldrb	r2, [r2, #0]
10000f9e:	fb12 f203 	smulbb	r2, r2, r3
10000fa2:	eba3 0383 	sub.w	r3, r3, r3, lsl #2
10000fa6:	4415      	add	r5, r2
10000fa8:	b2ad      	uxth	r5, r5
10000faa:	eb0a 0343 	add.w	r3, sl, r3, lsl #1
10000fae:	429d      	cmp	r5, r3
10000fb0:	8005      	strh	r5, [r0, #0]
10000fb2:	dd07      	ble.n	10000fc4 <tft_write.part.0+0x74>
10000fb4:	2200      	movs	r2, #0
10000fb6:	4c8f      	ldr	r4, [pc, #572]	@ (100011f4 <tft_write.part.0+0x2a4>)
10000fb8:	4b91      	ldr	r3, [pc, #580]	@ (10001200 <tft_write.part.0+0x2b0>)
10000fba:	8821      	ldrh	r1, [r4, #0]
10000fbc:	781b      	ldrb	r3, [r3, #0]
10000fbe:	8002      	strh	r2, [r0, #0]
10000fc0:	440b      	add	r3, r1
10000fc2:	8023      	strh	r3, [r4, #0]
10000fc4:	b011      	add	sp, #68	@ 0x44
10000fc6:	e8bd 8ff0 	ldmia.w	sp!, {r4, r5, r6, r7, r8, r9, sl, fp, pc}
10000fca:	4e8b      	ldr	r6, [pc, #556]	@ (100011f8 <tft_write.part.0+0x2a8>)
10000fcc:	fa0f f985 	sxth.w	r9, r5
10000fd0:	f8d6 a000 	ldr.w	sl, [r6]
10000fd4:	45d1      	cmp	r9, sl
10000fd6:	dadf      	bge.n	10000f98 <tft_write.part.0+0x48>
10000fd8:	4a8a      	ldr	r2, [pc, #552]	@ (10001204 <tft_write.part.0+0x2b4>)
10000fda:	fa0f f18b 	sxth.w	r1, fp
10000fde:	6812      	ldr	r2, [r2, #0]
10000fe0:	4291      	cmp	r1, r2
10000fe2:	dad9      	bge.n	10000f98 <tft_write.part.0+0x48>
10000fe4:	f119 0f0b 	cmn.w	r9, #11
10000fe8:	dbd6      	blt.n	10000f98 <tft_write.part.0+0x48>
10000fea:	f111 0f0f 	cmn.w	r1, #15
10000fee:	dbd3      	blt.n	10000f98 <tft_write.part.0+0x48>
10000ff0:	2700      	movs	r7, #0
10000ff2:	2310      	movs	r3, #16
10000ff4:	46b8      	mov	r8, r7
10000ff6:	461a      	mov	r2, r3
10000ff8:	4648      	mov	r0, r9
10000ffa:	9700      	str	r7, [sp, #0]
10000ffc:	f7ff fcc4 	bl	10000988 <fillRect>
10001000:	4b81      	ldr	r3, [pc, #516]	@ (10001208 <tft_write.part.0+0x2b8>)
10001002:	eb04 0484 	add.w	r4, r4, r4, lsl #2
10001006:	18e3      	adds	r3, r4, r3
10001008:	f8d6 a000 	ldr.w	sl, [r6]
1000100c:	930e      	str	r3, [sp, #56]	@ 0x38
1000100e:	f10b 0610 	add.w	r6, fp, #16
10001012:	9b04      	ldr	r3, [sp, #16]
10001014:	e9cd b60c 	strd	fp, r6, [sp, #48]	@ 0x30
10001018:	ea43 1303 	orr.w	r3, r3, r3, lsl #4
1000101c:	930f      	str	r3, [sp, #60]	@ 0x3c
1000101e:	f1b8 0f05 	cmp.w	r8, #5
10001022:	bf16      	itet	ne
10001024:	9b0e      	ldrne	r3, [sp, #56]	@ 0x38
10001026:	2700      	moveq	r7, #0
10001028:	f813 7008 	ldrbne.w	r7, [r3, r8]
1000102c:	f005 0301 	and.w	r3, r5, #1
10001030:	9305      	str	r3, [sp, #20]
10001032:	0beb      	lsrs	r3, r5, #15
10001034:	9306      	str	r3, [sp, #24]
10001036:	e9cd 8508 	strd	r8, r5, [sp, #32]
1000103a:	9c0c      	ldr	r4, [sp, #48]	@ 0x30
1000103c:	f8bd 3034 	ldrh.w	r3, [sp, #52]	@ 0x34
10001040:	f109 0b02 	add.w	fp, r9, #2
10001044:	e018      	b.n	10001078 <tft_write.part.0+0x128>
10001046:	4a6f      	ldr	r2, [pc, #444]	@ (10001204 <tft_write.part.0+0x2b4>)
10001048:	b225      	sxth	r5, r4
1000104a:	f8d2 8000 	ldr.w	r8, [r2]
1000104e:	1cae      	adds	r6, r5, #2
10001050:	4546      	cmp	r6, r8
10001052:	dd07      	ble.n	10001064 <tft_write.part.0+0x114>
10001054:	f108 36ff 	add.w	r6, r8, #4294967295	@ 0xffffffff
10001058:	1b36      	subs	r6, r6, r4
1000105a:	b232      	sxth	r2, r6
1000105c:	2a00      	cmp	r2, #0
1000105e:	b2b6      	uxth	r6, r6
10001060:	dd04      	ble.n	1000106c <tft_write.part.0+0x11c>
10001062:	442e      	add	r6, r5
10001064:	45d1      	cmp	r9, sl
10001066:	da01      	bge.n	1000106c <tft_write.part.0+0x11c>
10001068:	4545      	cmp	r5, r8
1000106a:	db63      	blt.n	10001134 <tft_write.part.0+0x1e4>
1000106c:	3402      	adds	r4, #2
1000106e:	b2a4      	uxth	r4, r4
10001070:	42a3      	cmp	r3, r4
10001072:	ea4f 0757 	mov.w	r7, r7, lsr #1
10001076:	d03c      	beq.n	100010f2 <tft_write.part.0+0x1a2>
10001078:	07fd      	lsls	r5, r7, #31
1000107a:	d4e4      	bmi.n	10001046 <tft_write.part.0+0xf6>
1000107c:	e9dd 2103 	ldrd	r2, r1, [sp, #12]
10001080:	428a      	cmp	r2, r1
10001082:	d0f3      	beq.n	1000106c <tft_write.part.0+0x11c>
10001084:	4a5f      	ldr	r2, [pc, #380]	@ (10001204 <tft_write.part.0+0x2b4>)
10001086:	b225      	sxth	r5, r4
10001088:	f8d2 8000 	ldr.w	r8, [r2]
1000108c:	1cae      	adds	r6, r5, #2
1000108e:	4546      	cmp	r6, r8
10001090:	dd07      	ble.n	100010a2 <tft_write.part.0+0x152>
10001092:	f108 36ff 	add.w	r6, r8, #4294967295	@ 0xffffffff
10001096:	1b36      	subs	r6, r6, r4
10001098:	b232      	sxth	r2, r6
1000109a:	2a00      	cmp	r2, #0
1000109c:	b2b6      	uxth	r6, r6
1000109e:	dde5      	ble.n	1000106c <tft_write.part.0+0x11c>
100010a0:	442e      	add	r6, r5
100010a2:	45d1      	cmp	r9, sl
100010a4:	dae2      	bge.n	1000106c <tft_write.part.0+0x11c>
100010a6:	4545      	cmp	r5, r8
100010a8:	dae0      	bge.n	1000106c <tft_write.part.0+0x11c>
100010aa:	4546      	cmp	r6, r8
100010ac:	bfa8      	it	ge
100010ae:	4646      	movge	r6, r8
100010b0:	e9cd 340a 	strd	r3, r4, [sp, #40]	@ 0x28
100010b4:	ebaa 0209 	sub.w	r2, sl, r9
100010b8:	9207      	str	r2, [sp, #28]
100010ba:	45d3      	cmp	fp, sl
100010bc:	dd26      	ble.n	1000110c <tft_write.part.0+0x1bc>
100010be:	9b05      	ldr	r3, [sp, #20]
100010c0:	2b00      	cmp	r3, #0
100010c2:	f040 8100 	bne.w	100012c6 <tft_write.part.0+0x376>
100010c6:	46cc      	mov	ip, r9
100010c8:	9b07      	ldr	r3, [sp, #28]
100010ca:	1e5a      	subs	r2, r3, #1
100010cc:	f002 0301 	and.w	r3, r2, #1
100010d0:	2b00      	cmp	r3, #0
100010d2:	f040 809d 	bne.w	10001210 <tft_write.part.0+0x2c0>
100010d6:	1052      	asrs	r2, r2, #1
100010d8:	2a00      	cmp	r2, #0
100010da:	dc1d      	bgt.n	10001118 <tft_write.part.0+0x1c8>
100010dc:	3501      	adds	r5, #1
100010de:	42b5      	cmp	r5, r6
100010e0:	dbeb      	blt.n	100010ba <tft_write.part.0+0x16a>
100010e2:	e9dd 340a 	ldrd	r3, r4, [sp, #40]	@ 0x28
100010e6:	3402      	adds	r4, #2
100010e8:	b2a4      	uxth	r4, r4
100010ea:	42a3      	cmp	r3, r4
100010ec:	ea4f 0757 	mov.w	r7, r7, lsr #1
100010f0:	d1c2      	bne.n	10001078 <tft_write.part.0+0x128>
100010f2:	e9dd 8508 	ldrd	r8, r5, [sp, #32]
100010f6:	f108 0801 	add.w	r8, r8, #1
100010fa:	1cab      	adds	r3, r5, #2
100010fc:	f1b8 0f06 	cmp.w	r8, #6
10001100:	b29d      	uxth	r5, r3
10001102:	f43f af45 	beq.w	10000f90 <tft_write.part.0+0x40>
10001106:	fa0f f985 	sxth.w	r9, r5
1000110a:	e788      	b.n	1000101e <tft_write.part.0+0xce>
1000110c:	9b05      	ldr	r3, [sp, #20]
1000110e:	2b00      	cmp	r3, #0
10001110:	f040 80f9 	bne.w	10001306 <tft_write.part.0+0x3b6>
10001114:	46cc      	mov	ip, r9
10001116:	2201      	movs	r2, #1
10001118:	f5b5 7ff0 	cmp.w	r5, #480	@ 0x1e0
1000111c:	dade      	bge.n	100010dc <tft_write.part.0+0x18c>
1000111e:	eb05 0385 	add.w	r3, r5, r5, lsl #2
10001122:	483a      	ldr	r0, [pc, #232]	@ (1000120c <tft_write.part.0+0x2bc>)
10001124:	019b      	lsls	r3, r3, #6
10001126:	eb03 036c 	add.w	r3, r3, ip, asr #1
1000112a:	990f      	ldr	r1, [sp, #60]	@ 0x3c
1000112c:	4418      	add	r0, r3
1000112e:	f001 fc8b 	bl	10002a48 <memset>
10001132:	e7d3      	b.n	100010dc <tft_write.part.0+0x18c>
10001134:	4546      	cmp	r6, r8
10001136:	bfa8      	it	ge
10001138:	4646      	movge	r6, r8
1000113a:	ebaa 0209 	sub.w	r2, sl, r9
1000113e:	45d3      	cmp	fp, sl
10001140:	e9cd 340a 	strd	r3, r4, [sp, #40]	@ 0x28
10001144:	9207      	str	r2, [sp, #28]
10001146:	dd11      	ble.n	1000116c <tft_write.part.0+0x21c>
10001148:	9b05      	ldr	r3, [sp, #20]
1000114a:	2b00      	cmp	r3, #0
1000114c:	f040 8085 	bne.w	1000125a <tft_write.part.0+0x30a>
10001150:	46cc      	mov	ip, r9
10001152:	9b07      	ldr	r3, [sp, #28]
10001154:	1e5a      	subs	r2, r3, #1
10001156:	f002 0001 	and.w	r0, r2, #1
1000115a:	b9e8      	cbnz	r0, 10001198 <tft_write.part.0+0x248>
1000115c:	1052      	asrs	r2, r2, #1
1000115e:	2a00      	cmp	r2, #0
10001160:	dc0a      	bgt.n	10001178 <tft_write.part.0+0x228>
10001162:	3501      	adds	r5, #1
10001164:	42ae      	cmp	r6, r5
10001166:	ddbc      	ble.n	100010e2 <tft_write.part.0+0x192>
10001168:	45d3      	cmp	fp, sl
1000116a:	dced      	bgt.n	10001148 <tft_write.part.0+0x1f8>
1000116c:	9b05      	ldr	r3, [sp, #20]
1000116e:	2b00      	cmp	r3, #0
10001170:	f040 8093 	bne.w	1000129a <tft_write.part.0+0x34a>
10001174:	46cc      	mov	ip, r9
10001176:	2201      	movs	r2, #1
10001178:	f5b5 7ff0 	cmp.w	r5, #480	@ 0x1e0
1000117c:	daf1      	bge.n	10001162 <tft_write.part.0+0x212>
1000117e:	eb05 0385 	add.w	r3, r5, r5, lsl #2
10001182:	4822      	ldr	r0, [pc, #136]	@ (1000120c <tft_write.part.0+0x2bc>)
10001184:	019b      	lsls	r3, r3, #6
10001186:	eb03 036c 	add.w	r3, r3, ip, asr #1
1000118a:	4418      	add	r0, r3
1000118c:	9b03      	ldr	r3, [sp, #12]
1000118e:	ea43 1103 	orr.w	r1, r3, r3, lsl #4
10001192:	f001 fc59 	bl	10002a48 <memset>
10001196:	e7e4      	b.n	10001162 <tft_write.part.0+0x212>
10001198:	b229      	sxth	r1, r5
1000119a:	fa1f fe85 	uxth.w	lr, r5
1000119e:	4588      	cmp	r8, r1
100011a0:	bfcc      	ite	gt
100011a2:	2000      	movgt	r0, #0
100011a4:	2001      	movle	r0, #1
100011a6:	eb02 030c 	add.w	r3, r2, ip
100011aa:	3b01      	subs	r3, #1
100011ac:	ea40 30de 	orr.w	r0, r0, lr, lsr #15
100011b0:	f3c3 3ec0 	ubfx	lr, r3, #15, #1
100011b4:	ea50 0e0e 	orrs.w	lr, r0, lr
100011b8:	b21b      	sxth	r3, r3
100011ba:	d111      	bne.n	100011e0 <tft_write.part.0+0x290>
100011bc:	4553      	cmp	r3, sl
100011be:	da0f      	bge.n	100011e0 <tft_write.part.0+0x290>
100011c0:	fb0a 3301 	mla	r3, sl, r1, r3
100011c4:	f8df e044 	ldr.w	lr, [pc, #68]	@ 1000120c <tft_write.part.0+0x2bc>
100011c8:	1058      	asrs	r0, r3, #1
100011ca:	07dc      	lsls	r4, r3, #31
100011cc:	f81e 1000 	ldrb.w	r1, [lr, r0]
100011d0:	f100 80a6 	bmi.w	10001320 <tft_write.part.0+0x3d0>
100011d4:	9b03      	ldr	r3, [sp, #12]
100011d6:	f021 010f 	bic.w	r1, r1, #15
100011da:	4319      	orrs	r1, r3
100011dc:	f80e 1000 	strb.w	r1, [lr, r0]
100011e0:	3a01      	subs	r2, #1
100011e2:	e7bb      	b.n	1000115c <tft_write.part.0+0x20c>
100011e4:	20025eb2 	.word	0x20025eb2
100011e8:	20025eae 	.word	0x20025eae
100011ec:	20025eb1 	.word	0x20025eb1
100011f0:	20025eaa 	.word	0x20025eaa
100011f4:	20025eac 	.word	0x20025eac
100011f8:	200004c0 	.word	0x200004c0
100011fc:	2000022c 	.word	0x2000022c
10001200:	2000022d 	.word	0x2000022d
10001204:	20000490 	.word	0x20000490
10001208:	100036f4 	.word	0x100036f4
1000120c:	200006a8 	.word	0x200006a8
10001210:	b229      	sxth	r1, r5
10001212:	fa1f fe85 	uxth.w	lr, r5
10001216:	4541      	cmp	r1, r8
10001218:	bfb4      	ite	lt
1000121a:	2000      	movlt	r0, #0
1000121c:	2001      	movge	r0, #1
1000121e:	eb02 030c 	add.w	r3, r2, ip
10001222:	3b01      	subs	r3, #1
10001224:	ea40 30de 	orr.w	r0, r0, lr, lsr #15
10001228:	f3c3 3ec0 	ubfx	lr, r3, #15, #1
1000122c:	ea50 0e0e 	orrs.w	lr, r0, lr
10001230:	b21b      	sxth	r3, r3
10001232:	d110      	bne.n	10001256 <tft_write.part.0+0x306>
10001234:	4553      	cmp	r3, sl
10001236:	da0e      	bge.n	10001256 <tft_write.part.0+0x306>
10001238:	fb0a 3301 	mla	r3, sl, r1, r3
1000123c:	f8df e120 	ldr.w	lr, [pc, #288]	@ 10001360 <tft_write.part.0+0x410>
10001240:	1058      	asrs	r0, r3, #1
10001242:	07db      	lsls	r3, r3, #31
10001244:	f81e 1000 	ldrb.w	r1, [lr, r0]
10001248:	d47a      	bmi.n	10001340 <tft_write.part.0+0x3f0>
1000124a:	9b04      	ldr	r3, [sp, #16]
1000124c:	f021 010f 	bic.w	r1, r1, #15
10001250:	4319      	orrs	r1, r3
10001252:	f80e 1000 	strb.w	r1, [lr, r0]
10001256:	3a01      	subs	r2, #1
10001258:	e73d      	b.n	100010d6 <tft_write.part.0+0x186>
1000125a:	9c06      	ldr	r4, [sp, #24]
1000125c:	9907      	ldr	r1, [sp, #28]
1000125e:	f3c5 33c0 	ubfx	r3, r5, #15, #1
10001262:	4323      	orrs	r3, r4
10001264:	f1a1 0202 	sub.w	r2, r1, #2
10001268:	f001 0001 	and.w	r0, r1, #1
1000126c:	b229      	sxth	r1, r5
1000126e:	d111      	bne.n	10001294 <tft_write.part.0+0x344>
10001270:	4588      	cmp	r8, r1
10001272:	dd0f      	ble.n	10001294 <tft_write.part.0+0x344>
10001274:	fb0a 9e01 	mla	lr, sl, r1, r9
10001278:	4939      	ldr	r1, [pc, #228]	@ (10001360 <tft_write.part.0+0x410>)
1000127a:	ea4f 0c6e 	mov.w	ip, lr, asr #1
1000127e:	f01e 0f01 	tst.w	lr, #1
10001282:	f811 300c 	ldrb.w	r3, [r1, ip]
10001286:	d116      	bne.n	100012b6 <tft_write.part.0+0x366>
10001288:	9c03      	ldr	r4, [sp, #12]
1000128a:	f023 030f 	bic.w	r3, r3, #15
1000128e:	4323      	orrs	r3, r4
10001290:	f801 300c 	strb.w	r3, [r1, ip]
10001294:	f109 0c01 	add.w	ip, r9, #1
10001298:	e75f      	b.n	1000115a <tft_write.part.0+0x20a>
1000129a:	9a06      	ldr	r2, [sp, #24]
1000129c:	f3c5 33c0 	ubfx	r3, r5, #15, #1
100012a0:	4313      	orrs	r3, r2
100012a2:	b229      	sxth	r1, r5
100012a4:	f04f 0201 	mov.w	r2, #1
100012a8:	fa1f fe85 	uxth.w	lr, r5
100012ac:	d150      	bne.n	10001350 <tft_write.part.0+0x400>
100012ae:	4541      	cmp	r1, r8
100012b0:	da4e      	bge.n	10001350 <tft_write.part.0+0x400>
100012b2:	4610      	mov	r0, r2
100012b4:	e7de      	b.n	10001274 <tft_write.part.0+0x324>
100012b6:	9c03      	ldr	r4, [sp, #12]
100012b8:	f003 030f 	and.w	r3, r3, #15
100012bc:	ea43 1304 	orr.w	r3, r3, r4, lsl #4
100012c0:	f801 300c 	strb.w	r3, [r1, ip]
100012c4:	e7e6      	b.n	10001294 <tft_write.part.0+0x344>
100012c6:	9c06      	ldr	r4, [sp, #24]
100012c8:	9b07      	ldr	r3, [sp, #28]
100012ca:	f3c5 30c0 	ubfx	r0, r5, #15, #1
100012ce:	4320      	orrs	r0, r4
100012d0:	f1a3 0202 	sub.w	r2, r3, #2
100012d4:	b229      	sxth	r1, r5
100012d6:	f003 0301 	and.w	r3, r3, #1
100012da:	d111      	bne.n	10001300 <tft_write.part.0+0x3b0>
100012dc:	4588      	cmp	r8, r1
100012de:	dd0f      	ble.n	10001300 <tft_write.part.0+0x3b0>
100012e0:	fb0a 9e01 	mla	lr, sl, r1, r9
100012e4:	491e      	ldr	r1, [pc, #120]	@ (10001360 <tft_write.part.0+0x410>)
100012e6:	ea4f 0c6e 	mov.w	ip, lr, asr #1
100012ea:	f01e 0f01 	tst.w	lr, #1
100012ee:	f811 000c 	ldrb.w	r0, [r1, ip]
100012f2:	d11d      	bne.n	10001330 <tft_write.part.0+0x3e0>
100012f4:	9c04      	ldr	r4, [sp, #16]
100012f6:	f020 000f 	bic.w	r0, r0, #15
100012fa:	4320      	orrs	r0, r4
100012fc:	f801 000c 	strb.w	r0, [r1, ip]
10001300:	f109 0c01 	add.w	ip, r9, #1
10001304:	e6e4      	b.n	100010d0 <tft_write.part.0+0x180>
10001306:	9a06      	ldr	r2, [sp, #24]
10001308:	f3c5 33c0 	ubfx	r3, r5, #15, #1
1000130c:	4313      	orrs	r3, r2
1000130e:	b229      	sxth	r1, r5
10001310:	fa1f fe85 	uxth.w	lr, r5
10001314:	d11f      	bne.n	10001356 <tft_write.part.0+0x406>
10001316:	4541      	cmp	r1, r8
10001318:	da1d      	bge.n	10001356 <tft_write.part.0+0x406>
1000131a:	2301      	movs	r3, #1
1000131c:	461a      	mov	r2, r3
1000131e:	e7df      	b.n	100012e0 <tft_write.part.0+0x390>
10001320:	9b03      	ldr	r3, [sp, #12]
10001322:	f001 010f 	and.w	r1, r1, #15
10001326:	ea41 1103 	orr.w	r1, r1, r3, lsl #4
1000132a:	f80e 1000 	strb.w	r1, [lr, r0]
1000132e:	e757      	b.n	100011e0 <tft_write.part.0+0x290>
10001330:	9c04      	ldr	r4, [sp, #16]
10001332:	f000 000f 	and.w	r0, r0, #15
10001336:	ea40 1004 	orr.w	r0, r0, r4, lsl #4
1000133a:	f801 000c 	strb.w	r0, [r1, ip]
1000133e:	e7df      	b.n	10001300 <tft_write.part.0+0x3b0>
10001340:	9b04      	ldr	r3, [sp, #16]
10001342:	f001 010f 	and.w	r1, r1, #15
10001346:	ea41 1103 	orr.w	r1, r1, r3, lsl #4
1000134a:	f80e 1000 	strb.w	r1, [lr, r0]
1000134e:	e782      	b.n	10001256 <tft_write.part.0+0x306>
10001350:	eb09 0c02 	add.w	ip, r9, r2
10001354:	e723      	b.n	1000119e <tft_write.part.0+0x24e>
10001356:	2201      	movs	r2, #1
10001358:	eb09 0c02 	add.w	ip, r9, r2
1000135c:	e75b      	b.n	10001216 <tft_write.part.0+0x2c6>
1000135e:	bf00      	nop
10001360:	200006a8 	.word	0x200006a8

10001364 <setTextSize>:
10001364:	2801      	cmp	r0, #1
10001366:	bf38      	it	cc
10001368:	2001      	movcc	r0, #1
1000136a:	4b01      	ldr	r3, [pc, #4]	@ (10001370 <setTextSize+0xc>)
1000136c:	8018      	strh	r0, [r3, #0]
1000136e:	4770      	bx	lr
10001370:	20025eae 	.word	0x20025eae

10001374 <setTextColor>:
10001374:	4a02      	ldr	r2, [pc, #8]	@ (10001380 <setTextColor+0xc>)
10001376:	4b03      	ldr	r3, [pc, #12]	@ (10001384 <setTextColor+0x10>)
10001378:	7010      	strb	r0, [r2, #0]
1000137a:	7018      	strb	r0, [r3, #0]
1000137c:	4770      	bx	lr
1000137e:	bf00      	nop
10001380:	20025eb1 	.word	0x20025eb1
10001384:	20025eb2 	.word	0x20025eb2

10001388 <printString>:
10001388:	b5f8      	push	{r3, r4, r5, r6, r7, lr}
1000138a:	4604      	mov	r4, r0
1000138c:	7800      	ldrb	r0, [r0, #0]
1000138e:	b1f0      	cbz	r0, 100013ce <printString+0x46>
10001390:	4e11      	ldr	r6, [pc, #68]	@ (100013d8 <printString+0x50>)
10001392:	4f12      	ldr	r7, [pc, #72]	@ (100013dc <printString+0x54>)
10001394:	4d12      	ldr	r5, [pc, #72]	@ (100013e0 <printString+0x58>)
10001396:	e00c      	b.n	100013b2 <printString+0x2a>
10001398:	280d      	cmp	r0, #13
1000139a:	d007      	beq.n	100013ac <printString+0x24>
1000139c:	2809      	cmp	r0, #9
1000139e:	d117      	bne.n	100013d0 <printString+0x48>
100013a0:	8833      	ldrh	r3, [r6, #0]
100013a2:	683a      	ldr	r2, [r7, #0]
100013a4:	3304      	adds	r3, #4
100013a6:	4293      	cmp	r3, r2
100013a8:	da00      	bge.n	100013ac <printString+0x24>
100013aa:	8033      	strh	r3, [r6, #0]
100013ac:	f814 0f01 	ldrb.w	r0, [r4, #1]!
100013b0:	b168      	cbz	r0, 100013ce <printString+0x46>
100013b2:	280a      	cmp	r0, #10
100013b4:	d1f0      	bne.n	10001398 <printString+0x10>
100013b6:	2200      	movs	r2, #0
100013b8:	490a      	ldr	r1, [pc, #40]	@ (100013e4 <printString+0x5c>)
100013ba:	882b      	ldrh	r3, [r5, #0]
100013bc:	8809      	ldrh	r1, [r1, #0]
100013be:	8032      	strh	r2, [r6, #0]
100013c0:	eb03 03c1 	add.w	r3, r3, r1, lsl #3
100013c4:	802b      	strh	r3, [r5, #0]
100013c6:	f814 0f01 	ldrb.w	r0, [r4, #1]!
100013ca:	2800      	cmp	r0, #0
100013cc:	d1f1      	bne.n	100013b2 <printString+0x2a>
100013ce:	bdf8      	pop	{r3, r4, r5, r6, r7, pc}
100013d0:	f7ff fdbe 	bl	10000f50 <tft_write.part.0>
100013d4:	e7ea      	b.n	100013ac <printString+0x24>
100013d6:	bf00      	nop
100013d8:	20025eaa 	.word	0x20025eaa
100013dc:	200004c0 	.word	0x200004c0
100013e0:	20025eac 	.word	0x20025eac
100013e4:	20025eae 	.word	0x20025eae

100013e8 <gpio_set_function>:
100013e8:	b410      	push	{r4}
100013ea:	f44f 7480 	mov.w	r4, #256	@ 0x100
100013ee:	4b0c      	ldr	r3, [pc, #48]	@ (10001420 <gpio_set_function+0x38>)
100013f0:	f853 2020 	ldr.w	r2, [r3, r0, lsl #2]
100013f4:	eb03 0380 	add.w	r3, r3, r0, lsl #2
100013f8:	00c0      	lsls	r0, r0, #3
100013fa:	f082 0240 	eor.w	r2, r2, #64	@ 0x40
100013fe:	f100 4080 	add.w	r0, r0, #1073741824	@ 0x40000000
10001402:	f503 5c80 	add.w	ip, r3, #4096	@ 0x1000
10001406:	f002 02c0 	and.w	r2, r2, #192	@ 0xc0
1000140a:	f500 3020 	add.w	r0, r0, #163840	@ 0x28000
1000140e:	f503 5340 	add.w	r3, r3, #12288	@ 0x3000
10001412:	f8cc 2000 	str.w	r2, [ip]
10001416:	6041      	str	r1, [r0, #4]
10001418:	601c      	str	r4, [r3, #0]
1000141a:	f85d 4b04 	ldr.w	r4, [sp], #4
1000141e:	4770      	bx	lr
10001420:	40038004 	.word	0x40038004

10001424 <gpio_init>:
10001424:	b430      	push	{r4, r5}
10001426:	f04f 0300 	mov.w	r3, #0
1000142a:	ec43 0044 	gpioc_bit_oe_put r0, r3
1000142e:	ec43 0040 	gpioc_bit_out_put r0, r3
10001432:	2505      	movs	r5, #5
10001434:	f44f 7480 	mov.w	r4, #256	@ 0x100
10001438:	4b0b      	ldr	r3, [pc, #44]	@ (10001468 <gpio_init+0x44>)
1000143a:	00c2      	lsls	r2, r0, #3
1000143c:	f853 1020 	ldr.w	r1, [r3, r0, lsl #2]
10001440:	eb03 0080 	add.w	r0, r3, r0, lsl #2
10001444:	f081 0140 	eor.w	r1, r1, #64	@ 0x40
10001448:	f102 4380 	add.w	r3, r2, #1073741824	@ 0x40000000
1000144c:	f503 3320 	add.w	r3, r3, #163840	@ 0x28000
10001450:	f001 02c0 	and.w	r2, r1, #192	@ 0xc0
10001454:	f500 5180 	add.w	r1, r0, #4096	@ 0x1000
10001458:	f500 5040 	add.w	r0, r0, #12288	@ 0x3000
1000145c:	600a      	str	r2, [r1, #0]
1000145e:	605d      	str	r5, [r3, #4]
10001460:	6004      	str	r4, [r0, #0]
10001462:	bc30      	pop	{r4, r5}
10001464:	4770      	bx	lr
10001466:	bf00      	nop
10001468:	40038004 	.word	0x40038004

1000146c <panic>:
1000146c:	b40f      	push	{r0, r1, r2, r3}
1000146e:	b500      	push	{lr}
10001470:	b083      	sub	sp, #12
10001472:	9c04      	ldr	r4, [sp, #16]
10001474:	4807      	ldr	r0, [pc, #28]	@ (10001494 <panic+0x28>)
10001476:	f001 f981 	bl	1000277c <__wrap_puts>
1000147a:	b13c      	cbz	r4, 1000148c <panic+0x20>
1000147c:	a905      	add	r1, sp, #20
1000147e:	4620      	mov	r0, r4
10001480:	9101      	str	r1, [sp, #4]
10001482:	f001 f835 	bl	100024f0 <weak_raw_vprintf>
10001486:	4804      	ldr	r0, [pc, #16]	@ (10001498 <panic+0x2c>)
10001488:	f001 f978 	bl	1000277c <__wrap_puts>
1000148c:	2001      	movs	r0, #1
1000148e:	f001 f847 	bl	10002520 <_exit>
10001492:	bf00      	nop
10001494:	10002de8 	.word	0x10002de8
10001498:	10002df8 	.word	0x10002df8

1000149c <hw_claim_lock>:
1000149c:	f3ef 8010 	mrs	r0, PRIMASK
100014a0:	b672      	cpsid	i
100014a2:	4b06      	ldr	r3, [pc, #24]	@ (100014bc <hw_claim_lock+0x20>)
100014a4:	e8d3 1fcf 	ldaexb	r1, [r3]
100014a8:	2201      	movs	r2, #1
100014aa:	2900      	cmp	r1, #0
100014ac:	d1fa      	bne.n	100014a4 <hw_claim_lock+0x8>
100014ae:	e8c3 2f41 	strexb	r1, r2, [r3]
100014b2:	2900      	cmp	r1, #0
100014b4:	d1f6      	bne.n	100014a4 <hw_claim_lock+0x8>
100014b6:	f3bf 8f5f 	dmb	sy
100014ba:	4770      	bx	lr
100014bc:	2000049f 	.word	0x2000049f

100014c0 <hw_claim_unlock>:
100014c0:	2300      	movs	r3, #0
100014c2:	4a03      	ldr	r2, [pc, #12]	@ (100014d0 <hw_claim_unlock+0x10>)
100014c4:	e8c2 3f8f 	stlb	r3, [r2]
100014c8:	f380 8810 	msr	PRIMASK, r0
100014cc:	4770      	bx	lr
100014ce:	bf00      	nop
100014d0:	2000049f 	.word	0x2000049f

100014d4 <hw_claim_or_assert>:
100014d4:	b570      	push	{r4, r5, r6, lr}
100014d6:	4686      	mov	lr, r0
100014d8:	f3ef 8510 	mrs	r5, PRIMASK
100014dc:	b672      	cpsid	i
100014de:	4c12      	ldr	r4, [pc, #72]	@ (10001528 <hw_claim_or_assert+0x54>)
100014e0:	e8d4 6fcf 	ldaexb	r6, [r4]
100014e4:	2001      	movs	r0, #1
100014e6:	2e00      	cmp	r6, #0
100014e8:	d1fa      	bne.n	100014e0 <hw_claim_or_assert+0xc>
100014ea:	e8c4 0f46 	strexb	r6, r0, [r4]
100014ee:	2e00      	cmp	r6, #0
100014f0:	d1f6      	bne.n	100014e0 <hw_claim_or_assert+0xc>
100014f2:	f3bf 8f5f 	dmb	sy
100014f6:	f04f 0c01 	mov.w	ip, #1
100014fa:	08c8      	lsrs	r0, r1, #3
100014fc:	f001 0307 	and.w	r3, r1, #7
10001500:	fa0c f303 	lsl.w	r3, ip, r3
10001504:	f81e c000 	ldrb.w	ip, [lr, r0]
10001508:	ea1c 0603 	ands.w	r6, ip, r3
1000150c:	d108      	bne.n	10001520 <hw_claim_or_assert+0x4c>
1000150e:	ea4c 0c03 	orr.w	ip, ip, r3
10001512:	f80e c000 	strb.w	ip, [lr, r0]
10001516:	e8c4 6f8f 	stlb	r6, [r4]
1000151a:	f385 8810 	msr	PRIMASK, r5
1000151e:	bd70      	pop	{r4, r5, r6, pc}
10001520:	4610      	mov	r0, r2
10001522:	f7ff ffa3 	bl	1000146c <panic>
10001526:	bf00      	nop
10001528:	2000049f 	.word	0x2000049f

1000152c <hw_claim_unused_from_range>:
1000152c:	b5f8      	push	{r3, r4, r5, r6, r7, lr}
1000152e:	f3ef 8710 	mrs	r7, PRIMASK
10001532:	b672      	cpsid	i
10001534:	4e1c      	ldr	r6, [pc, #112]	@ (100015a8 <hw_claim_unused_from_range+0x7c>)
10001536:	e8d6 5fcf 	ldaexb	r5, [r6]
1000153a:	2401      	movs	r4, #1
1000153c:	2d00      	cmp	r5, #0
1000153e:	d1fa      	bne.n	10001536 <hw_claim_unused_from_range+0xa>
10001540:	e8c6 4f45 	strexb	r5, r4, [r6]
10001544:	2d00      	cmp	r5, #0
10001546:	d1f6      	bne.n	10001536 <hw_claim_unused_from_range+0xa>
10001548:	f3bf 8f5f 	dmb	sy
1000154c:	429a      	cmp	r2, r3
1000154e:	d81b      	bhi.n	10001588 <hw_claim_unused_from_range+0x5c>
10001550:	2501      	movs	r5, #1
10001552:	e002      	b.n	1000155a <hw_claim_unused_from_range+0x2e>
10001554:	3201      	adds	r2, #1
10001556:	4293      	cmp	r3, r2
10001558:	d322      	bcc.n	100015a0 <hw_claim_unused_from_range+0x74>
1000155a:	08d4      	lsrs	r4, r2, #3
1000155c:	f810 e004 	ldrb.w	lr, [r0, r4]
10001560:	f002 0c07 	and.w	ip, r2, #7
10001564:	fa05 fc0c 	lsl.w	ip, r5, ip
10001568:	ea1e 0f0c 	tst.w	lr, ip
1000156c:	d1f2      	bne.n	10001554 <hw_claim_unused_from_range+0x28>
1000156e:	ea4e 0e0c 	orr.w	lr, lr, ip
10001572:	f800 e004 	strb.w	lr, [r0, r4]
10001576:	4610      	mov	r0, r2
10001578:	2300      	movs	r3, #0
1000157a:	e8c6 3f8f 	stlb	r3, [r6]
1000157e:	f387 8810 	msr	PRIMASK, r7
10001582:	4298      	cmp	r0, r3
10001584:	db07      	blt.n	10001596 <hw_claim_unused_from_range+0x6a>
10001586:	bdf8      	pop	{r3, r4, r5, r6, r7, pc}
10001588:	2300      	movs	r3, #0
1000158a:	e8c6 3f8f 	stlb	r3, [r6]
1000158e:	f387 8810 	msr	PRIMASK, r7
10001592:	f04f 30ff 	mov.w	r0, #4294967295	@ 0xffffffff
10001596:	2900      	cmp	r1, #0
10001598:	d0f5      	beq.n	10001586 <hw_claim_unused_from_range+0x5a>
1000159a:	9806      	ldr	r0, [sp, #24]
1000159c:	f7ff ff66 	bl	1000146c <panic>
100015a0:	f04f 30ff 	mov.w	r0, #4294967295	@ 0xffffffff
100015a4:	e7e8      	b.n	10001578 <hw_claim_unused_from_range+0x4c>
100015a6:	bf00      	nop
100015a8:	2000049f 	.word	0x2000049f

100015ac <next_striped_spin_lock_num>:
100015ac:	4a04      	ldr	r2, [pc, #16]	@ (100015c0 <next_striped_spin_lock_num+0x14>)
100015ae:	7810      	ldrb	r0, [r2, #0]
100015b0:	1c43      	adds	r3, r0, #1
100015b2:	b2db      	uxtb	r3, r3
100015b4:	2b18      	cmp	r3, #24
100015b6:	bf28      	it	cs
100015b8:	2310      	movcs	r3, #16
100015ba:	7013      	strb	r3, [r2, #0]
100015bc:	4770      	bx	lr
100015be:	bf00      	nop
100015c0:	2000022e 	.word	0x2000022e

100015c4 <spinlock_set_extexclall>:
100015c4:	f04f 22e0 	mov.w	r2, #3758153728	@ 0xe000e000
100015c8:	6893      	ldr	r3, [r2, #8]
100015ca:	f043 5300 	orr.w	r3, r3, #536870912	@ 0x20000000
100015ce:	6093      	str	r3, [r2, #8]
100015d0:	4770      	bx	lr
100015d2:	bf00      	nop

100015d4 <spin_locks_reset>:
100015d4:	2100      	movs	r1, #0
100015d6:	4b04      	ldr	r3, [pc, #16]	@ (100015e8 <spin_locks_reset+0x14>)
100015d8:	f103 0220 	add.w	r2, r3, #32
100015dc:	e8c3 1f8f 	stlb	r1, [r3]
100015e0:	3301      	adds	r3, #1
100015e2:	4293      	cmp	r3, r2
100015e4:	d1fa      	bne.n	100015dc <spin_locks_reset+0x8>
100015e6:	4770      	bx	lr
100015e8:	20000494 	.word	0x20000494

100015ec <runtime_init_per_core_irq_priorities>:
100015ec:	f04f 23e0 	mov.w	r3, #3758153728	@ 0xe000e000
100015f0:	f04f 3280 	mov.w	r2, #2155905152	@ 0x80808080
100015f4:	f8c3 2400 	str.w	r2, [r3, #1024]	@ 0x400
100015f8:	f8c3 2404 	str.w	r2, [r3, #1028]	@ 0x404
100015fc:	f8c3 2408 	str.w	r2, [r3, #1032]	@ 0x408
10001600:	f8c3 240c 	str.w	r2, [r3, #1036]	@ 0x40c
10001604:	f8c3 2410 	str.w	r2, [r3, #1040]	@ 0x410
10001608:	f8c3 2414 	str.w	r2, [r3, #1044]	@ 0x414
1000160c:	f8c3 2418 	str.w	r2, [r3, #1048]	@ 0x418
10001610:	f8c3 241c 	str.w	r2, [r3, #1052]	@ 0x41c
10001614:	f8c3 2420 	str.w	r2, [r3, #1056]	@ 0x420
10001618:	f8c3 2424 	str.w	r2, [r3, #1060]	@ 0x424
1000161c:	f8c3 2428 	str.w	r2, [r3, #1064]	@ 0x428
10001620:	f8c3 242c 	str.w	r2, [r3, #1068]	@ 0x42c
10001624:	f8c3 2430 	str.w	r2, [r3, #1072]	@ 0x430
10001628:	b662      	cpsie	i
1000162a:	4770      	bx	lr

1000162c <irq_set_enabled>:
1000162c:	2301      	movs	r3, #1
1000162e:	f000 021f 	and.w	r2, r0, #31
10001632:	4093      	lsls	r3, r2
10001634:	0940      	lsrs	r0, r0, #5
10001636:	b141      	cbz	r1, 1000164a <irq_set_enabled+0x1e>
10001638:	0080      	lsls	r0, r0, #2
1000163a:	f100 4060 	add.w	r0, r0, #3758096384	@ 0xe0000000
1000163e:	f500 4061 	add.w	r0, r0, #57600	@ 0xe100
10001642:	f8c0 3180 	str.w	r3, [r0, #384]	@ 0x180
10001646:	6003      	str	r3, [r0, #0]
10001648:	4770      	bx	lr
1000164a:	4a02      	ldr	r2, [pc, #8]	@ (10001654 <irq_set_enabled+0x28>)
1000164c:	3020      	adds	r0, #32
1000164e:	f842 3020 	str.w	r3, [r2, r0, lsl #2]
10001652:	4770      	bx	lr
10001654:	e000e100 	.word	0xe000e100

10001658 <irq_set_exclusive_handler>:
10001658:	b5f8      	push	{r3, r4, r5, r6, r7, lr}
1000165a:	460d      	mov	r5, r1
1000165c:	f3ef 8710 	mrs	r7, PRIMASK
10001660:	b672      	cpsid	i
10001662:	4e12      	ldr	r6, [pc, #72]	@ (100016ac <irq_set_exclusive_handler+0x54>)
10001664:	e8d6 2fcf 	ldaexb	r2, [r6]
10001668:	2301      	movs	r3, #1
1000166a:	2a00      	cmp	r2, #0
1000166c:	d1fa      	bne.n	10001664 <irq_set_exclusive_handler+0xc>
1000166e:	e8c6 3f42 	strexb	r2, r3, [r6]
10001672:	2a00      	cmp	r2, #0
10001674:	d1f6      	bne.n	10001664 <irq_set_exclusive_handler+0xc>
10001676:	f3bf 8f5f 	dmb	sy
1000167a:	4b0d      	ldr	r3, [pc, #52]	@ (100016b0 <irq_set_exclusive_handler+0x58>)
1000167c:	f100 0410 	add.w	r4, r0, #16
10001680:	689b      	ldr	r3, [r3, #8]
10001682:	4a0c      	ldr	r2, [pc, #48]	@ (100016b4 <irq_set_exclusive_handler+0x5c>)
10001684:	f853 3024 	ldr.w	r3, [r3, r4, lsl #2]
10001688:	4293      	cmp	r3, r2
1000168a:	d003      	beq.n	10001694 <irq_set_exclusive_handler+0x3c>
1000168c:	4299      	cmp	r1, r3
1000168e:	d001      	beq.n	10001694 <irq_set_exclusive_handler+0x3c>
10001690:	f000 fe16 	bl	100022c0 <hard_assertion_failure>
10001694:	4b06      	ldr	r3, [pc, #24]	@ (100016b0 <irq_set_exclusive_handler+0x58>)
10001696:	689b      	ldr	r3, [r3, #8]
10001698:	f843 5024 	str.w	r5, [r3, r4, lsl #2]
1000169c:	f3bf 8f5f 	dmb	sy
100016a0:	2300      	movs	r3, #0
100016a2:	e8c6 3f8f 	stlb	r3, [r6]
100016a6:	f387 8810 	msr	PRIMASK, r7
100016aa:	bdf8      	pop	{r3, r4, r5, r6, r7, pc}
100016ac:	2000049d 	.word	0x2000049d
100016b0:	e000ed00 	.word	0xe000ed00
100016b4:	10000111 	.word	0x10000111

100016b8 <lock_init>:
100016b8:	4b01      	ldr	r3, [pc, #4]	@ (100016c0 <lock_init+0x8>)
100016ba:	440b      	add	r3, r1
100016bc:	6003      	str	r3, [r0, #0]
100016be:	4770      	bx	lr
100016c0:	20000494 	.word	0x20000494

100016c4 <runtime_init_mutex>:
100016c4:	b570      	push	{r4, r5, r6, lr}
100016c6:	4c10      	ldr	r4, [pc, #64]	@ (10001708 <runtime_init_mutex+0x44>)
100016c8:	4d10      	ldr	r5, [pc, #64]	@ (1000170c <runtime_init_mutex+0x48>)
100016ca:	42ac      	cmp	r4, r5
100016cc:	d20e      	bcs.n	100016ec <runtime_init_mutex+0x28>
100016ce:	26ff      	movs	r6, #255	@ 0xff
100016d0:	6823      	ldr	r3, [r4, #0]
100016d2:	b163      	cbz	r3, 100016ee <runtime_init_mutex+0x2a>
100016d4:	f7ff ff6a 	bl	100015ac <next_striped_spin_lock_num>
100016d8:	4601      	mov	r1, r0
100016da:	4620      	mov	r0, r4
100016dc:	f7ff ffec 	bl	100016b8 <lock_init>
100016e0:	80a6      	strh	r6, [r4, #4]
100016e2:	f3bf 8f5f 	dmb	sy
100016e6:	3408      	adds	r4, #8
100016e8:	42ac      	cmp	r4, r5
100016ea:	d3f1      	bcc.n	100016d0 <runtime_init_mutex+0xc>
100016ec:	bd70      	pop	{r4, r5, r6, pc}
100016ee:	f7ff ff5d 	bl	100015ac <next_striped_spin_lock_num>
100016f2:	4601      	mov	r1, r0
100016f4:	4620      	mov	r0, r4
100016f6:	f7ff ffdf 	bl	100016b8 <lock_init>
100016fa:	7126      	strb	r6, [r4, #4]
100016fc:	f3bf 8f5f 	dmb	sy
10001700:	3408      	adds	r4, #8
10001702:	42ac      	cmp	r4, r5
10001704:	d3e4      	bcc.n	100016d0 <runtime_init_mutex+0xc>
10001706:	bd70      	pop	{r4, r5, r6, pc}
10001708:	20000248 	.word	0x20000248
1000170c:	20000258 	.word	0x20000258

10001710 <sleep_until_callback>:
10001710:	4b0d      	ldr	r3, [pc, #52]	@ (10001748 <sleep_until_callback+0x38>)
10001712:	681a      	ldr	r2, [r3, #0]
10001714:	f3ef 8110 	mrs	r1, PRIMASK
10001718:	b672      	cpsid	i
1000171a:	e8d2 cfcf 	ldaexb	ip, [r2]
1000171e:	2001      	movs	r0, #1
10001720:	f1bc 0f00 	cmp.w	ip, #0
10001724:	d1f9      	bne.n	1000171a <sleep_until_callback+0xa>
10001726:	e8c2 0f4c 	strexb	ip, r0, [r2]
1000172a:	f1bc 0f00 	cmp.w	ip, #0
1000172e:	d1f4      	bne.n	1000171a <sleep_until_callback+0xa>
10001730:	f3bf 8f5f 	dmb	sy
10001734:	2200      	movs	r2, #0
10001736:	681b      	ldr	r3, [r3, #0]
10001738:	e8c3 2f8f 	stlb	r2, [r3]
1000173c:	f381 8810 	msr	PRIMASK, r1
10001740:	bf40      	sev
10001742:	2000      	movs	r0, #0
10001744:	2100      	movs	r1, #0
10001746:	4770      	bx	lr
10001748:	200006a4 	.word	0x200006a4
1000174c:	00000000 	.word	0x00000000

10001750 <alarm_pool_irq_handler>:
10001750:	e92d 4ff0 	stmdb	sp!, {r4, r5, r6, r7, r8, r9, sl, fp, lr}
10001754:	ed2d 8b02 	vpush	{d8}
10001758:	b085      	sub	sp, #20
1000175a:	f3ef 8305 	mrs	r3, IPSR
1000175e:	b2db      	uxtb	r3, r3
10001760:	3b10      	subs	r3, #16
10001762:	089a      	lsrs	r2, r3, #2
10001764:	bf18      	it	ne
10001766:	2201      	movne	r2, #1
10001768:	f04f 0101 	mov.w	r1, #1
1000176c:	f003 0b03 	and.w	fp, r3, #3
10001770:	bf18      	it	ne
10001772:	4daf      	ldrne	r5, [pc, #700]	@ (10001a30 <alarm_pool_irq_handler+0x2e0>)
10001774:	4baf      	ldr	r3, [pc, #700]	@ (10001a34 <alarm_pool_irq_handler+0x2e4>)
10001776:	bf08      	it	eq
10001778:	4daf      	ldreq	r5, [pc, #700]	@ (10001a38 <alarm_pool_irq_handler+0x2e8>)
1000177a:	eb0b 0282 	add.w	r2, fp, r2, lsl #2
1000177e:	f853 6022 	ldr.w	r6, [r3, r2, lsl #2]
10001782:	fa01 f20b 	lsl.w	r2, r1, fp
10001786:	f505 5341 	add.w	r3, r5, #12352	@ 0x3040
1000178a:	ed9f 8ba7 	vldr	d8, [pc, #668]	@ 10001a28 <alarm_pool_irq_handler+0x2d8>
1000178e:	9201      	str	r2, [sp, #4]
10001790:	605a      	str	r2, [r3, #4]
10001792:	e02f      	b.n	100017f4 <alarm_pool_irq_handler+0xa4>
10001794:	88b3      	ldrh	r3, [r6, #4]
10001796:	041c      	lsls	r4, r3, #16
10001798:	f140 8093 	bpl.w	100018c2 <alarm_pool_irq_handler+0x172>
1000179c:	79b3      	ldrb	r3, [r6, #6]
1000179e:	2b00      	cmp	r3, #0
100017a0:	f040 80dd 	bne.w	1000195e <alarm_pool_irq_handler+0x20e>
100017a4:	f9b6 2008 	ldrsh.w	r2, [r6, #8]
100017a8:	2a00      	cmp	r2, #0
100017aa:	f2c0 811e 	blt.w	100019ea <alarm_pool_irq_handler+0x29a>
100017ae:	6973      	ldr	r3, [r6, #20]
100017b0:	eb02 0242 	add.w	r2, r2, r2, lsl #1
100017b4:	eb03 03c2 	add.w	r3, r3, r2, lsl #3
100017b8:	e9d3 4702 	ldrd	r4, r7, [r3, #8]
100017bc:	f1b7 3fff 	cmp.w	r7, #4294967295	@ 0xffffffff
100017c0:	bf08      	it	eq
100017c2:	f1b4 3fff 	cmpeq.w	r4, #4294967295	@ 0xffffffff
100017c6:	d00e      	beq.n	100017e6 <alarm_pool_irq_handler+0x96>
100017c8:	eb05 018b 	add.w	r1, r5, fp, lsl #2
100017cc:	6aab      	ldr	r3, [r5, #40]	@ 0x28
100017ce:	690a      	ldr	r2, [r1, #16]
100017d0:	1ad2      	subs	r2, r2, r3
100017d2:	1ae3      	subs	r3, r4, r3
100017d4:	4293      	cmp	r3, r2
100017d6:	d305      	bcc.n	100017e4 <alarm_pool_irq_handler+0x94>
100017d8:	2301      	movs	r3, #1
100017da:	6a2a      	ldr	r2, [r5, #32]
100017dc:	fa03 f30b 	lsl.w	r3, r3, fp
100017e0:	4213      	tst	r3, r2
100017e2:	d100      	bne.n	100017e6 <alarm_pool_irq_handler+0x96>
100017e4:	610c      	str	r4, [r1, #16]
100017e6:	4628      	mov	r0, r5
100017e8:	f000 faca 	bl	10001d80 <timer_time_us_64>
100017ec:	42a0      	cmp	r0, r4
100017ee:	41b9      	sbcs	r1, r7
100017f0:	f2c0 80fb 	blt.w	100019ea <alarm_pool_irq_handler+0x29a>
100017f4:	f9b6 3008 	ldrsh.w	r3, [r6, #8]
100017f8:	9a01      	ldr	r2, [sp, #4]
100017fa:	2b00      	cmp	r3, #0
100017fc:	9300      	str	r3, [sp, #0]
100017fe:	63ea      	str	r2, [r5, #60]	@ 0x3c
10001800:	dbc8      	blt.n	10001794 <alarm_pool_irq_handler+0x44>
10001802:	f8d6 8014 	ldr.w	r8, [r6, #20]
10001806:	eb03 0943 	add.w	r9, r3, r3, lsl #1
1000180a:	4628      	mov	r0, r5
1000180c:	eb08 07c9 	add.w	r7, r8, r9, lsl #3
10001810:	e9d7 4a02 	ldrd	r4, sl, [r7, #8]
10001814:	f000 fab4 	bl	10001d80 <timer_time_us_64>
10001818:	42a0      	cmp	r0, r4
1000181a:	eb71 010a 	sbcs.w	r1, r1, sl
1000181e:	dbb9      	blt.n	10001794 <alarm_pool_irq_handler+0x44>
10001820:	f1ba 0f00 	cmp.w	sl, #0
10001824:	f2c0 80c3 	blt.w	100019ae <alarm_pool_irq_handler+0x25e>
10001828:	e9d7 3104 	ldrd	r3, r1, [r7, #16]
1000182c:	4a83      	ldr	r2, [pc, #524]	@ (10001a3c <alarm_pool_irq_handler+0x2ec>)
1000182e:	4293      	cmp	r3, r2
10001830:	f000 80ed 	beq.w	10001a0e <alarm_pool_irq_handler+0x2be>
10001834:	887a      	ldrh	r2, [r7, #2]
10001836:	f9b6 0008 	ldrsh.w	r0, [r6, #8]
1000183a:	b292      	uxth	r2, r2
1000183c:	ea42 4000 	orr.w	r0, r2, r0, lsl #16
10001840:	4798      	blx	r3
10001842:	4602      	mov	r2, r0
10001844:	460b      	mov	r3, r1
10001846:	ea52 0103 	orrs.w	r1, r2, r3
1000184a:	f000 80b0 	beq.w	100019ae <alarm_pool_irq_handler+0x25e>
1000184e:	2b00      	cmp	r3, #0
10001850:	f280 80d1 	bge.w	100019f6 <alarm_pool_irq_handler+0x2a6>
10001854:	ebb4 0e02 	subs.w	lr, r4, r2
10001858:	eb6a 0a03 	sbc.w	sl, sl, r3
1000185c:	f938 3039 	ldrsh.w	r3, [r8, r9, lsl #3]
10001860:	e9c7 ea02 	strd	lr, sl, [r7, #8]
10001864:	2b00      	cmp	r3, #0
10001866:	db95      	blt.n	10001794 <alarm_pool_irq_handler+0x44>
10001868:	6971      	ldr	r1, [r6, #20]
1000186a:	eb03 0243 	add.w	r2, r3, r3, lsl #1
1000186e:	eb01 02c2 	add.w	r2, r1, r2, lsl #3
10001872:	e9d2 7002 	ldrd	r7, r0, [r2, #8]
10001876:	45be      	cmp	lr, r7
10001878:	eb7a 0c00 	sbcs.w	ip, sl, r0
1000187c:	ea4f 0243 	mov.w	r2, r3, lsl #1
10001880:	db88      	blt.n	10001794 <alarm_pool_irq_handler+0x44>
10001882:	46b4      	mov	ip, r6
10001884:	f82c 3f08 	strh.w	r3, [ip, #8]!
10001888:	e006      	b.n	10001898 <alarm_pool_irq_handler+0x148>
1000188a:	eb03 0043 	add.w	r0, r3, r3, lsl #1
1000188e:	eb01 00c0 	add.w	r0, r1, r0, lsl #3
10001892:	005a      	lsls	r2, r3, #1
10001894:	e9d0 7002 	ldrd	r7, r0, [r0, #8]
10001898:	45be      	cmp	lr, r7
1000189a:	441a      	add	r2, r3
1000189c:	eb7a 0000 	sbcs.w	r0, sl, r0
100018a0:	eb01 04c2 	add.w	r4, r1, r2, lsl #3
100018a4:	db04      	blt.n	100018b0 <alarm_pool_irq_handler+0x160>
100018a6:	f931 3032 	ldrsh.w	r3, [r1, r2, lsl #3]
100018aa:	46a4      	mov	ip, r4
100018ac:	2b00      	cmp	r3, #0
100018ae:	daec      	bge.n	1000188a <alarm_pool_irq_handler+0x13a>
100018b0:	f828 3039 	strh.w	r3, [r8, r9, lsl #3]
100018b4:	9b00      	ldr	r3, [sp, #0]
100018b6:	f8ac 3000 	strh.w	r3, [ip]
100018ba:	88b3      	ldrh	r3, [r6, #4]
100018bc:	041c      	lsls	r4, r3, #16
100018be:	f53f af6d 	bmi.w	1000179c <alarm_pool_irq_handler+0x4c>
100018c2:	6933      	ldr	r3, [r6, #16]
100018c4:	f3ef 8210 	mrs	r2, PRIMASK
100018c8:	b672      	cpsid	i
100018ca:	e8d3 0fcf 	ldaexb	r0, [r3]
100018ce:	2101      	movs	r1, #1
100018d0:	2800      	cmp	r0, #0
100018d2:	d1fa      	bne.n	100018ca <alarm_pool_irq_handler+0x17a>
100018d4:	e8c3 1f40 	strexb	r0, r1, [r3]
100018d8:	2800      	cmp	r0, #0
100018da:	d1f6      	bne.n	100018ca <alarm_pool_irq_handler+0x17a>
100018dc:	f3bf 8f5f 	dmb	sy
100018e0:	f64f 74ff 	movw	r4, #65535	@ 0xffff
100018e4:	88b0      	ldrh	r0, [r6, #4]
100018e6:	2300      	movs	r3, #0
100018e8:	6931      	ldr	r1, [r6, #16]
100018ea:	b200      	sxth	r0, r0
100018ec:	80b4      	strh	r4, [r6, #4]
100018ee:	e8c1 3f8f 	stlb	r3, [r1]
100018f2:	f382 8810 	msr	PRIMASK, r2
100018f6:	4298      	cmp	r0, r3
100018f8:	f6ff af50 	blt.w	1000179c <alarm_pool_irq_handler+0x4c>
100018fc:	4607      	mov	r7, r0
100018fe:	46a9      	mov	r9, r5
10001900:	6974      	ldr	r4, [r6, #20]
10001902:	f106 0808 	add.w	r8, r6, #8
10001906:	eb07 0e47 	add.w	lr, r7, r7, lsl #1
1000190a:	eb04 03ce 	add.w	r3, r4, lr, lsl #3
1000190e:	e9d3 5002 	ldrd	r5, r0, [r3, #8]
10001912:	f9b6 3008 	ldrsh.w	r3, [r6, #8]
10001916:	46c4      	mov	ip, r8
10001918:	2b00      	cmp	r3, #0
1000191a:	db13      	blt.n	10001944 <alarm_pool_irq_handler+0x1f4>
1000191c:	46b2      	mov	sl, r6
1000191e:	9700      	str	r7, [sp, #0]
10001920:	e004      	b.n	1000192c <alarm_pool_irq_handler+0x1dc>
10001922:	f934 3036 	ldrsh.w	r3, [r4, r6, lsl #3]
10001926:	4694      	mov	ip, r2
10001928:	2b00      	cmp	r3, #0
1000192a:	db09      	blt.n	10001940 <alarm_pool_irq_handler+0x1f0>
1000192c:	eb03 0643 	add.w	r6, r3, r3, lsl #1
10001930:	eb04 02c6 	add.w	r2, r4, r6, lsl #3
10001934:	e9d2 7102 	ldrd	r7, r1, [r2, #8]
10001938:	42bd      	cmp	r5, r7
1000193a:	eb70 0101 	sbcs.w	r1, r0, r1
1000193e:	daf0      	bge.n	10001922 <alarm_pool_irq_handler+0x1d2>
10001940:	4656      	mov	r6, sl
10001942:	9f00      	ldr	r7, [sp, #0]
10001944:	f8ac 7000 	strh.w	r7, [ip]
10001948:	f934 703e 	ldrsh.w	r7, [r4, lr, lsl #3]
1000194c:	f824 303e 	strh.w	r3, [r4, lr, lsl #3]
10001950:	2f00      	cmp	r7, #0
10001952:	dad8      	bge.n	10001906 <alarm_pool_irq_handler+0x1b6>
10001954:	79b3      	ldrb	r3, [r6, #6]
10001956:	464d      	mov	r5, r9
10001958:	2b00      	cmp	r3, #0
1000195a:	f43f af23 	beq.w	100017a4 <alarm_pool_irq_handler+0x54>
1000195e:	2300      	movs	r3, #0
10001960:	71b3      	strb	r3, [r6, #6]
10001962:	f9b6 3008 	ldrsh.w	r3, [r6, #8]
10001966:	f106 0808 	add.w	r8, r6, #8
1000196a:	1c58      	adds	r0, r3, #1
1000196c:	d03d      	beq.n	100019ea <alarm_pool_irq_handler+0x29a>
1000196e:	461a      	mov	r2, r3
10001970:	6977      	ldr	r7, [r6, #20]
10001972:	e003      	b.n	1000197c <alarm_pool_irq_handler+0x22c>
10001974:	4680      	mov	r8, r0
10001976:	1c59      	adds	r1, r3, #1
10001978:	f43f af16 	beq.w	100017a8 <alarm_pool_irq_handler+0x58>
1000197c:	eb03 0143 	add.w	r1, r3, r3, lsl #1
10001980:	eb07 00c1 	add.w	r0, r7, r1, lsl #3
10001984:	f8b0 c002 	ldrh.w	ip, [r0, #2]
10001988:	461c      	mov	r4, r3
1000198a:	f41c 4f00 	tst.w	ip, #32768	@ 0x8000
1000198e:	469e      	mov	lr, r3
10001990:	f937 3031 	ldrsh.w	r3, [r7, r1, lsl #3]
10001994:	d0ee      	beq.n	10001974 <alarm_pool_irq_handler+0x224>
10001996:	4294      	cmp	r4, r2
10001998:	ed80 8b02 	vstr	d8, [r0, #8]
1000199c:	d005      	beq.n	100019aa <alarm_pool_irq_handler+0x25a>
1000199e:	f8a8 3000 	strh.w	r3, [r8]
100019a2:	8932      	ldrh	r2, [r6, #8]
100019a4:	f827 2031 	strh.w	r2, [r7, r1, lsl #3]
100019a8:	8134      	strh	r4, [r6, #8]
100019aa:	4672      	mov	r2, lr
100019ac:	e7e3      	b.n	10001976 <alarm_pool_irq_handler+0x226>
100019ae:	f838 3039 	ldrh.w	r3, [r8, r9, lsl #3]
100019b2:	8133      	strh	r3, [r6, #8]
100019b4:	6933      	ldr	r3, [r6, #16]
100019b6:	f3ef 8210 	mrs	r2, PRIMASK
100019ba:	b672      	cpsid	i
100019bc:	e8d3 0fcf 	ldaexb	r0, [r3]
100019c0:	2101      	movs	r1, #1
100019c2:	2800      	cmp	r0, #0
100019c4:	d1fa      	bne.n	100019bc <alarm_pool_irq_handler+0x26c>
100019c6:	e8c3 1f40 	strexb	r0, r1, [r3]
100019ca:	2800      	cmp	r0, #0
100019cc:	d1f6      	bne.n	100019bc <alarm_pool_irq_handler+0x26c>
100019ce:	f3bf 8f5f 	dmb	sy
100019d2:	8873      	ldrh	r3, [r6, #2]
100019d4:	6931      	ldr	r1, [r6, #16]
100019d6:	f828 3039 	strh.w	r3, [r8, r9, lsl #3]
100019da:	9b00      	ldr	r3, [sp, #0]
100019dc:	8073      	strh	r3, [r6, #2]
100019de:	2300      	movs	r3, #0
100019e0:	e8c1 3f8f 	stlb	r3, [r1]
100019e4:	f382 8810 	msr	PRIMASK, r2
100019e8:	e6d4      	b.n	10001794 <alarm_pool_irq_handler+0x44>
100019ea:	bf40      	sev
100019ec:	b005      	add	sp, #20
100019ee:	ecbd 8b02 	vpop	{d8}
100019f2:	e8bd 8ff0 	ldmia.w	sp!, {r4, r5, r6, r7, r8, r9, sl, fp, pc}
100019f6:	4628      	mov	r0, r5
100019f8:	e9cd 2302 	strd	r2, r3, [sp, #8]
100019fc:	f000 f9c0 	bl	10001d80 <timer_time_us_64>
10001a00:	9a02      	ldr	r2, [sp, #8]
10001a02:	9b03      	ldr	r3, [sp, #12]
10001a04:	eb10 0e02 	adds.w	lr, r0, r2
10001a08:	eb43 0a01 	adc.w	sl, r3, r1
10001a0c:	e726      	b.n	1000185c <alarm_pool_irq_handler+0x10c>
10001a0e:	4608      	mov	r0, r1
10001a10:	690b      	ldr	r3, [r1, #16]
10001a12:	9102      	str	r1, [sp, #8]
10001a14:	4798      	blx	r3
10001a16:	2800      	cmp	r0, #0
10001a18:	d0c9      	beq.n	100019ae <alarm_pool_irq_handler+0x25e>
10001a1a:	9902      	ldr	r1, [sp, #8]
10001a1c:	e9d1 2300 	ldrd	r2, r3, [r1]
10001a20:	e711      	b.n	10001846 <alarm_pool_irq_handler+0xf6>
10001a22:	bf00      	nop
10001a24:	f3af 8000 	nop.w
10001a28:	ffffffff 	.word	0xffffffff
10001a2c:	ffffffff 	.word	0xffffffff
10001a30:	400b8000 	.word	0x400b8000
10001a34:	20000520 	.word	0x20000520
10001a38:	400b0000 	.word	0x400b0000
10001a3c:	10001751 	.word	0x10001751

10001a40 <runtime_init_default_alarm_pool>:
10001a40:	e92d 4ff8 	stmdb	sp!, {r3, r4, r5, r6, r7, r8, r9, sl, fp, lr}
10001a44:	4c36      	ldr	r4, [pc, #216]	@ (10001b20 <runtime_init_default_alarm_pool+0xe0>)
10001a46:	6925      	ldr	r5, [r4, #16]
10001a48:	b12d      	cbz	r5, 10001a56 <runtime_init_default_alarm_pool+0x16>
10001a4a:	e8bd 4ff8 	ldmia.w	sp!, {r3, r4, r5, r6, r7, r8, r9, sl, fp, lr}
10001a4e:	210a      	movs	r1, #10
10001a50:	4834      	ldr	r0, [pc, #208]	@ (10001b24 <runtime_init_default_alarm_pool+0xe4>)
10001a52:	f7ff be31 	b.w	100016b8 <lock_init>
10001a56:	f8df 80e4 	ldr.w	r8, [pc, #228]	@ 10001b3c <runtime_init_default_alarm_pool+0xfc>
10001a5a:	2103      	movs	r1, #3
10001a5c:	4640      	mov	r0, r8
10001a5e:	f000 f97d 	bl	10001d5c <timer_hardware_alarm_claim>
10001a62:	2603      	movs	r6, #3
10001a64:	f8c4 800c 	str.w	r8, [r4, #12]
10001a68:	f7ff fda0 	bl	100015ac <next_striped_spin_lock_num>
10001a6c:	f04f 4c50 	mov.w	ip, #3489660928	@ 0xd0000000
10001a70:	4b2d      	ldr	r3, [pc, #180]	@ (10001b28 <runtime_init_default_alarm_pool+0xe8>)
10001a72:	7026      	strb	r6, [r4, #0]
10001a74:	4403      	add	r3, r0
10001a76:	6123      	str	r3, [r4, #16]
10001a78:	f8dc 3000 	ldr.w	r3, [ip]
10001a7c:	210f      	movs	r1, #15
10001a7e:	7063      	strb	r3, [r4, #1]
10001a80:	6963      	ldr	r3, [r4, #20]
10001a82:	8061      	strh	r1, [r4, #2]
10001a84:	831d      	strh	r5, [r3, #24]
10001a86:	f04f 0504 	mov.w	r5, #4
10001a8a:	f8a3 5078 	strh.w	r5, [r3, #120]	@ 0x78
10001a8e:	f04f 0505 	mov.w	r5, #5
10001a92:	f8a3 5090 	strh.w	r5, [r3, #144]	@ 0x90
10001a96:	f04f 0506 	mov.w	r5, #6
10001a9a:	f8a3 50a8 	strh.w	r5, [r3, #168]	@ 0xa8
10001a9e:	f04f 0507 	mov.w	r5, #7
10001aa2:	210e      	movs	r1, #14
10001aa4:	f64f 72ff 	movw	r2, #65535	@ 0xffff
10001aa8:	2708      	movs	r7, #8
10001aaa:	f04f 0e0a 	mov.w	lr, #10
10001aae:	f8a3 50c0 	strh.w	r5, [r3, #192]	@ 0xc0
10001ab2:	f04f 0901 	mov.w	r9, #1
10001ab6:	f04f 0c0c 	mov.w	ip, #12
10001aba:	f04f 0b02 	mov.w	fp, #2
10001abe:	f04f 0a09 	mov.w	sl, #9
10001ac2:	200d      	movs	r0, #13
10001ac4:	f04f 050b 	mov.w	r5, #11
10001ac8:	f8a3 1168 	strh.w	r1, [r3, #360]	@ 0x168
10001acc:	4917      	ldr	r1, [pc, #92]	@ (10001b2c <runtime_init_default_alarm_pool+0xec>)
10001ace:	80a2      	strh	r2, [r4, #4]
10001ad0:	f8a3 e108 	strh.w	lr, [r3, #264]	@ 0x108
10001ad4:	60a1      	str	r1, [r4, #8]
10001ad6:	f8a3 b048 	strh.w	fp, [r3, #72]	@ 0x48
10001ada:	f8a3 a0f0 	strh.w	sl, [r3, #240]	@ 0xf0
10001ade:	f8a3 5120 	strh.w	r5, [r3, #288]	@ 0x120
10001ae2:	f8a3 c138 	strh.w	ip, [r3, #312]	@ 0x138
10001ae6:	f8a3 0150 	strh.w	r0, [r3, #336]	@ 0x150
10001aea:	f8a3 9030 	strh.w	r9, [r3, #48]	@ 0x30
10001aee:	f8a3 6060 	strh.w	r6, [r3, #96]	@ 0x60
10001af2:	f8a3 70d8 	strh.w	r7, [r3, #216]	@ 0xd8
10001af6:	801a      	strh	r2, [r3, #0]
10001af8:	4b0d      	ldr	r3, [pc, #52]	@ (10001b30 <runtime_init_default_alarm_pool+0xf0>)
10001afa:	4630      	mov	r0, r6
10001afc:	f8c8 7020 	str.w	r7, [r8, #32]
10001b00:	490c      	ldr	r1, [pc, #48]	@ (10001b34 <runtime_init_default_alarm_pool+0xf4>)
10001b02:	60dc      	str	r4, [r3, #12]
10001b04:	f7ff fda8 	bl	10001658 <irq_set_exclusive_handler>
10001b08:	4649      	mov	r1, r9
10001b0a:	4630      	mov	r0, r6
10001b0c:	f7ff fd8e 	bl	1000162c <irq_set_enabled>
10001b10:	4b09      	ldr	r3, [pc, #36]	@ (10001b38 <runtime_init_default_alarm_pool+0xf8>)
10001b12:	210a      	movs	r1, #10
10001b14:	641f      	str	r7, [r3, #64]	@ 0x40
10001b16:	4803      	ldr	r0, [pc, #12]	@ (10001b24 <runtime_init_default_alarm_pool+0xe4>)
10001b18:	e8bd 4ff8 	ldmia.w	sp!, {r3, r4, r5, r6, r7, r8, r9, sl, fp, lr}
10001b1c:	f7ff bdcc 	b.w	100016b8 <lock_init>
10001b20:	20000230 	.word	0x20000230
10001b24:	200006a4 	.word	0x200006a4
10001b28:	20000494 	.word	0x20000494
10001b2c:	0010ffff 	.word	0x0010ffff
10001b30:	20000520 	.word	0x20000520
10001b34:	10001751 	.word	0x10001751
10001b38:	400b2000 	.word	0x400b2000
10001b3c:	400b0000 	.word	0x400b0000

10001b40 <alarm_pool_add_alarm_at_force_in_context>:
10001b40:	4601      	mov	r1, r0
10001b42:	b5f0      	push	{r4, r5, r6, r7, lr}
10001b44:	6900      	ldr	r0, [r0, #16]
10001b46:	f3ef 8710 	mrs	r7, PRIMASK
10001b4a:	b672      	cpsid	i
10001b4c:	e8d0 5fcf 	ldaexb	r5, [r0]
10001b50:	2401      	movs	r4, #1
10001b52:	2d00      	cmp	r5, #0
10001b54:	d1fa      	bne.n	10001b4c <alarm_pool_add_alarm_at_force_in_context+0xc>
10001b56:	e8c0 4f45 	strexb	r5, r4, [r0]
10001b5a:	2d00      	cmp	r5, #0
10001b5c:	d1f6      	bne.n	10001b4c <alarm_pool_add_alarm_at_force_in_context+0xc>
10001b5e:	f3bf 8f5f 	dmb	sy
10001b62:	f9b1 e002 	ldrsh.w	lr, [r1, #2]
10001b66:	694c      	ldr	r4, [r1, #20]
10001b68:	eb0e 0c4e 	add.w	ip, lr, lr, lsl #1
10001b6c:	f1be 0f00 	cmp.w	lr, #0
10001b70:	ea4f 05cc 	mov.w	r5, ip, lsl #3
10001b74:	6908      	ldr	r0, [r1, #16]
10001b76:	eb04 0ccc 	add.w	ip, r4, ip, lsl #3
10001b7a:	db3c      	blt.n	10001bf6 <alarm_pool_add_alarm_at_force_in_context+0xb6>
10001b7c:	5b66      	ldrh	r6, [r4, r5]
10001b7e:	804e      	strh	r6, [r1, #2]
10001b80:	2600      	movs	r6, #0
10001b82:	e8c0 6f8f 	stlb	r6, [r0]
10001b86:	f387 8810 	msr	PRIMASK, r7
10001b8a:	f8bc 0002 	ldrh.w	r0, [ip, #2]
10001b8e:	e9cc 2302 	strd	r2, r3, [ip, #8]
10001b92:	3001      	adds	r0, #1
10001b94:	f3c0 000e 	ubfx	r0, r0, #0, #15
10001b98:	2801      	cmp	r0, #1
10001b9a:	bf38      	it	cc
10001b9c:	2001      	movcc	r0, #1
10001b9e:	9b05      	ldr	r3, [sp, #20]
10001ba0:	f8ac 0002 	strh.w	r0, [ip, #2]
10001ba4:	f8cc 3010 	str.w	r3, [ip, #16]
10001ba8:	9b06      	ldr	r3, [sp, #24]
10001baa:	ea40 400e 	orr.w	r0, r0, lr, lsl #16
10001bae:	f8cc 3014 	str.w	r3, [ip, #20]
10001bb2:	690b      	ldr	r3, [r1, #16]
10001bb4:	f3ef 8210 	mrs	r2, PRIMASK
10001bb8:	b672      	cpsid	i
10001bba:	e8d3 cfcf 	ldaexb	ip, [r3]
10001bbe:	2701      	movs	r7, #1
10001bc0:	f1bc 0f00 	cmp.w	ip, #0
10001bc4:	d1f9      	bne.n	10001bba <alarm_pool_add_alarm_at_force_in_context+0x7a>
10001bc6:	e8c3 7f4c 	strexb	ip, r7, [r3]
10001bca:	f1bc 0f00 	cmp.w	ip, #0
10001bce:	d1f4      	bne.n	10001bba <alarm_pool_add_alarm_at_force_in_context+0x7a>
10001bd0:	f3bf 8f5f 	dmb	sy
10001bd4:	888b      	ldrh	r3, [r1, #4]
10001bd6:	5363      	strh	r3, [r4, r5]
10001bd8:	f8a1 e004 	strh.w	lr, [r1, #4]
10001bdc:	690b      	ldr	r3, [r1, #16]
10001bde:	e8c3 6f8f 	stlb	r6, [r3]
10001be2:	f382 8810 	msr	PRIMASK, r2
10001be6:	2201      	movs	r2, #1
10001be8:	68cb      	ldr	r3, [r1, #12]
10001bea:	7809      	ldrb	r1, [r1, #0]
10001bec:	f503 5301 	add.w	r3, r3, #8256	@ 0x2040
10001bf0:	408a      	lsls	r2, r1
10001bf2:	605a      	str	r2, [r3, #4]
10001bf4:	bdf0      	pop	{r4, r5, r6, r7, pc}
10001bf6:	2300      	movs	r3, #0
10001bf8:	e8c0 3f8f 	stlb	r3, [r0]
10001bfc:	f387 8810 	msr	PRIMASK, r7
10001c00:	f04f 30ff 	mov.w	r0, #4294967295	@ 0xffffffff
10001c04:	bdf0      	pop	{r4, r5, r6, r7, pc}
10001c06:	bf00      	nop

10001c08 <alarm_pool_cancel_alarm>:
10001c08:	4603      	mov	r3, r0
10001c0a:	8940      	ldrh	r0, [r0, #10]
10001c0c:	ebb0 4f21 	cmp.w	r0, r1, asr #16
10001c10:	dd37      	ble.n	10001c82 <alarm_pool_cancel_alarm+0x7a>
10001c12:	6958      	ldr	r0, [r3, #20]
10001c14:	140a      	asrs	r2, r1, #16
10001c16:	eb02 0242 	add.w	r2, r2, r2, lsl #1
10001c1a:	b510      	push	{r4, lr}
10001c1c:	eb00 00c2 	add.w	r0, r0, r2, lsl #3
10001c20:	691c      	ldr	r4, [r3, #16]
10001c22:	f3ef 8c10 	mrs	ip, PRIMASK
10001c26:	b672      	cpsid	i
10001c28:	e8d4 efcf 	ldaexb	lr, [r4]
10001c2c:	2201      	movs	r2, #1
10001c2e:	f1be 0f00 	cmp.w	lr, #0
10001c32:	d1f9      	bne.n	10001c28 <alarm_pool_cancel_alarm+0x20>
10001c34:	e8c4 2f4e 	strexb	lr, r2, [r4]
10001c38:	f1be 0f00 	cmp.w	lr, #0
10001c3c:	d1f4      	bne.n	10001c28 <alarm_pool_cancel_alarm+0x20>
10001c3e:	f3bf 8f5f 	dmb	sy
10001c42:	8842      	ldrh	r2, [r0, #2]
10001c44:	b289      	uxth	r1, r1
10001c46:	b292      	uxth	r2, r2
10001c48:	428a      	cmp	r2, r1
10001c4a:	d007      	beq.n	10001c5c <alarm_pool_cancel_alarm+0x54>
10001c4c:	2200      	movs	r2, #0
10001c4e:	691b      	ldr	r3, [r3, #16]
10001c50:	e8c3 2f8f 	stlb	r2, [r3]
10001c54:	f38c 8810 	msr	PRIMASK, ip
10001c58:	2000      	movs	r0, #0
10001c5a:	bd10      	pop	{r4, pc}
10001c5c:	f442 4200 	orr.w	r2, r2, #32768	@ 0x8000
10001c60:	8042      	strh	r2, [r0, #2]
10001c62:	2101      	movs	r1, #1
10001c64:	2200      	movs	r2, #0
10001c66:	6918      	ldr	r0, [r3, #16]
10001c68:	7199      	strb	r1, [r3, #6]
10001c6a:	e8c0 2f8f 	stlb	r2, [r0]
10001c6e:	f38c 8810 	msr	PRIMASK, ip
10001c72:	781c      	ldrb	r4, [r3, #0]
10001c74:	68da      	ldr	r2, [r3, #12]
10001c76:	4608      	mov	r0, r1
10001c78:	f502 5301 	add.w	r3, r2, #8256	@ 0x2040
10001c7c:	40a1      	lsls	r1, r4
10001c7e:	6059      	str	r1, [r3, #4]
10001c80:	bd10      	pop	{r4, pc}
10001c82:	2000      	movs	r0, #0
10001c84:	4770      	bx	lr
10001c86:	bf00      	nop

10001c88 <best_effort_wfe_or_timeout>:
10001c88:	e92d 43f0 	stmdb	sp!, {r4, r5, r6, r7, r8, r9, lr}
10001c8c:	4606      	mov	r6, r0
10001c8e:	460d      	mov	r5, r1
10001c90:	b083      	sub	sp, #12
10001c92:	f3ef 8405 	mrs	r4, IPSR
10001c96:	b2e4      	uxtb	r4, r4
10001c98:	b13c      	cbz	r4, 10001caa <best_effort_wfe_or_timeout+0x22>
10001c9a:	4b2d      	ldr	r3, [pc, #180]	@ (10001d50 <best_effort_wfe_or_timeout+0xc8>)
10001c9c:	6a5a      	ldr	r2, [r3, #36]	@ 0x24
10001c9e:	42aa      	cmp	r2, r5
10001ca0:	d21c      	bcs.n	10001cdc <best_effort_wfe_or_timeout+0x54>
10001ca2:	2000      	movs	r0, #0
10001ca4:	b003      	add	sp, #12
10001ca6:	e8bd 83f0 	ldmia.w	sp!, {r4, r5, r6, r7, r8, r9, pc}
10001caa:	4f2a      	ldr	r7, [pc, #168]	@ (10001d54 <best_effort_wfe_or_timeout+0xcc>)
10001cac:	f8d7 900c 	ldr.w	r9, [r7, #12]
10001cb0:	f897 8000 	ldrb.w	r8, [r7]
10001cb4:	4648      	mov	r0, r9
10001cb6:	f000 f863 	bl	10001d80 <timer_time_us_64>
10001cba:	f108 0804 	add.w	r8, r8, #4
10001cbe:	f859 3028 	ldr.w	r3, [r9, r8, lsl #2]
10001cc2:	1a1b      	subs	r3, r3, r0
10001cc4:	1a30      	subs	r0, r6, r0
10001cc6:	eb65 0101 	sbc.w	r1, r5, r1
10001cca:	4298      	cmp	r0, r3
10001ccc:	f171 0100 	sbcs.w	r1, r1, #0
10001cd0:	db10      	blt.n	10001cf4 <best_effort_wfe_or_timeout+0x6c>
10001cd2:	bf20      	wfe
10001cd4:	4b1e      	ldr	r3, [pc, #120]	@ (10001d50 <best_effort_wfe_or_timeout+0xc8>)
10001cd6:	6a5a      	ldr	r2, [r3, #36]	@ 0x24
10001cd8:	42aa      	cmp	r2, r5
10001cda:	d3e2      	bcc.n	10001ca2 <best_effort_wfe_or_timeout+0x1a>
10001cdc:	bf14      	ite	ne
10001cde:	2401      	movne	r4, #1
10001ce0:	2400      	moveq	r4, #0
10001ce2:	6a9b      	ldr	r3, [r3, #40]	@ 0x28
10001ce4:	42b3      	cmp	r3, r6
10001ce6:	bf34      	ite	cc
10001ce8:	4620      	movcc	r0, r4
10001cea:	f044 0001 	orrcs.w	r0, r4, #1
10001cee:	b003      	add	sp, #12
10001cf0:	e8bd 83f0 	ldmia.w	sp!, {r4, r5, r6, r7, r8, r9, pc}
10001cf4:	f000 f84c 	bl	10001d90 <time_us_64>
10001cf8:	4286      	cmp	r6, r0
10001cfa:	eb65 0101 	sbc.w	r1, r5, r1
10001cfe:	2900      	cmp	r1, #0
10001d00:	db14      	blt.n	10001d2c <best_effort_wfe_or_timeout+0xa4>
10001d02:	4b15      	ldr	r3, [pc, #84]	@ (10001d58 <best_effort_wfe_or_timeout+0xd0>)
10001d04:	4638      	mov	r0, r7
10001d06:	e9cd 3400 	strd	r3, r4, [sp]
10001d0a:	4632      	mov	r2, r6
10001d0c:	462b      	mov	r3, r5
10001d0e:	f7ff ff17 	bl	10001b40 <alarm_pool_add_alarm_at_force_in_context>
10001d12:	1e01      	subs	r1, r0, #0
10001d14:	dd0a      	ble.n	10001d2c <best_effort_wfe_or_timeout+0xa4>
10001d16:	4b0e      	ldr	r3, [pc, #56]	@ (10001d50 <best_effort_wfe_or_timeout+0xc8>)
10001d18:	6a5a      	ldr	r2, [r3, #36]	@ 0x24
10001d1a:	42aa      	cmp	r2, r5
10001d1c:	d316      	bcc.n	10001d4c <best_effort_wfe_or_timeout+0xc4>
10001d1e:	6a9b      	ldr	r3, [r3, #40]	@ 0x28
10001d20:	42b3      	cmp	r3, r6
10001d22:	d311      	bcc.n	10001d48 <best_effort_wfe_or_timeout+0xc0>
10001d24:	480b      	ldr	r0, [pc, #44]	@ (10001d54 <best_effort_wfe_or_timeout+0xcc>)
10001d26:	f7ff ff6f 	bl	10001c08 <alarm_pool_cancel_alarm>
10001d2a:	e7b6      	b.n	10001c9a <best_effort_wfe_or_timeout+0x12>
10001d2c:	4b08      	ldr	r3, [pc, #32]	@ (10001d50 <best_effort_wfe_or_timeout+0xc8>)
10001d2e:	6a5c      	ldr	r4, [r3, #36]	@ 0x24
10001d30:	42ac      	cmp	r4, r5
10001d32:	d3b6      	bcc.n	10001ca2 <best_effort_wfe_or_timeout+0x1a>
10001d34:	1b64      	subs	r4, r4, r5
10001d36:	bf18      	it	ne
10001d38:	2401      	movne	r4, #1
10001d3a:	6a9b      	ldr	r3, [r3, #40]	@ 0x28
10001d3c:	42b3      	cmp	r3, r6
10001d3e:	bf34      	ite	cc
10001d40:	4620      	movcc	r0, r4
10001d42:	f044 0001 	orrcs.w	r0, r4, #1
10001d46:	e7ad      	b.n	10001ca4 <best_effort_wfe_or_timeout+0x1c>
10001d48:	42aa      	cmp	r2, r5
10001d4a:	d1eb      	bne.n	10001d24 <best_effort_wfe_or_timeout+0x9c>
10001d4c:	bf20      	wfe
10001d4e:	e7e9      	b.n	10001d24 <best_effort_wfe_or_timeout+0x9c>
10001d50:	400b0000 	.word	0x400b0000
10001d54:	20000230 	.word	0x20000230
10001d58:	10001711 	.word	0x10001711

10001d5c <timer_hardware_alarm_claim>:
10001d5c:	b410      	push	{r4}
10001d5e:	4b05      	ldr	r3, [pc, #20]	@ (10001d74 <timer_hardware_alarm_claim+0x18>)
10001d60:	4c05      	ldr	r4, [pc, #20]	@ (10001d78 <timer_hardware_alarm_claim+0x1c>)
10001d62:	4a06      	ldr	r2, [pc, #24]	@ (10001d7c <timer_hardware_alarm_claim+0x20>)
10001d64:	42a0      	cmp	r0, r4
10001d66:	bf14      	ite	ne
10001d68:	4618      	movne	r0, r3
10001d6a:	1c58      	addeq	r0, r3, #1
10001d6c:	f85d 4b04 	ldr.w	r4, [sp], #4
10001d70:	f7ff bbb0 	b.w	100014d4 <hw_claim_or_assert>
10001d74:	200004c4 	.word	0x200004c4
10001d78:	400b8000 	.word	0x400b8000
10001d7c:	10002dfc 	.word	0x10002dfc

10001d80 <timer_time_us_64>:
10001d80:	4603      	mov	r3, r0
10001d82:	6a41      	ldr	r1, [r0, #36]	@ 0x24
10001d84:	460a      	mov	r2, r1
10001d86:	6a98      	ldr	r0, [r3, #40]	@ 0x28
10001d88:	6a59      	ldr	r1, [r3, #36]	@ 0x24
10001d8a:	428a      	cmp	r2, r1
10001d8c:	d1fa      	bne.n	10001d84 <timer_time_us_64+0x4>
10001d8e:	4770      	bx	lr

10001d90 <time_us_64>:
10001d90:	4b03      	ldr	r3, [pc, #12]	@ (10001da0 <time_us_64+0x10>)
10001d92:	6a59      	ldr	r1, [r3, #36]	@ 0x24
10001d94:	460a      	mov	r2, r1
10001d96:	6a98      	ldr	r0, [r3, #40]	@ 0x28
10001d98:	6a59      	ldr	r1, [r3, #36]	@ 0x24
10001d9a:	4291      	cmp	r1, r2
10001d9c:	d1fa      	bne.n	10001d94 <time_us_64+0x4>
10001d9e:	4770      	bx	lr
10001da0:	400b0000 	.word	0x400b0000

10001da4 <clock_configure_undivided>:
10001da4:	eb00 0c40 	add.w	ip, r0, r0, lsl #1
10001da8:	ea4f 0c8c 	mov.w	ip, ip, lsl #2
10001dac:	f10c 4c80 	add.w	ip, ip, #1073741824	@ 0x40000000
10001db0:	f50c 3c80 	add.w	ip, ip, #65536	@ 0x10000
10001db4:	b5f0      	push	{r4, r5, r6, r7, lr}
10001db6:	4616      	mov	r6, r2
10001db8:	f8dc 2004 	ldr.w	r2, [ip, #4]
10001dbc:	1f05      	subs	r5, r0, #4
10001dbe:	f5b2 3f80 	cmp.w	r2, #65536	@ 0x10000
10001dc2:	bf38      	it	cc
10001dc4:	f44f 3280 	movcc.w	r2, #65536	@ 0x10000
10001dc8:	b2ed      	uxtb	r5, r5
10001dca:	bf38      	it	cc
10001dcc:	f8cc 2004 	strcc.w	r2, [ip, #4]
10001dd0:	2d01      	cmp	r5, #1
10001dd2:	d92a      	bls.n	10001e2a <clock_configure_undivided+0x86>
10001dd4:	f44f 6700 	mov.w	r7, #2048	@ 0x800
10001dd8:	4c25      	ldr	r4, [pc, #148]	@ (10001e70 <clock_configure_undivided+0xcc>)
10001dda:	f50c 5240 	add.w	r2, ip, #12288	@ 0x3000
10001dde:	6017      	str	r7, [r2, #0]
10001de0:	f854 2020 	ldr.w	r2, [r4, r0, lsl #2]
10001de4:	b9b2      	cbnz	r2, 10001e14 <clock_configure_undivided+0x70>
10001de6:	f8dc 2000 	ldr.w	r2, [ip]
10001dea:	2d01      	cmp	r5, #1
10001dec:	ea82 1246 	eor.w	r2, r2, r6, lsl #5
10001df0:	f002 02e0 	and.w	r2, r2, #224	@ 0xe0
10001df4:	f50c 5680 	add.w	r6, ip, #4096	@ 0x1000
10001df8:	6032      	str	r2, [r6, #0]
10001dfa:	d92a      	bls.n	10001e52 <clock_configure_undivided+0xae>
10001dfc:	f44f 6100 	mov.w	r1, #2048	@ 0x800
10001e00:	f844 3020 	str.w	r3, [r4, r0, lsl #2]
10001e04:	f44f 3380 	mov.w	r3, #65536	@ 0x10000
10001e08:	f50c 5200 	add.w	r2, ip, #8192	@ 0x2000
10001e0c:	6011      	str	r1, [r2, #0]
10001e0e:	f8cc 3004 	str.w	r3, [ip, #4]
10001e12:	bdf0      	pop	{r4, r5, r6, r7, pc}
10001e14:	6967      	ldr	r7, [r4, #20]
10001e16:	fbb7 fef2 	udiv	lr, r7, r2
10001e1a:	f10e 0e01 	add.w	lr, lr, #1
10001e1e:	eb0e 0e4e 	add.w	lr, lr, lr, lsl #1
10001e22:	f1be 0e03 	subs.w	lr, lr, #3
10001e26:	d2fc      	bcs.n	10001e22 <clock_configure_undivided+0x7e>
10001e28:	e7dd      	b.n	10001de6 <clock_configure_undivided+0x42>
10001e2a:	2901      	cmp	r1, #1
10001e2c:	d1d2      	bne.n	10001dd4 <clock_configure_undivided+0x30>
10001e2e:	2403      	movs	r4, #3
10001e30:	f50c 5240 	add.w	r2, ip, #12288	@ 0x3000
10001e34:	6014      	str	r4, [r2, #0]
10001e36:	f8dc 2008 	ldr.w	r2, [ip, #8]
10001e3a:	07d2      	lsls	r2, r2, #31
10001e3c:	d5fb      	bpl.n	10001e36 <clock_configure_undivided+0x92>
10001e3e:	f8dc 2000 	ldr.w	r2, [ip]
10001e42:	4c0b      	ldr	r4, [pc, #44]	@ (10001e70 <clock_configure_undivided+0xcc>)
10001e44:	ea82 1246 	eor.w	r2, r2, r6, lsl #5
10001e48:	f002 02e0 	and.w	r2, r2, #224	@ 0xe0
10001e4c:	f50c 5680 	add.w	r6, ip, #4096	@ 0x1000
10001e50:	6032      	str	r2, [r6, #0]
10001e52:	2201      	movs	r2, #1
10001e54:	f8dc 5000 	ldr.w	r5, [ip]
10001e58:	404d      	eors	r5, r1
10001e5a:	f005 0503 	and.w	r5, r5, #3
10001e5e:	6035      	str	r5, [r6, #0]
10001e60:	fa02 f101 	lsl.w	r1, r2, r1
10001e64:	f8dc 2008 	ldr.w	r2, [ip, #8]
10001e68:	420a      	tst	r2, r1
10001e6a:	d0fb      	beq.n	10001e64 <clock_configure_undivided+0xc0>
10001e6c:	e7c6      	b.n	10001dfc <clock_configure_undivided+0x58>
10001e6e:	bf00      	nop
10001e70:	200004cc 	.word	0x200004cc

10001e74 <clock_get_hz>:
10001e74:	4b01      	ldr	r3, [pc, #4]	@ (10001e7c <clock_get_hz+0x8>)
10001e76:	f853 0020 	ldr.w	r0, [r3, r0, lsl #2]
10001e7a:	4770      	bx	lr
10001e7c:	200004cc 	.word	0x200004cc

10001e80 <set_sys_clock_pll>:
10001e80:	4b58      	ldr	r3, [pc, #352]	@ (10001fe4 <set_sys_clock_pll+0x164>)
10001e82:	e92d 43f0 	stmdb	sp!, {r4, r5, r6, r7, r8, r9, lr}
10001e86:	6c1c      	ldr	r4, [r3, #64]	@ 0x40
10001e88:	4617      	mov	r7, r2
10001e8a:	f5b4 3f80 	cmp.w	r4, #65536	@ 0x10000
10001e8e:	bf38      	it	cc
10001e90:	f44f 3280 	movcc.w	r2, #65536	@ 0x10000
10001e94:	b083      	sub	sp, #12
10001e96:	bf38      	it	cc
10001e98:	641a      	strcc	r2, [r3, #64]	@ 0x40
10001e9a:	2203      	movs	r2, #3
10001e9c:	4680      	mov	r8, r0
10001e9e:	460e      	mov	r6, r1
10001ea0:	4b51      	ldr	r3, [pc, #324]	@ (10001fe8 <set_sys_clock_pll+0x168>)
10001ea2:	4d50      	ldr	r5, [pc, #320]	@ (10001fe4 <set_sys_clock_pll+0x164>)
10001ea4:	63da      	str	r2, [r3, #60]	@ 0x3c
10001ea6:	6c6c      	ldr	r4, [r5, #68]	@ 0x44
10001ea8:	07e3      	lsls	r3, r4, #31
10001eaa:	d5fc      	bpl.n	10001ea6 <set_sys_clock_pll+0x26>
10001eac:	6beb      	ldr	r3, [r5, #60]	@ 0x3c
10001eae:	4a4f      	ldr	r2, [pc, #316]	@ (10001fec <set_sys_clock_pll+0x16c>)
10001eb0:	f083 0320 	eor.w	r3, r3, #32
10001eb4:	f003 03e0 	and.w	r3, r3, #224	@ 0xe0
10001eb8:	63d3      	str	r3, [r2, #60]	@ 0x3c
10001eba:	6beb      	ldr	r3, [r5, #60]	@ 0x3c
10001ebc:	4d49      	ldr	r5, [pc, #292]	@ (10001fe4 <set_sys_clock_pll+0x164>)
10001ebe:	f083 0301 	eor.w	r3, r3, #1
10001ec2:	f003 0303 	and.w	r3, r3, #3
10001ec6:	63d3      	str	r3, [r2, #60]	@ 0x3c
10001ec8:	6c6c      	ldr	r4, [r5, #68]	@ 0x44
10001eca:	07a4      	lsls	r4, r4, #30
10001ecc:	d5fc      	bpl.n	10001ec8 <set_sys_clock_pll+0x48>
10001ece:	f44f 6200 	mov.w	r2, #2048	@ 0x800
10001ed2:	f44f 3980 	mov.w	r9, #65536	@ 0x10000
10001ed6:	4b46      	ldr	r3, [pc, #280]	@ (10001ff0 <set_sys_clock_pll+0x170>)
10001ed8:	4c46      	ldr	r4, [pc, #280]	@ (10001ff4 <set_sys_clock_pll+0x174>)
10001eda:	63da      	str	r2, [r3, #60]	@ 0x3c
10001edc:	4b46      	ldr	r3, [pc, #280]	@ (10001ff8 <set_sys_clock_pll+0x178>)
10001ede:	4642      	mov	r2, r8
10001ee0:	6163      	str	r3, [r4, #20]
10001ee2:	2101      	movs	r1, #1
10001ee4:	4633      	mov	r3, r6
10001ee6:	f8c5 9040 	str.w	r9, [r5, #64]	@ 0x40
10001eea:	4844      	ldr	r0, [pc, #272]	@ (10001ffc <set_sys_clock_pll+0x17c>)
10001eec:	9700      	str	r7, [sp, #0]
10001eee:	f000 f957 	bl	100021a0 <pll_init>
10001ef2:	f44f 6100 	mov.w	r1, #2048	@ 0x800
10001ef6:	6b6b      	ldr	r3, [r5, #52]	@ 0x34
10001ef8:	fb07 f606 	mul.w	r6, r7, r6
10001efc:	454b      	cmp	r3, r9
10001efe:	bf38      	it	cc
10001f00:	f8c5 9034 	strcc.w	r9, [r5, #52]	@ 0x34
10001f04:	4b38      	ldr	r3, [pc, #224]	@ (10001fe8 <set_sys_clock_pll+0x168>)
10001f06:	6922      	ldr	r2, [r4, #16]
10001f08:	fbb8 f6f6 	udiv	r6, r8, r6
10001f0c:	6319      	str	r1, [r3, #48]	@ 0x30
10001f0e:	b13a      	cbz	r2, 10001f20 <set_sys_clock_pll+0xa0>
10001f10:	6963      	ldr	r3, [r4, #20]
10001f12:	fbb3 f3f2 	udiv	r3, r3, r2
10001f16:	3301      	adds	r3, #1
10001f18:	eb03 0343 	add.w	r3, r3, r3, lsl #1
10001f1c:	3b03      	subs	r3, #3
10001f1e:	d2fd      	bcs.n	10001f1c <set_sys_clock_pll+0x9c>
10001f20:	4930      	ldr	r1, [pc, #192]	@ (10001fe4 <set_sys_clock_pll+0x164>)
10001f22:	4a32      	ldr	r2, [pc, #200]	@ (10001fec <set_sys_clock_pll+0x16c>)
10001f24:	6b0b      	ldr	r3, [r1, #48]	@ 0x30
10001f26:	f003 03e0 	and.w	r3, r3, #224	@ 0xe0
10001f2a:	6313      	str	r3, [r2, #48]	@ 0x30
10001f2c:	6b0b      	ldr	r3, [r1, #48]	@ 0x30
10001f2e:	f083 0302 	eor.w	r3, r3, #2
10001f32:	f003 0303 	and.w	r3, r3, #3
10001f36:	6313      	str	r3, [r2, #48]	@ 0x30
10001f38:	6b8b      	ldr	r3, [r1, #56]	@ 0x38
10001f3a:	0758      	lsls	r0, r3, #29
10001f3c:	d5fc      	bpl.n	10001f38 <set_sys_clock_pll+0xb8>
10001f3e:	f44f 6500 	mov.w	r5, #2048	@ 0x800
10001f42:	f44f 3380 	mov.w	r3, #65536	@ 0x10000
10001f46:	4a2a      	ldr	r2, [pc, #168]	@ (10001ff0 <set_sys_clock_pll+0x170>)
10001f48:	6315      	str	r5, [r2, #48]	@ 0x30
10001f4a:	4a2d      	ldr	r2, [pc, #180]	@ (10002000 <set_sys_clock_pll+0x180>)
10001f4c:	634b      	str	r3, [r1, #52]	@ 0x34
10001f4e:	6122      	str	r2, [r4, #16]
10001f50:	6c0a      	ldr	r2, [r1, #64]	@ 0x40
10001f52:	429a      	cmp	r2, r3
10001f54:	f04f 0203 	mov.w	r2, #3
10001f58:	bf38      	it	cc
10001f5a:	640b      	strcc	r3, [r1, #64]	@ 0x40
10001f5c:	4b22      	ldr	r3, [pc, #136]	@ (10001fe8 <set_sys_clock_pll+0x168>)
10001f5e:	4921      	ldr	r1, [pc, #132]	@ (10001fe4 <set_sys_clock_pll+0x164>)
10001f60:	63da      	str	r2, [r3, #60]	@ 0x3c
10001f62:	6c4b      	ldr	r3, [r1, #68]	@ 0x44
10001f64:	07da      	lsls	r2, r3, #31
10001f66:	d5fc      	bpl.n	10001f62 <set_sys_clock_pll+0xe2>
10001f68:	6bcb      	ldr	r3, [r1, #60]	@ 0x3c
10001f6a:	4a20      	ldr	r2, [pc, #128]	@ (10001fec <set_sys_clock_pll+0x16c>)
10001f6c:	f003 03e0 	and.w	r3, r3, #224	@ 0xe0
10001f70:	63d3      	str	r3, [r2, #60]	@ 0x3c
10001f72:	6bcb      	ldr	r3, [r1, #60]	@ 0x3c
10001f74:	491b      	ldr	r1, [pc, #108]	@ (10001fe4 <set_sys_clock_pll+0x164>)
10001f76:	f083 0301 	eor.w	r3, r3, #1
10001f7a:	f003 0303 	and.w	r3, r3, #3
10001f7e:	63d3      	str	r3, [r2, #60]	@ 0x3c
10001f80:	6c4b      	ldr	r3, [r1, #68]	@ 0x44
10001f82:	079b      	lsls	r3, r3, #30
10001f84:	d5fc      	bpl.n	10001f80 <set_sys_clock_pll+0x100>
10001f86:	f44f 3380 	mov.w	r3, #65536	@ 0x10000
10001f8a:	f44f 6500 	mov.w	r5, #2048	@ 0x800
10001f8e:	4a18      	ldr	r2, [pc, #96]	@ (10001ff0 <set_sys_clock_pll+0x170>)
10001f90:	6166      	str	r6, [r4, #20]
10001f92:	63d5      	str	r5, [r2, #60]	@ 0x3c
10001f94:	640b      	str	r3, [r1, #64]	@ 0x40
10001f96:	6cca      	ldr	r2, [r1, #76]	@ 0x4c
10001f98:	429a      	cmp	r2, r3
10001f9a:	bf38      	it	cc
10001f9c:	64cb      	strcc	r3, [r1, #76]	@ 0x4c
10001f9e:	f44f 6100 	mov.w	r1, #2048	@ 0x800
10001fa2:	4b11      	ldr	r3, [pc, #68]	@ (10001fe8 <set_sys_clock_pll+0x168>)
10001fa4:	69a2      	ldr	r2, [r4, #24]
10001fa6:	6499      	str	r1, [r3, #72]	@ 0x48
10001fa8:	b13a      	cbz	r2, 10001fba <set_sys_clock_pll+0x13a>
10001faa:	6963      	ldr	r3, [r4, #20]
10001fac:	fbb3 f3f2 	udiv	r3, r3, r2
10001fb0:	3301      	adds	r3, #1
10001fb2:	eb03 0343 	add.w	r3, r3, r3, lsl #1
10001fb6:	3b03      	subs	r3, #3
10001fb8:	d2fd      	bcs.n	10001fb6 <set_sys_clock_pll+0x136>
10001fba:	f44f 6000 	mov.w	r0, #2048	@ 0x800
10001fbe:	f44f 3180 	mov.w	r1, #65536	@ 0x10000
10001fc2:	4a08      	ldr	r2, [pc, #32]	@ (10001fe4 <set_sys_clock_pll+0x164>)
10001fc4:	4d09      	ldr	r5, [pc, #36]	@ (10001fec <set_sys_clock_pll+0x16c>)
10001fc6:	6c93      	ldr	r3, [r2, #72]	@ 0x48
10001fc8:	f083 0340 	eor.w	r3, r3, #64	@ 0x40
10001fcc:	f003 03e0 	and.w	r3, r3, #224	@ 0xe0
10001fd0:	64ab      	str	r3, [r5, #72]	@ 0x48
10001fd2:	4b07      	ldr	r3, [pc, #28]	@ (10001ff0 <set_sys_clock_pll+0x170>)
10001fd4:	4d08      	ldr	r5, [pc, #32]	@ (10001ff8 <set_sys_clock_pll+0x178>)
10001fd6:	61a5      	str	r5, [r4, #24]
10001fd8:	6498      	str	r0, [r3, #72]	@ 0x48
10001fda:	64d1      	str	r1, [r2, #76]	@ 0x4c
10001fdc:	b003      	add	sp, #12
10001fde:	e8bd 83f0 	ldmia.w	sp!, {r4, r5, r6, r7, r8, r9, pc}
10001fe2:	bf00      	nop
10001fe4:	40010000 	.word	0x40010000
10001fe8:	40013000 	.word	0x40013000
10001fec:	40011000 	.word	0x40011000
10001ff0:	40012000 	.word	0x40012000
10001ff4:	200004cc 	.word	0x200004cc
10001ff8:	02dc6c00 	.word	0x02dc6c00
10001ffc:	40050000 	.word	0x40050000
10002000:	00b71b00 	.word	0x00b71b00

10002004 <check_sys_clock_khz>:
10002004:	e92d 4ff0 	stmdb	sp!, {r4, r5, r6, r7, r8, r9, sl, fp, lr}
10002008:	f44f 78a0 	mov.w	r8, #320	@ 0x140
1000200c:	4699      	mov	r9, r3
1000200e:	b085      	sub	sp, #20
10002010:	e9cd 1202 	strd	r1, r2, [sp, #8]
10002014:	4c5f      	ldr	r4, [pc, #380]	@ (10002194 <check_sys_clock_khz+0x190>)
10002016:	f8df a184 	ldr.w	sl, [pc, #388]	@ 1000219c <check_sys_clock_khz+0x198>
1000201a:	4554      	cmp	r4, sl
1000201c:	d90a      	bls.n	10002034 <check_sys_clock_khz+0x30>
1000201e:	f108 38ff 	add.w	r8, r8, #4294967295	@ 0xffffffff
10002022:	f5a4 543b 	sub.w	r4, r4, #11968	@ 0x2ec0
10002026:	f1b8 0f0f 	cmp.w	r8, #15
1000202a:	f1a4 0420 	sub.w	r4, r4, #32
1000202e:	d1f4      	bne.n	1000201a <check_sys_clock_khz+0x16>
10002030:	2000      	movs	r0, #0
10002032:	e069      	b.n	10002108 <check_sys_clock_khz+0x104>
10002034:	2307      	movs	r3, #7
10002036:	f504 2237 	add.w	r2, r4, #749568	@ 0xb7000
1000203a:	9401      	str	r4, [sp, #4]
1000203c:	fb03 f403 	mul.w	r4, r3, r3
10002040:	f502 72d8 	add.w	r2, r2, #432	@ 0x1b0
10002044:	fbb2 fef4 	udiv	lr, r2, r4
10002048:	4570      	cmp	r0, lr
1000204a:	f04f 0c01 	mov.w	ip, #1
1000204e:	f04f 0702 	mov.w	r7, #2
10002052:	f04f 0603 	mov.w	r6, #3
10002056:	f04f 0504 	mov.w	r5, #4
1000205a:	f04f 0105 	mov.w	r1, #5
1000205e:	d03f      	beq.n	100020e0 <check_sys_clock_khz+0xdc>
10002060:	f1b3 0e01 	subs.w	lr, r3, #1
10002064:	f000 8094 	beq.w	10002190 <check_sys_clock_khz+0x18c>
10002068:	fb0e f403 	mul.w	r4, lr, r3
1000206c:	fbb2 fbf4 	udiv	fp, r2, r4
10002070:	4558      	cmp	r0, fp
10002072:	d04c      	beq.n	1000210e <check_sys_clock_khz+0x10a>
10002074:	b319      	cbz	r1, 100020be <check_sys_clock_khz+0xba>
10002076:	fb01 f403 	mul.w	r4, r1, r3
1000207a:	fbb2 fbf4 	udiv	fp, r2, r4
1000207e:	4558      	cmp	r0, fp
10002080:	d04f      	beq.n	10002122 <check_sys_clock_khz+0x11e>
10002082:	b1e5      	cbz	r5, 100020be <check_sys_clock_khz+0xba>
10002084:	fb05 f403 	mul.w	r4, r5, r3
10002088:	fbb2 fbf4 	udiv	fp, r2, r4
1000208c:	4558      	cmp	r0, fp
1000208e:	d053      	beq.n	10002138 <check_sys_clock_khz+0x134>
10002090:	b1ae      	cbz	r6, 100020be <check_sys_clock_khz+0xba>
10002092:	fb06 f403 	mul.w	r4, r6, r3
10002096:	fbb2 fbf4 	udiv	fp, r2, r4
1000209a:	4558      	cmp	r0, fp
1000209c:	d057      	beq.n	1000214e <check_sys_clock_khz+0x14a>
1000209e:	b177      	cbz	r7, 100020be <check_sys_clock_khz+0xba>
100020a0:	fb07 f403 	mul.w	r4, r7, r3
100020a4:	fbb2 fbf4 	udiv	fp, r2, r4
100020a8:	4558      	cmp	r0, fp
100020aa:	d05b      	beq.n	10002164 <check_sys_clock_khz+0x160>
100020ac:	f1bc 0f00 	cmp.w	ip, #0
100020b0:	d005      	beq.n	100020be <check_sys_clock_khz+0xba>
100020b2:	fb0c f403 	mul.w	r4, ip, r3
100020b6:	fbb2 fbf4 	udiv	fp, r2, r4
100020ba:	4583      	cmp	fp, r0
100020bc:	d05d      	beq.n	1000217a <check_sys_clock_khz+0x176>
100020be:	4673      	mov	r3, lr
100020c0:	fb03 f403 	mul.w	r4, r3, r3
100020c4:	fbb2 fef4 	udiv	lr, r2, r4
100020c8:	4570      	cmp	r0, lr
100020ca:	f101 31ff 	add.w	r1, r1, #4294967295	@ 0xffffffff
100020ce:	f105 35ff 	add.w	r5, r5, #4294967295	@ 0xffffffff
100020d2:	f106 36ff 	add.w	r6, r6, #4294967295	@ 0xffffffff
100020d6:	f107 37ff 	add.w	r7, r7, #4294967295	@ 0xffffffff
100020da:	f10c 3cff 	add.w	ip, ip, #4294967295	@ 0xffffffff
100020de:	d1bf      	bne.n	10002060 <check_sys_clock_khz+0x5c>
100020e0:	fb04 2410 	mls	r4, r4, r0, r2
100020e4:	2c00      	cmp	r4, #0
100020e6:	d1bb      	bne.n	10002060 <check_sys_clock_khz+0x5c>
100020e8:	469e      	mov	lr, r3
100020ea:	464a      	mov	r2, r9
100020ec:	f8dd b008 	ldr.w	fp, [sp, #8]
100020f0:	f8dd 900c 	ldr.w	r9, [sp, #12]
100020f4:	2001      	movs	r0, #1
100020f6:	4928      	ldr	r1, [pc, #160]	@ (10002198 <check_sys_clock_khz+0x194>)
100020f8:	fb01 f108 	mul.w	r1, r1, r8
100020fc:	f8cb 1000 	str.w	r1, [fp]
10002100:	f8c9 3000 	str.w	r3, [r9]
10002104:	f8c2 e000 	str.w	lr, [r2]
10002108:	b005      	add	sp, #20
1000210a:	e8bd 8ff0 	ldmia.w	sp!, {r4, r5, r6, r7, r8, r9, sl, fp, pc}
1000210e:	fb04 2410 	mls	r4, r4, r0, r2
10002112:	2c00      	cmp	r4, #0
10002114:	d1ae      	bne.n	10002074 <check_sys_clock_khz+0x70>
10002116:	464a      	mov	r2, r9
10002118:	f8dd b008 	ldr.w	fp, [sp, #8]
1000211c:	f8dd 900c 	ldr.w	r9, [sp, #12]
10002120:	e7e8      	b.n	100020f4 <check_sys_clock_khz+0xf0>
10002122:	fb04 2410 	mls	r4, r4, r0, r2
10002126:	2c00      	cmp	r4, #0
10002128:	d1ab      	bne.n	10002082 <check_sys_clock_khz+0x7e>
1000212a:	464a      	mov	r2, r9
1000212c:	468e      	mov	lr, r1
1000212e:	f8dd b008 	ldr.w	fp, [sp, #8]
10002132:	f8dd 900c 	ldr.w	r9, [sp, #12]
10002136:	e7dd      	b.n	100020f4 <check_sys_clock_khz+0xf0>
10002138:	fb04 2410 	mls	r4, r4, r0, r2
1000213c:	2c00      	cmp	r4, #0
1000213e:	d1a7      	bne.n	10002090 <check_sys_clock_khz+0x8c>
10002140:	464a      	mov	r2, r9
10002142:	46ae      	mov	lr, r5
10002144:	f8dd b008 	ldr.w	fp, [sp, #8]
10002148:	f8dd 900c 	ldr.w	r9, [sp, #12]
1000214c:	e7d2      	b.n	100020f4 <check_sys_clock_khz+0xf0>
1000214e:	fb04 2410 	mls	r4, r4, r0, r2
10002152:	2c00      	cmp	r4, #0
10002154:	d1a3      	bne.n	1000209e <check_sys_clock_khz+0x9a>
10002156:	464a      	mov	r2, r9
10002158:	46b6      	mov	lr, r6
1000215a:	f8dd b008 	ldr.w	fp, [sp, #8]
1000215e:	f8dd 900c 	ldr.w	r9, [sp, #12]
10002162:	e7c7      	b.n	100020f4 <check_sys_clock_khz+0xf0>
10002164:	fb04 2410 	mls	r4, r4, r0, r2
10002168:	2c00      	cmp	r4, #0
1000216a:	d19f      	bne.n	100020ac <check_sys_clock_khz+0xa8>
1000216c:	464a      	mov	r2, r9
1000216e:	46be      	mov	lr, r7
10002170:	f8dd b008 	ldr.w	fp, [sp, #8]
10002174:	f8dd 900c 	ldr.w	r9, [sp, #12]
10002178:	e7bc      	b.n	100020f4 <check_sys_clock_khz+0xf0>
1000217a:	fb04 2410 	mls	r4, r4, r0, r2
1000217e:	2c00      	cmp	r4, #0
10002180:	d19d      	bne.n	100020be <check_sys_clock_khz+0xba>
10002182:	464a      	mov	r2, r9
10002184:	46e6      	mov	lr, ip
10002186:	f8dd b008 	ldr.w	fp, [sp, #8]
1000218a:	f8dd 900c 	ldr.w	r9, [sp, #12]
1000218e:	e7b1      	b.n	100020f4 <check_sys_clock_khz+0xf0>
10002190:	9c01      	ldr	r4, [sp, #4]
10002192:	e744      	b.n	1000201e <check_sys_clock_khz+0x1a>
10002194:	002f2650 	.word	0x002f2650
10002198:	00b71b00 	.word	0x00b71b00
1000219c:	000cf850 	.word	0x000cf850

100021a0 <pll_init>:
100021a0:	b470      	push	{r4, r5, r6}
100021a2:	9d03      	ldr	r5, [sp, #12]
100021a4:	6804      	ldr	r4, [r0, #0]
100021a6:	032d      	lsls	r5, r5, #12
100021a8:	ea45 4503 	orr.w	r5, r5, r3, lsl #16
100021ac:	4b1b      	ldr	r3, [pc, #108]	@ (1000221c <pll_init+0x7c>)
100021ae:	2c00      	cmp	r4, #0
100021b0:	fbb3 f3f1 	udiv	r3, r3, r1
100021b4:	fbb2 f6f3 	udiv	r6, r2, r3
100021b8:	db1f      	blt.n	100021fa <pll_init+0x5a>
100021ba:	4a19      	ldr	r2, [pc, #100]	@ (10002220 <pll_init+0x80>)
100021bc:	4b19      	ldr	r3, [pc, #100]	@ (10002224 <pll_init+0x84>)
100021be:	4290      	cmp	r0, r2
100021c0:	bf14      	ite	ne
100021c2:	f44f 4280 	movne.w	r2, #16384	@ 0x4000
100021c6:	f44f 4200 	moveq.w	r2, #32768	@ 0x8000
100021ca:	4c17      	ldr	r4, [pc, #92]	@ (10002228 <pll_init+0x88>)
100021cc:	601a      	str	r2, [r3, #0]
100021ce:	f503 5380 	add.w	r3, r3, #4096	@ 0x1000
100021d2:	601a      	str	r2, [r3, #0]
100021d4:	68a3      	ldr	r3, [r4, #8]
100021d6:	ea32 0303 	bics.w	r3, r2, r3
100021da:	d1fb      	bne.n	100021d4 <pll_init+0x34>
100021dc:	2221      	movs	r2, #33	@ 0x21
100021de:	f500 5340 	add.w	r3, r0, #12288	@ 0x3000
100021e2:	3304      	adds	r3, #4
100021e4:	6001      	str	r1, [r0, #0]
100021e6:	6086      	str	r6, [r0, #8]
100021e8:	601a      	str	r2, [r3, #0]
100021ea:	6802      	ldr	r2, [r0, #0]
100021ec:	2a00      	cmp	r2, #0
100021ee:	dafc      	bge.n	100021ea <pll_init+0x4a>
100021f0:	2208      	movs	r2, #8
100021f2:	60c5      	str	r5, [r0, #12]
100021f4:	601a      	str	r2, [r3, #0]
100021f6:	bc70      	pop	{r4, r5, r6}
100021f8:	4770      	bx	lr
100021fa:	6803      	ldr	r3, [r0, #0]
100021fc:	f003 033f 	and.w	r3, r3, #63	@ 0x3f
10002200:	428b      	cmp	r3, r1
10002202:	d1da      	bne.n	100021ba <pll_init+0x1a>
10002204:	6883      	ldr	r3, [r0, #8]
10002206:	f3c3 030b 	ubfx	r3, r3, #0, #12
1000220a:	42b3      	cmp	r3, r6
1000220c:	d1d5      	bne.n	100021ba <pll_init+0x1a>
1000220e:	68c3      	ldr	r3, [r0, #12]
10002210:	f403 23ee 	and.w	r3, r3, #487424	@ 0x77000
10002214:	42ab      	cmp	r3, r5
10002216:	d1d0      	bne.n	100021ba <pll_init+0x1a>
10002218:	e7ed      	b.n	100021f6 <pll_init+0x56>
1000221a:	bf00      	nop
1000221c:	00b71b00 	.word	0x00b71b00
10002220:	40058000 	.word	0x40058000
10002224:	40022000 	.word	0x40022000
10002228:	40020000 	.word	0x40020000

1000222c <tick_start>:
1000222c:	2301      	movs	r3, #1
1000222e:	eb00 0040 	add.w	r0, r0, r0, lsl #1
10002232:	0080      	lsls	r0, r0, #2
10002234:	f100 4080 	add.w	r0, r0, #1073741824	@ 0x40000000
10002238:	f500 1084 	add.w	r0, r0, #1081344	@ 0x108000
1000223c:	6041      	str	r1, [r0, #4]
1000223e:	6003      	str	r3, [r0, #0]
10002240:	4770      	bx	lr
10002242:	bf00      	nop

10002244 <rom_func_lookup>:
10002244:	2300      	movs	r3, #0
10002246:	8adb      	ldrh	r3, [r3, #22]
10002248:	2200      	movs	r2, #0
1000224a:	e842 f200 	tt	r2, r2
1000224e:	0252      	lsls	r2, r2, #9
10002250:	d401      	bmi.n	10002256 <rom_func_lookup+0x12>
10002252:	2110      	movs	r1, #16
10002254:	4718      	bx	r3
10002256:	2104      	movs	r1, #4
10002258:	4718      	bx	r3
1000225a:	bf00      	nop

1000225c <runtime_init_bootrom_locking_enable>:
1000225c:	4a03      	ldr	r2, [pc, #12]	@ (1000226c <runtime_init_bootrom_locking_enable+0x10>)
1000225e:	f8d2 3828 	ldr.w	r3, [r2, #2088]	@ 0x828
10002262:	2b00      	cmp	r3, #0
10002264:	d0fb      	beq.n	1000225e <runtime_init_bootrom_locking_enable+0x2>
10002266:	f3bf 8f5f 	dmb	sy
1000226a:	4770      	bx	lr
1000226c:	400e0000 	.word	0x400e0000

10002270 <runtime_init_boot_locks_reset>:
10002270:	2100      	movs	r1, #0
10002272:	4b04      	ldr	r3, [pc, #16]	@ (10002284 <runtime_init_boot_locks_reset+0x14>)
10002274:	4a04      	ldr	r2, [pc, #16]	@ (10002288 <runtime_init_boot_locks_reset+0x18>)
10002276:	f3bf 8f5f 	dmb	sy
1000227a:	f843 1b04 	str.w	r1, [r3], #4
1000227e:	4293      	cmp	r3, r2
10002280:	d1f9      	bne.n	10002276 <runtime_init_boot_locks_reset+0x6>
10002282:	4770      	bx	lr
10002284:	400e080c 	.word	0x400e080c
10002288:	400e082c 	.word	0x400e082c

1000228c <xosc_init>:
1000228c:	b410      	push	{r4}
1000228e:	f44f 708d 	mov.w	r0, #282	@ 0x11a
10002292:	f44f 642a 	mov.w	r4, #2720	@ 0xaa0
10002296:	4a06      	ldr	r2, [pc, #24]	@ (100022b0 <xosc_init+0x24>)
10002298:	4b06      	ldr	r3, [pc, #24]	@ (100022b4 <xosc_init+0x28>)
1000229a:	4907      	ldr	r1, [pc, #28]	@ (100022b8 <xosc_init+0x2c>)
1000229c:	6014      	str	r4, [r2, #0]
1000229e:	60d0      	str	r0, [r2, #12]
100022a0:	6019      	str	r1, [r3, #0]
100022a2:	6853      	ldr	r3, [r2, #4]
100022a4:	2b00      	cmp	r3, #0
100022a6:	dafc      	bge.n	100022a2 <xosc_init+0x16>
100022a8:	f85d 4b04 	ldr.w	r4, [sp], #4
100022ac:	4770      	bx	lr
100022ae:	bf00      	nop
100022b0:	40048000 	.word	0x40048000
100022b4:	4004a000 	.word	0x4004a000
100022b8:	00fab000 	.word	0x00fab000

100022bc <first_per_core_initializer>:
100022bc:	4770      	bx	lr
100022be:	bf00      	nop

100022c0 <hard_assertion_failure>:
100022c0:	b508      	push	{r3, lr}
100022c2:	4801      	ldr	r0, [pc, #4]	@ (100022c8 <hard_assertion_failure+0x8>)
100022c4:	f7ff f8d2 	bl	1000146c <panic>
100022c8:	10002e20 	.word	0x10002e20

100022cc <runtime_run_initializers>:
100022cc:	b538      	push	{r3, r4, r5, lr}
100022ce:	4c05      	ldr	r4, [pc, #20]	@ (100022e4 <runtime_run_initializers+0x18>)
100022d0:	4d05      	ldr	r5, [pc, #20]	@ (100022e8 <runtime_run_initializers+0x1c>)
100022d2:	42ac      	cmp	r4, r5
100022d4:	d204      	bcs.n	100022e0 <runtime_run_initializers+0x14>
100022d6:	f854 3b04 	ldr.w	r3, [r4], #4
100022da:	4798      	blx	r3
100022dc:	42ac      	cmp	r4, r5
100022de:	d3fa      	bcc.n	100022d6 <runtime_run_initializers+0xa>
100022e0:	bd38      	pop	{r3, r4, r5, pc}
100022e2:	bf00      	nop
100022e4:	10002c40 	.word	0x10002c40
100022e8:	10002c80 	.word	0x10002c80

100022ec <runtime_init_early_resets>:
100022ec:	b410      	push	{r4}
100022ee:	4807      	ldr	r0, [pc, #28]	@ (1000230c <runtime_init_early_resets+0x20>)
100022f0:	4c07      	ldr	r4, [pc, #28]	@ (10002310 <runtime_init_early_resets+0x24>)
100022f2:	4b08      	ldr	r3, [pc, #32]	@ (10002314 <runtime_init_early_resets+0x28>)
100022f4:	4a08      	ldr	r2, [pc, #32]	@ (10002318 <runtime_init_early_resets+0x2c>)
100022f6:	4909      	ldr	r1, [pc, #36]	@ (1000231c <runtime_init_early_resets+0x30>)
100022f8:	6004      	str	r4, [r0, #0]
100022fa:	601a      	str	r2, [r3, #0]
100022fc:	688b      	ldr	r3, [r1, #8]
100022fe:	ea32 0303 	bics.w	r3, r2, r3
10002302:	d1fb      	bne.n	100022fc <runtime_init_early_resets+0x10>
10002304:	f85d 4b04 	ldr.w	r4, [sp], #4
10002308:	4770      	bx	lr
1000230a:	bf00      	nop
1000230c:	40022000 	.word	0x40022000
10002310:	efef3b7f 	.word	0xefef3b7f
10002314:	40023000 	.word	0x40023000
10002318:	03f3fff6 	.word	0x03f3fff6
1000231c:	40020000 	.word	0x40020000

10002320 <runtime_init_usb_power_down>:
10002320:	4b04      	ldr	r3, [pc, #16]	@ (10002334 <runtime_init_usb_power_down+0x14>)
10002322:	6cdb      	ldr	r3, [r3, #76]	@ 0x4c
10002324:	f5b3 4f00 	cmp.w	r3, #32768	@ 0x8000
10002328:	d103      	bne.n	10002332 <runtime_init_usb_power_down+0x12>
1000232a:	f44f 2280 	mov.w	r2, #262144	@ 0x40000
1000232e:	4b02      	ldr	r3, [pc, #8]	@ (10002338 <runtime_init_usb_power_down+0x18>)
10002330:	64da      	str	r2, [r3, #76]	@ 0x4c
10002332:	4770      	bx	lr
10002334:	50110000 	.word	0x50110000
10002338:	50112000 	.word	0x50112000

1000233c <runtime_init_per_core_enable_coprocessors>:
1000233c:	f04f 22e0 	mov.w	r2, #3758153728	@ 0xe000e000
10002340:	4b04      	ldr	r3, [pc, #16]	@ (10002354 <runtime_init_per_core_enable_coprocessors+0x18>)
10002342:	f8d2 1d88 	ldr.w	r1, [r2, #3464]	@ 0xd88
10002346:	430b      	orrs	r3, r1
10002348:	f8c2 3d88 	str.w	r3, [r2, #3464]	@ 0xd88
1000234c:	ee10 0430 			dcp_rcmp r0
10002350:	4770      	bx	lr
10002352:	bf00      	nop
10002354:	00300303 	.word	0x00300303

10002358 <runtime_init_post_clock_resets>:
10002358:	f06f 4160 	mvn.w	r1, #3758096384	@ 0xe0000000
1000235c:	4b04      	ldr	r3, [pc, #16]	@ (10002370 <runtime_init_post_clock_resets+0x18>)
1000235e:	4a05      	ldr	r2, [pc, #20]	@ (10002374 <runtime_init_post_clock_resets+0x1c>)
10002360:	6019      	str	r1, [r3, #0]
10002362:	6893      	ldr	r3, [r2, #8]
10002364:	43db      	mvns	r3, r3
10002366:	f033 4360 	bics.w	r3, r3, #3758096384	@ 0xe0000000
1000236a:	d1fa      	bne.n	10002362 <runtime_init_post_clock_resets+0xa>
1000236c:	4770      	bx	lr
1000236e:	bf00      	nop
10002370:	40023000 	.word	0x40023000
10002374:	40020000 	.word	0x40020000

10002378 <runtime_init_bootrom_reset>:
10002378:	b510      	push	{r4, lr}
1000237a:	f245 2053 	movw	r0, #21075	@ 0x5253
1000237e:	f7ff ff61 	bl	10002244 <rom_func_lookup>
10002382:	e8bd 4010 	ldmia.w	sp!, {r4, lr}
10002386:	4603      	mov	r3, r0
10002388:	2004      	movs	r0, #4
1000238a:	4718      	bx	r3

1000238c <runtime_init_per_core_bootrom_reset>:
1000238c:	b510      	push	{r4, lr}
1000238e:	f245 2053 	movw	r0, #21075	@ 0x5253
10002392:	f7ff ff57 	bl	10002244 <rom_func_lookup>
10002396:	e8bd 4010 	ldmia.w	sp!, {r4, lr}
1000239a:	4603      	mov	r3, r0
1000239c:	2001      	movs	r0, #1
1000239e:	4718      	bx	r3

100023a0 <runtime_init_spin_locks_reset>:
100023a0:	f7ff b918 	b.w	100015d4 <spin_locks_reset>

100023a4 <runtime_init_install_ram_vector_table>:
100023a4:	4914      	ldr	r1, [pc, #80]	@ (100023f8 <runtime_init_install_ram_vector_table+0x54>)
100023a6:	4b15      	ldr	r3, [pc, #84]	@ (100023fc <runtime_init_install_ram_vector_table+0x58>)
100023a8:	b570      	push	{r4, r5, r6, lr}
100023aa:	1a5c      	subs	r4, r3, r1
100023ac:	10a6      	asrs	r6, r4, #2
100023ae:	2e44      	cmp	r6, #68	@ 0x44
100023b0:	4632      	mov	r2, r6
100023b2:	bf28      	it	cs
100023b4:	2244      	movcs	r2, #68	@ 0x44
100023b6:	4d12      	ldr	r5, [pc, #72]	@ (10002400 <runtime_init_install_ram_vector_table+0x5c>)
100023b8:	0092      	lsls	r2, r2, #2
100023ba:	4628      	mov	r0, r5
100023bc:	f000 fb92 	bl	10002ae4 <memcpy>
100023c0:	f5b4 7f86 	cmp.w	r4, #268	@ 0x10c
100023c4:	d813      	bhi.n	100023ee <runtime_init_install_ram_vector_table+0x4a>
100023c6:	4a0f      	ldr	r2, [pc, #60]	@ (10002404 <runtime_init_install_ram_vector_table+0x60>)
100023c8:	f1c6 0044 	rsb	r0, r6, #68	@ 0x44
100023cc:	d012      	beq.n	100023f4 <runtime_init_install_ram_vector_table+0x50>
100023ce:	192b      	adds	r3, r5, r4
100023d0:	0841      	lsrs	r1, r0, #1
100023d2:	eb03 01c1 	add.w	r1, r3, r1, lsl #3
100023d6:	e9c3 2200 	strd	r2, r2, [r3]
100023da:	3308      	adds	r3, #8
100023dc:	428b      	cmp	r3, r1
100023de:	d1fa      	bne.n	100023d6 <runtime_init_install_ram_vector_table+0x32>
100023e0:	07c3      	lsls	r3, r0, #31
100023e2:	d504      	bpl.n	100023ee <runtime_init_install_ram_vector_table+0x4a>
100023e4:	f020 0001 	bic.w	r0, r0, #1
100023e8:	4430      	add	r0, r6
100023ea:	f845 2020 	str.w	r2, [r5, r0, lsl #2]
100023ee:	4b06      	ldr	r3, [pc, #24]	@ (10002408 <runtime_init_install_ram_vector_table+0x64>)
100023f0:	609d      	str	r5, [r3, #8]
100023f2:	bd70      	pop	{r4, r5, r6, pc}
100023f4:	2043      	movs	r0, #67	@ 0x43
100023f6:	e7f8      	b.n	100023ea <runtime_init_install_ram_vector_table+0x46>
100023f8:	10000000 	.word	0x10000000
100023fc:	10000110 	.word	0x10000110
10002400:	20000000 	.word	0x20000000
10002404:	10000111 	.word	0x10000111
10002408:	e000ed00 	.word	0xe000ed00

1000240c <runtime_init_clocks>:
1000240c:	2300      	movs	r3, #0
1000240e:	b570      	push	{r4, r5, r6, lr}
10002410:	4c2b      	ldr	r4, [pc, #172]	@ (100024c0 <runtime_init_clocks+0xb4>)
10002412:	b082      	sub	sp, #8
10002414:	f8c4 3084 	str.w	r3, [r4, #132]	@ 0x84
10002418:	f7ff ff38 	bl	1000228c <xosc_init>
1000241c:	2201      	movs	r2, #1
1000241e:	4b29      	ldr	r3, [pc, #164]	@ (100024c4 <runtime_init_clocks+0xb8>)
10002420:	63da      	str	r2, [r3, #60]	@ 0x3c
10002422:	6c63      	ldr	r3, [r4, #68]	@ 0x44
10002424:	2b01      	cmp	r3, #1
10002426:	d1fc      	bne.n	10002422 <runtime_init_clocks+0x16>
10002428:	2103      	movs	r1, #3
1000242a:	4a26      	ldr	r2, [pc, #152]	@ (100024c4 <runtime_init_clocks+0xb8>)
1000242c:	4b24      	ldr	r3, [pc, #144]	@ (100024c0 <runtime_init_clocks+0xb4>)
1000242e:	6311      	str	r1, [r2, #48]	@ 0x30
10002430:	6b9c      	ldr	r4, [r3, #56]	@ 0x38
10002432:	2c01      	cmp	r4, #1
10002434:	d1fc      	bne.n	10002430 <runtime_init_clocks+0x24>
10002436:	2602      	movs	r6, #2
10002438:	2505      	movs	r5, #5
1000243a:	4621      	mov	r1, r4
1000243c:	2305      	movs	r3, #5
1000243e:	4a22      	ldr	r2, [pc, #136]	@ (100024c8 <runtime_init_clocks+0xbc>)
10002440:	4822      	ldr	r0, [pc, #136]	@ (100024cc <runtime_init_clocks+0xc0>)
10002442:	9600      	str	r6, [sp, #0]
10002444:	f7ff feac 	bl	100021a0 <pll_init>
10002448:	4621      	mov	r1, r4
1000244a:	462b      	mov	r3, r5
1000244c:	4a20      	ldr	r2, [pc, #128]	@ (100024d0 <runtime_init_clocks+0xc4>)
1000244e:	4821      	ldr	r0, [pc, #132]	@ (100024d4 <runtime_init_clocks+0xc8>)
10002450:	9500      	str	r5, [sp, #0]
10002452:	f7ff fea5 	bl	100021a0 <pll_init>
10002456:	2200      	movs	r2, #0
10002458:	2004      	movs	r0, #4
1000245a:	4631      	mov	r1, r6
1000245c:	4b1e      	ldr	r3, [pc, #120]	@ (100024d8 <runtime_init_clocks+0xcc>)
1000245e:	f7ff fca1 	bl	10001da4 <clock_configure_undivided>
10002462:	4621      	mov	r1, r4
10002464:	4628      	mov	r0, r5
10002466:	2200      	movs	r2, #0
10002468:	4b1c      	ldr	r3, [pc, #112]	@ (100024dc <runtime_init_clocks+0xd0>)
1000246a:	f7ff fc9b 	bl	10001da4 <clock_configure_undivided>
1000246e:	2200      	movs	r2, #0
10002470:	2008      	movs	r0, #8
10002472:	4611      	mov	r1, r2
10002474:	4b1a      	ldr	r3, [pc, #104]	@ (100024e0 <runtime_init_clocks+0xd4>)
10002476:	f7ff fc95 	bl	10001da4 <clock_configure_undivided>
1000247a:	2200      	movs	r2, #0
1000247c:	2009      	movs	r0, #9
1000247e:	4611      	mov	r1, r2
10002480:	4b17      	ldr	r3, [pc, #92]	@ (100024e0 <runtime_init_clocks+0xd4>)
10002482:	f7ff fc8f 	bl	10001da4 <clock_configure_undivided>
10002486:	2200      	movs	r2, #0
10002488:	2006      	movs	r0, #6
1000248a:	4611      	mov	r1, r2
1000248c:	4b13      	ldr	r3, [pc, #76]	@ (100024dc <runtime_init_clocks+0xd0>)
1000248e:	f7ff fc89 	bl	10001da4 <clock_configure_undivided>
10002492:	2200      	movs	r2, #0
10002494:	4b11      	ldr	r3, [pc, #68]	@ (100024dc <runtime_init_clocks+0xd0>)
10002496:	2007      	movs	r0, #7
10002498:	4611      	mov	r1, r2
1000249a:	f7ff fc83 	bl	10001da4 <clock_configure_undivided>
1000249e:	2004      	movs	r0, #4
100024a0:	f7ff fce8 	bl	10001e74 <clock_get_hz>
100024a4:	2400      	movs	r4, #0
100024a6:	4b0f      	ldr	r3, [pc, #60]	@ (100024e4 <runtime_init_clocks+0xd8>)
100024a8:	fba3 3500 	umull	r3, r5, r3, r0
100024ac:	0cad      	lsrs	r5, r5, #18
100024ae:	b2e0      	uxtb	r0, r4
100024b0:	4629      	mov	r1, r5
100024b2:	3401      	adds	r4, #1
100024b4:	f7ff feba 	bl	1000222c <tick_start>
100024b8:	2c06      	cmp	r4, #6
100024ba:	d1f8      	bne.n	100024ae <runtime_init_clocks+0xa2>
100024bc:	b002      	add	sp, #8
100024be:	bd70      	pop	{r4, r5, r6, pc}
100024c0:	40010000 	.word	0x40010000
100024c4:	40013000 	.word	0x40013000
100024c8:	59682f00 	.word	0x59682f00
100024cc:	40050000 	.word	0x40050000
100024d0:	47868c00 	.word	0x47868c00
100024d4:	40058000 	.word	0x40058000
100024d8:	00b71b00 	.word	0x00b71b00
100024dc:	08f0d180 	.word	0x08f0d180
100024e0:	02dc6c00 	.word	0x02dc6c00
100024e4:	431bde83 	.word	0x431bde83

100024e8 <_out_char>:
100024e8:	b900      	cbnz	r0, 100024ec <_out_char+0x4>
100024ea:	4770      	bx	lr
100024ec:	f000 b904 	b.w	100026f8 <__wrap_putchar>

100024f0 <weak_raw_vprintf>:
100024f0:	b510      	push	{r4, lr}
100024f2:	4b09      	ldr	r3, [pc, #36]	@ (10002518 <weak_raw_vprintf+0x28>)
100024f4:	b084      	sub	sp, #16
100024f6:	681c      	ldr	r4, [r3, #0]
100024f8:	b14c      	cbz	r4, 1000250e <weak_raw_vprintf+0x1e>
100024fa:	4603      	mov	r3, r0
100024fc:	9100      	str	r1, [sp, #0]
100024fe:	f04f 32ff 	mov.w	r2, #4294967295	@ 0xffffffff
10002502:	a903      	add	r1, sp, #12
10002504:	4805      	ldr	r0, [pc, #20]	@ (1000251c <weak_raw_vprintf+0x2c>)
10002506:	47a0      	blx	r4
10002508:	2001      	movs	r0, #1
1000250a:	b004      	add	sp, #16
1000250c:	bd10      	pop	{r4, pc}
1000250e:	f000 f935 	bl	1000277c <__wrap_puts>
10002512:	4620      	mov	r0, r4
10002514:	b004      	add	sp, #16
10002516:	bd10      	pop	{r4, pc}
10002518:	20000504 	.word	0x20000504
1000251c:	100024e9 	.word	0x100024e9

10002520 <_exit>:
10002520:	be00      	bkpt	0x0000
10002522:	e7fd      	b.n	10002520 <_exit>

10002524 <exit>:
10002524:	b508      	push	{r3, lr}
10002526:	f7ff fffb 	bl	10002520 <_exit>
1000252a:	bf00      	nop

1000252c <runtime_init>:
1000252c:	b538      	push	{r3, r4, r5, lr}
1000252e:	4c06      	ldr	r4, [pc, #24]	@ (10002548 <runtime_init+0x1c>)
10002530:	4d06      	ldr	r5, [pc, #24]	@ (1000254c <runtime_init+0x20>)
10002532:	f7ff fecb 	bl	100022cc <runtime_run_initializers>
10002536:	42ac      	cmp	r4, r5
10002538:	d204      	bcs.n	10002544 <runtime_init+0x18>
1000253a:	f854 3b04 	ldr.w	r3, [r4], #4
1000253e:	4798      	blx	r3
10002540:	42ac      	cmp	r4, r5
10002542:	d3fa      	bcc.n	1000253a <runtime_init+0xe>
10002544:	bd38      	pop	{r3, r4, r5, pc}
10002546:	bf00      	nop
10002548:	10002c80 	.word	0x10002c80
1000254c:	10002c84 	.word	0x10002c84

10002550 <stdio_out_chars_no_crlf>:
10002550:	6803      	ldr	r3, [r0, #0]
10002552:	4608      	mov	r0, r1
10002554:	4611      	mov	r1, r2
10002556:	4718      	bx	r3

10002558 <stdio_out_chars_crlf>:
10002558:	e92d 41f0 	stmdb	sp!, {r4, r5, r6, r7, r8, lr}
1000255c:	4615      	mov	r5, r2
1000255e:	7d42      	ldrb	r2, [r0, #21]
10002560:	4607      	mov	r7, r0
10002562:	4688      	mov	r8, r1
10002564:	2a00      	cmp	r2, #0
10002566:	d046      	beq.n	100025f6 <stdio_out_chars_crlf+0x9e>
10002568:	2d00      	cmp	r5, #0
1000256a:	dd1d      	ble.n	100025a8 <stdio_out_chars_crlf+0x50>
1000256c:	780b      	ldrb	r3, [r1, #0]
1000256e:	2b0a      	cmp	r3, #10
10002570:	d023      	beq.n	100025ba <stdio_out_chars_crlf+0x62>
10002572:	2d01      	cmp	r5, #1
10002574:	f04f 0c00 	mov.w	ip, #0
10002578:	d018      	beq.n	100025ac <stdio_out_chars_crlf+0x54>
1000257a:	4646      	mov	r6, r8
1000257c:	2401      	movs	r4, #1
1000257e:	f816 2f01 	ldrb.w	r2, [r6, #1]!
10002582:	4621      	mov	r1, r4
10002584:	2a0a      	cmp	r2, #10
10002586:	f104 0401 	add.w	r4, r4, #1
1000258a:	d022      	beq.n	100025d2 <stdio_out_chars_crlf+0x7a>
1000258c:	42a5      	cmp	r5, r4
1000258e:	d1f6      	bne.n	1000257e <stdio_out_chars_crlf+0x26>
10002590:	4565      	cmp	r5, ip
10002592:	dc0b      	bgt.n	100025ac <stdio_out_chars_crlf+0x54>
10002594:	eb08 0305 	add.w	r3, r8, r5
10002598:	f813 3c01 	ldrb.w	r3, [r3, #-1]
1000259c:	f1a3 030d 	sub.w	r3, r3, #13
100025a0:	fab3 f383 	clz	r3, r3
100025a4:	095b      	lsrs	r3, r3, #5
100025a6:	753b      	strb	r3, [r7, #20]
100025a8:	e8bd 81f0 	ldmia.w	sp!, {r4, r5, r6, r7, r8, pc}
100025ac:	683b      	ldr	r3, [r7, #0]
100025ae:	eba5 010c 	sub.w	r1, r5, ip
100025b2:	eb08 000c 	add.w	r0, r8, ip
100025b6:	4798      	blx	r3
100025b8:	e7ec      	b.n	10002594 <stdio_out_chars_crlf+0x3c>
100025ba:	7d03      	ldrb	r3, [r0, #20]
100025bc:	2b00      	cmp	r3, #0
100025be:	d1d8      	bne.n	10002572 <stdio_out_chars_crlf+0x1a>
100025c0:	6803      	ldr	r3, [r0, #0]
100025c2:	2102      	movs	r1, #2
100025c4:	480f      	ldr	r0, [pc, #60]	@ (10002604 <stdio_out_chars_crlf+0xac>)
100025c6:	4798      	blx	r3
100025c8:	2d01      	cmp	r5, #1
100025ca:	d0e3      	beq.n	10002594 <stdio_out_chars_crlf+0x3c>
100025cc:	f04f 0c01 	mov.w	ip, #1
100025d0:	e7d3      	b.n	1000257a <stdio_out_chars_crlf+0x22>
100025d2:	f816 3c01 	ldrb.w	r3, [r6, #-1]
100025d6:	2b0d      	cmp	r3, #13
100025d8:	d0d8      	beq.n	1000258c <stdio_out_chars_crlf+0x34>
100025da:	458c      	cmp	ip, r1
100025dc:	eb08 000c 	add.w	r0, r8, ip
100025e0:	eba1 010c 	sub.w	r1, r1, ip
100025e4:	da01      	bge.n	100025ea <stdio_out_chars_crlf+0x92>
100025e6:	683b      	ldr	r3, [r7, #0]
100025e8:	4798      	blx	r3
100025ea:	2102      	movs	r1, #2
100025ec:	4805      	ldr	r0, [pc, #20]	@ (10002604 <stdio_out_chars_crlf+0xac>)
100025ee:	683b      	ldr	r3, [r7, #0]
100025f0:	4798      	blx	r3
100025f2:	46a4      	mov	ip, r4
100025f4:	e7ca      	b.n	1000258c <stdio_out_chars_crlf+0x34>
100025f6:	4629      	mov	r1, r5
100025f8:	4640      	mov	r0, r8
100025fa:	683b      	ldr	r3, [r7, #0]
100025fc:	e8bd 41f0 	ldmia.w	sp!, {r4, r5, r6, r7, r8, lr}
10002600:	4718      	bx	r3
10002602:	bf00      	nop
10002604:	10003c50 	.word	0x10003c50

10002608 <stdio_put_string>:
10002608:	e92d 47f0 	stmdb	sp!, {r4, r5, r6, r7, r8, r9, sl, lr}
1000260c:	b082      	sub	sp, #8
1000260e:	460d      	mov	r5, r1
10002610:	4691      	mov	r9, r2
10002612:	461c      	mov	r4, r3
10002614:	4606      	mov	r6, r0
10002616:	f7ff fbbb 	bl	10001d90 <time_us_64>
1000261a:	f04f 3cff 	mov.w	ip, #4294967295	@ 0xffffffff
1000261e:	f06f 4700 	mvn.w	r7, #2147483648	@ 0x80000000
10002622:	4a2e      	ldr	r2, [pc, #184]	@ (100026dc <stdio_put_string+0xd4>)
10002624:	1882      	adds	r2, r0, r2
10002626:	f141 0300 	adc.w	r3, r1, #0
1000262a:	4594      	cmp	ip, r2
1000262c:	eb77 0103 	sbcs.w	r1, r7, r3
10002630:	bf3c      	itt	cc
10002632:	4662      	movcc	r2, ip
10002634:	463b      	movcc	r3, r7
10002636:	482a      	ldr	r0, [pc, #168]	@ (100026e0 <stdio_put_string+0xd8>)
10002638:	f000 fafe 	bl	10002c38 <__mutex_try_enter_block_until_veneer>
1000263c:	1c6b      	adds	r3, r5, #1
1000263e:	4680      	mov	r8, r0
10002640:	d040      	beq.n	100026c4 <stdio_put_string+0xbc>
10002642:	b30c      	cbz	r4, 10002688 <stdio_put_string+0x80>
10002644:	4f27      	ldr	r7, [pc, #156]	@ (100026e4 <stdio_put_string+0xdc>)
10002646:	4b28      	ldr	r3, [pc, #160]	@ (100026e8 <stdio_put_string+0xe0>)
10002648:	681c      	ldr	r4, [r3, #0]
1000264a:	b1b4      	cbz	r4, 1000267a <stdio_put_string+0x72>
1000264c:	f1b9 0f00 	cmp.w	r9, #0
10002650:	d11c      	bne.n	1000268c <stdio_put_string+0x84>
10002652:	f8df 909c 	ldr.w	r9, [pc, #156]	@ 100026f0 <stdio_put_string+0xe8>
10002656:	e001      	b.n	1000265c <stdio_put_string+0x54>
10002658:	6924      	ldr	r4, [r4, #16]
1000265a:	b174      	cbz	r4, 1000267a <stdio_put_string+0x72>
1000265c:	6823      	ldr	r3, [r4, #0]
1000265e:	2b00      	cmp	r3, #0
10002660:	d0fa      	beq.n	10002658 <stdio_put_string+0x50>
10002662:	f8d9 3000 	ldr.w	r3, [r9]
10002666:	b10b      	cbz	r3, 1000266c <stdio_put_string+0x64>
10002668:	429c      	cmp	r4, r3
1000266a:	d1f5      	bne.n	10002658 <stdio_put_string+0x50>
1000266c:	4620      	mov	r0, r4
1000266e:	462a      	mov	r2, r5
10002670:	4631      	mov	r1, r6
10002672:	47b8      	blx	r7
10002674:	6924      	ldr	r4, [r4, #16]
10002676:	2c00      	cmp	r4, #0
10002678:	d1f0      	bne.n	1000265c <stdio_put_string+0x54>
1000267a:	f1b8 0f00 	cmp.w	r8, #0
1000267e:	d126      	bne.n	100026ce <stdio_put_string+0xc6>
10002680:	4628      	mov	r0, r5
10002682:	b002      	add	sp, #8
10002684:	e8bd 87f0 	ldmia.w	sp!, {r4, r5, r6, r7, r8, r9, sl, pc}
10002688:	4f18      	ldr	r7, [pc, #96]	@ (100026ec <stdio_put_string+0xe4>)
1000268a:	e7dc      	b.n	10002646 <stdio_put_string+0x3e>
1000268c:	f04f 0a0a 	mov.w	sl, #10
10002690:	f8df 905c 	ldr.w	r9, [pc, #92]	@ 100026f0 <stdio_put_string+0xe8>
10002694:	e002      	b.n	1000269c <stdio_put_string+0x94>
10002696:	6924      	ldr	r4, [r4, #16]
10002698:	2c00      	cmp	r4, #0
1000269a:	d0ee      	beq.n	1000267a <stdio_put_string+0x72>
1000269c:	6823      	ldr	r3, [r4, #0]
1000269e:	2b00      	cmp	r3, #0
100026a0:	d0f9      	beq.n	10002696 <stdio_put_string+0x8e>
100026a2:	f8d9 3000 	ldr.w	r3, [r9]
100026a6:	b10b      	cbz	r3, 100026ac <stdio_put_string+0xa4>
100026a8:	42a3      	cmp	r3, r4
100026aa:	d1f4      	bne.n	10002696 <stdio_put_string+0x8e>
100026ac:	462a      	mov	r2, r5
100026ae:	4631      	mov	r1, r6
100026b0:	4620      	mov	r0, r4
100026b2:	47b8      	blx	r7
100026b4:	2201      	movs	r2, #1
100026b6:	4620      	mov	r0, r4
100026b8:	f10d 0107 	add.w	r1, sp, #7
100026bc:	f88d a007 	strb.w	sl, [sp, #7]
100026c0:	47b8      	blx	r7
100026c2:	e7e8      	b.n	10002696 <stdio_put_string+0x8e>
100026c4:	4630      	mov	r0, r6
100026c6:	f000 fa83 	bl	10002bd0 <strlen>
100026ca:	4605      	mov	r5, r0
100026cc:	e7b9      	b.n	10002642 <stdio_put_string+0x3a>
100026ce:	4804      	ldr	r0, [pc, #16]	@ (100026e0 <stdio_put_string+0xd8>)
100026d0:	f000 faae 	bl	10002c30 <__mutex_exit_veneer>
100026d4:	4628      	mov	r0, r5
100026d6:	b002      	add	sp, #8
100026d8:	e8bd 87f0 	ldmia.w	sp!, {r4, r5, r6, r7, r8, r9, sl, pc}
100026dc:	000f4240 	.word	0x000f4240
100026e0:	20000250 	.word	0x20000250
100026e4:	10002559 	.word	0x10002559
100026e8:	200004f4 	.word	0x200004f4
100026ec:	10002551 	.word	0x10002551
100026f0:	200004f8 	.word	0x200004f8

100026f4 <stdio_init_all>:
100026f4:	2000      	movs	r0, #0
100026f6:	4770      	bx	lr

100026f8 <__wrap_putchar>:
100026f8:	b5f0      	push	{r4, r5, r6, r7, lr}
100026fa:	b083      	sub	sp, #12
100026fc:	4606      	mov	r6, r0
100026fe:	f88d 0007 	strb.w	r0, [sp, #7]
10002702:	f7ff fb45 	bl	10001d90 <time_us_64>
10002706:	f04f 35ff 	mov.w	r5, #4294967295	@ 0xffffffff
1000270a:	f06f 4400 	mvn.w	r4, #2147483648	@ 0x80000000
1000270e:	4a17      	ldr	r2, [pc, #92]	@ (1000276c <__wrap_putchar+0x74>)
10002710:	1882      	adds	r2, r0, r2
10002712:	f141 0300 	adc.w	r3, r1, #0
10002716:	4295      	cmp	r5, r2
10002718:	eb74 0103 	sbcs.w	r1, r4, r3
1000271c:	bf3c      	itt	cc
1000271e:	4623      	movcc	r3, r4
10002720:	462a      	movcc	r2, r5
10002722:	4813      	ldr	r0, [pc, #76]	@ (10002770 <__wrap_putchar+0x78>)
10002724:	f000 fa88 	bl	10002c38 <__mutex_try_enter_block_until_veneer>
10002728:	4b12      	ldr	r3, [pc, #72]	@ (10002774 <__wrap_putchar+0x7c>)
1000272a:	4607      	mov	r7, r0
1000272c:	681c      	ldr	r4, [r3, #0]
1000272e:	b19c      	cbz	r4, 10002758 <__wrap_putchar+0x60>
10002730:	4d11      	ldr	r5, [pc, #68]	@ (10002778 <__wrap_putchar+0x80>)
10002732:	e001      	b.n	10002738 <__wrap_putchar+0x40>
10002734:	6924      	ldr	r4, [r4, #16]
10002736:	b17c      	cbz	r4, 10002758 <__wrap_putchar+0x60>
10002738:	6823      	ldr	r3, [r4, #0]
1000273a:	2b00      	cmp	r3, #0
1000273c:	d0fa      	beq.n	10002734 <__wrap_putchar+0x3c>
1000273e:	682b      	ldr	r3, [r5, #0]
10002740:	b10b      	cbz	r3, 10002746 <__wrap_putchar+0x4e>
10002742:	429c      	cmp	r4, r3
10002744:	d1f6      	bne.n	10002734 <__wrap_putchar+0x3c>
10002746:	4620      	mov	r0, r4
10002748:	2201      	movs	r2, #1
1000274a:	f10d 0107 	add.w	r1, sp, #7
1000274e:	f7ff ff03 	bl	10002558 <stdio_out_chars_crlf>
10002752:	6924      	ldr	r4, [r4, #16]
10002754:	2c00      	cmp	r4, #0
10002756:	d1ef      	bne.n	10002738 <__wrap_putchar+0x40>
10002758:	b917      	cbnz	r7, 10002760 <__wrap_putchar+0x68>
1000275a:	4630      	mov	r0, r6
1000275c:	b003      	add	sp, #12
1000275e:	bdf0      	pop	{r4, r5, r6, r7, pc}
10002760:	4803      	ldr	r0, [pc, #12]	@ (10002770 <__wrap_putchar+0x78>)
10002762:	f000 fa65 	bl	10002c30 <__mutex_exit_veneer>
10002766:	4630      	mov	r0, r6
10002768:	b003      	add	sp, #12
1000276a:	bdf0      	pop	{r4, r5, r6, r7, pc}
1000276c:	000f4240 	.word	0x000f4240
10002770:	20000250 	.word	0x20000250
10002774:	200004f4 	.word	0x200004f4
10002778:	200004f8 	.word	0x200004f8

1000277c <__wrap_puts>:
1000277c:	b538      	push	{r3, r4, r5, lr}
1000277e:	4604      	mov	r4, r0
10002780:	f000 fa26 	bl	10002bd0 <strlen>
10002784:	2301      	movs	r3, #1
10002786:	4605      	mov	r5, r0
10002788:	461a      	mov	r2, r3
1000278a:	4620      	mov	r0, r4
1000278c:	4629      	mov	r1, r5
1000278e:	f7ff ff3b 	bl	10002608 <stdio_put_string>
10002792:	4b08      	ldr	r3, [pc, #32]	@ (100027b4 <__wrap_puts+0x38>)
10002794:	681c      	ldr	r4, [r3, #0]
10002796:	b12c      	cbz	r4, 100027a4 <__wrap_puts+0x28>
10002798:	6863      	ldr	r3, [r4, #4]
1000279a:	b12b      	cbz	r3, 100027a8 <__wrap_puts+0x2c>
1000279c:	4798      	blx	r3
1000279e:	6924      	ldr	r4, [r4, #16]
100027a0:	2c00      	cmp	r4, #0
100027a2:	d1f9      	bne.n	10002798 <__wrap_puts+0x1c>
100027a4:	4628      	mov	r0, r5
100027a6:	bd38      	pop	{r3, r4, r5, pc}
100027a8:	6924      	ldr	r4, [r4, #16]
100027aa:	2c00      	cmp	r4, #0
100027ac:	d1f4      	bne.n	10002798 <__wrap_puts+0x1c>
100027ae:	4628      	mov	r0, r5
100027b0:	bd38      	pop	{r3, r4, r5, pc}
100027b2:	bf00      	nop
100027b4:	200004f4 	.word	0x200004f4

100027b8 <pio_sm_claim>:
100027b8:	f100 402f 	add.w	r0, r0, #2936012800	@ 0xaf000000
100027bc:	f500 0060 	add.w	r0, r0, #14680064	@ 0xe00000
100027c0:	0d03      	lsrs	r3, r0, #20
100027c2:	2b02      	cmp	r3, #2
100027c4:	d00d      	beq.n	100027e2 <pio_sm_claim+0x2a>
100027c6:	2b01      	cmp	r3, #1
100027c8:	d005      	beq.n	100027d6 <pio_sm_claim+0x1e>
100027ca:	4a09      	ldr	r2, [pc, #36]	@ (100027f0 <pio_sm_claim+0x38>)
100027cc:	4809      	ldr	r0, [pc, #36]	@ (100027f4 <pio_sm_claim+0x3c>)
100027ce:	eb01 0183 	add.w	r1, r1, r3, lsl #2
100027d2:	f7fe be7f 	b.w	100014d4 <hw_claim_or_assert>
100027d6:	4a08      	ldr	r2, [pc, #32]	@ (100027f8 <pio_sm_claim+0x40>)
100027d8:	4806      	ldr	r0, [pc, #24]	@ (100027f4 <pio_sm_claim+0x3c>)
100027da:	eb01 0183 	add.w	r1, r1, r3, lsl #2
100027de:	f7fe be79 	b.w	100014d4 <hw_claim_or_assert>
100027e2:	4a06      	ldr	r2, [pc, #24]	@ (100027fc <pio_sm_claim+0x44>)
100027e4:	4803      	ldr	r0, [pc, #12]	@ (100027f4 <pio_sm_claim+0x3c>)
100027e6:	eb01 0183 	add.w	r1, r1, r3, lsl #2
100027ea:	f7fe be73 	b.w	100014d4 <hw_claim_or_assert>
100027ee:	bf00      	nop
100027f0:	10002e70 	.word	0x10002e70
100027f4:	200004c8 	.word	0x200004c8
100027f8:	10002eb0 	.word	0x10002eb0
100027fc:	10002e8c 	.word	0x10002e8c

10002800 <pio_add_program>:
10002800:	e92d 47f0 	stmdb	sp!, {r4, r5, r6, r7, r8, r9, sl, lr}
10002804:	460f      	mov	r7, r1
10002806:	4605      	mov	r5, r0
10002808:	f7fe fe48 	bl	1000149c <hw_claim_lock>
1000280c:	2201      	movs	r2, #1
1000280e:	f897 a004 	ldrb.w	sl, [r7, #4]
10002812:	f997 c005 	ldrsb.w	ip, [r7, #5]
10002816:	f105 4e2f 	add.w	lr, r5, #2936012800	@ 0xaf000000
1000281a:	f8df 80d4 	ldr.w	r8, [pc, #212]	@ 100028f0 <pio_add_program+0xf0>
1000281e:	f50e 0e60 	add.w	lr, lr, #14680064	@ 0xe00000
10002822:	fa02 f20a 	lsl.w	r2, r2, sl
10002826:	ea4f 5e1e 	mov.w	lr, lr, lsr #20
1000282a:	f1bc 0f00 	cmp.w	ip, #0
1000282e:	f858 602e 	ldr.w	r6, [r8, lr, lsl #2]
10002832:	f102 32ff 	add.w	r2, r2, #4294967295	@ 0xffffffff
10002836:	f1ca 0420 	rsb	r4, sl, #32
1000283a:	db35      	blt.n	100028a8 <pio_add_program+0xa8>
1000283c:	45a4      	cmp	ip, r4
1000283e:	dc03      	bgt.n	10002848 <pio_add_program+0x48>
10002840:	fa02 f30c 	lsl.w	r3, r2, ip
10002844:	4233      	tst	r3, r6
10002846:	d006      	beq.n	10002856 <pio_add_program+0x56>
10002848:	f04f 34ff 	mov.w	r4, #4294967295	@ 0xffffffff
1000284c:	f7fe fe38 	bl	100014c0 <hw_claim_unlock>
10002850:	4620      	mov	r0, r4
10002852:	e8bd 87f0 	ldmia.w	sp!, {r4, r5, r6, r7, r8, r9, sl, pc}
10002856:	f8d5 3168 	ldr.w	r3, [r5, #360]	@ 0x168
1000285a:	79f9      	ldrb	r1, [r7, #7]
1000285c:	2b00      	cmp	r3, #0
1000285e:	d141      	bne.n	100028e4 <pio_add_program+0xe4>
10002860:	074b      	lsls	r3, r1, #29
10002862:	d431      	bmi.n	100028c8 <pio_add_program+0xc8>
10002864:	4664      	mov	r4, ip
10002866:	fa02 f20c 	lsl.w	r2, r2, ip
1000286a:	4216      	tst	r6, r2
1000286c:	d133      	bne.n	100028d6 <pio_add_program+0xd6>
1000286e:	6839      	ldr	r1, [r7, #0]
10002870:	f1ba 0f00 	cmp.w	sl, #0
10002874:	d010      	beq.n	10002898 <pio_add_program+0x98>
10002876:	4667      	mov	r7, ip
10002878:	eb01 0a4a 	add.w	sl, r1, sl, lsl #1
1000287c:	f831 3b02 	ldrh.w	r3, [r1], #2
10002880:	f107 0912 	add.w	r9, r7, #18
10002884:	f5b3 5f00 	cmp.w	r3, #8192	@ 0x2000
10002888:	bf38      	it	cc
1000288a:	4463      	addcc	r3, ip
1000288c:	4551      	cmp	r1, sl
1000288e:	f107 0701 	add.w	r7, r7, #1
10002892:	f845 3029 	str.w	r3, [r5, r9, lsl #2]
10002896:	d1f1      	bne.n	1000287c <pio_add_program+0x7c>
10002898:	4332      	orrs	r2, r6
1000289a:	f848 202e 	str.w	r2, [r8, lr, lsl #2]
1000289e:	f7fe fe0f 	bl	100014c0 <hw_claim_unlock>
100028a2:	4620      	mov	r0, r4
100028a4:	e8bd 87f0 	ldmia.w	sp!, {r4, r5, r6, r7, r8, r9, sl, pc}
100028a8:	2c00      	cmp	r4, #0
100028aa:	da02      	bge.n	100028b2 <pio_add_program+0xb2>
100028ac:	e013      	b.n	100028d6 <pio_add_program+0xd6>
100028ae:	3c01      	subs	r4, #1
100028b0:	d311      	bcc.n	100028d6 <pio_add_program+0xd6>
100028b2:	fa02 f304 	lsl.w	r3, r2, r4
100028b6:	4233      	tst	r3, r6
100028b8:	46a4      	mov	ip, r4
100028ba:	d1f8      	bne.n	100028ae <pio_add_program+0xae>
100028bc:	f8d5 1168 	ldr.w	r1, [r5, #360]	@ 0x168
100028c0:	79fb      	ldrb	r3, [r7, #7]
100028c2:	b991      	cbnz	r1, 100028ea <pio_add_program+0xea>
100028c4:	075b      	lsls	r3, r3, #29
100028c6:	d5ce      	bpl.n	10002866 <pio_add_program+0x66>
100028c8:	f06f 040a 	mvn.w	r4, #10
100028cc:	f7fe fdf8 	bl	100014c0 <hw_claim_unlock>
100028d0:	4620      	mov	r0, r4
100028d2:	e8bd 87f0 	ldmia.w	sp!, {r4, r5, r6, r7, r8, r9, sl, pc}
100028d6:	f06f 0408 	mvn.w	r4, #8
100028da:	f7fe fdf1 	bl	100014c0 <hw_claim_unlock>
100028de:	4620      	mov	r0, r4
100028e0:	e8bd 87f0 	ldmia.w	sp!, {r4, r5, r6, r7, r8, r9, sl, pc}
100028e4:	07c9      	lsls	r1, r1, #31
100028e6:	d5bd      	bpl.n	10002864 <pio_add_program+0x64>
100028e8:	e7ee      	b.n	100028c8 <pio_add_program+0xc8>
100028ea:	07d9      	lsls	r1, r3, #31
100028ec:	d5bb      	bpl.n	10002866 <pio_add_program+0x66>
100028ee:	e7eb      	b.n	100028c8 <pio_add_program+0xc8>
100028f0:	200004b4 	.word	0x200004b4

100028f4 <pio_sm_set_consecutive_pindirs>:
100028f4:	e92d 41f0 	stmdb	sp!, {r4, r5, r6, r7, r8, lr}
100028f8:	f8d0 4168 	ldr.w	r4, [r0, #360]	@ 0x168
100028fc:	f89d 6018 	ldrb.w	r6, [sp, #24]
10002900:	1b12      	subs	r2, r2, r4
10002902:	2a1f      	cmp	r2, #31
10002904:	d838      	bhi.n	10002978 <pio_sm_set_consecutive_pindirs+0x84>
10002906:	f24e 049f 	movw	r4, #57503	@ 0xe09f
1000290a:	f24e 0580 	movw	r5, #57472	@ 0xe080
1000290e:	f44f 3800 	mov.w	r8, #131072	@ 0x20000
10002912:	eb01 0c41 	add.w	ip, r1, r1, lsl #1
10002916:	2e00      	cmp	r6, #0
10002918:	bf18      	it	ne
1000291a:	4625      	movne	r5, r4
1000291c:	eb00 04cc 	add.w	r4, r0, ip, lsl #3
10002920:	f504 5443 	add.w	r4, r4, #12480	@ 0x30c0
10002924:	eb00 0ccc 	add.w	ip, r0, ip, lsl #3
10002928:	2b05      	cmp	r3, #5
1000292a:	f8dc 70dc 	ldr.w	r7, [ip, #220]	@ 0xdc
1000292e:	ea4f 0e41 	mov.w	lr, r1, lsl #1
10002932:	f8dc 60cc 	ldr.w	r6, [ip, #204]	@ 0xcc
10002936:	f8c4 800c 	str.w	r8, [r4, #12]
1000293a:	d90c      	bls.n	10002956 <pio_sm_set_consecutive_pindirs+0x62>
1000293c:	0154      	lsls	r4, r2, #5
1000293e:	3b05      	subs	r3, #5
10002940:	f044 54a0 	orr.w	r4, r4, #335544320	@ 0x14000000
10002944:	3205      	adds	r2, #5
10002946:	2b05      	cmp	r3, #5
10002948:	f8cc 40dc 	str.w	r4, [ip, #220]	@ 0xdc
1000294c:	f002 021f 	and.w	r2, r2, #31
10002950:	f8cc 50d8 	str.w	r5, [ip, #216]	@ 0xd8
10002954:	d8f2      	bhi.n	1000293c <pio_sm_set_consecutive_pindirs+0x48>
10002956:	4471      	add	r1, lr
10002958:	eb00 01c1 	add.w	r1, r0, r1, lsl #3
1000295c:	2000      	movs	r0, #0
1000295e:	0152      	lsls	r2, r2, #5
10002960:	ea42 6383 	orr.w	r3, r2, r3, lsl #26
10002964:	f8c1 30dc 	str.w	r3, [r1, #220]	@ 0xdc
10002968:	f8c1 50d8 	str.w	r5, [r1, #216]	@ 0xd8
1000296c:	f8c1 70dc 	str.w	r7, [r1, #220]	@ 0xdc
10002970:	f8c1 60cc 	str.w	r6, [r1, #204]	@ 0xcc
10002974:	e8bd 81f0 	ldmia.w	sp!, {r4, r5, r6, r7, r8, pc}
10002978:	f06f 0004 	mvn.w	r0, #4
1000297c:	e7fa      	b.n	10002974 <pio_sm_set_consecutive_pindirs+0x80>
1000297e:	bf00      	nop

10002980 <pio_sm_init>:
10002980:	b5f0      	push	{r4, r5, r6, r7, lr}
10002982:	2501      	movs	r5, #1
10002984:	6804      	ldr	r4, [r0, #0]
10002986:	408d      	lsls	r5, r1
10002988:	ea24 0405 	bic.w	r4, r4, r5
1000298c:	6004      	str	r4, [r0, #0]
1000298e:	b3b3      	cbz	r3, 100029fe <pio_sm_init+0x7e>
10002990:	e9d3 5601 	ldrd	r5, r6, [r3, #4]
10002994:	681f      	ldr	r7, [r3, #0]
10002996:	68dc      	ldr	r4, [r3, #12]
10002998:	eb01 0341 	add.w	r3, r1, r1, lsl #1
1000299c:	eb00 03c3 	add.w	r3, r0, r3, lsl #3
100029a0:	f8c3 70c8 	str.w	r7, [r3, #200]	@ 0xc8
100029a4:	ea4f 0c41 	mov.w	ip, r1, lsl #1
100029a8:	f8c3 60d0 	str.w	r6, [r3, #208]	@ 0xd0
100029ac:	f8c3 50cc 	str.w	r5, [r3, #204]	@ 0xcc
100029b0:	f8c3 40dc 	str.w	r4, [r3, #220]	@ 0xdc
100029b4:	eb0c 0301 	add.w	r3, ip, r1
100029b8:	f04f 3501 	mov.w	r5, #16843009	@ 0x1010101
100029bc:	eb00 0cc3 	add.w	ip, r0, r3, lsl #3
100029c0:	f04f 4600 	mov.w	r6, #2147483648	@ 0x80000000
100029c4:	eb00 0ec3 	add.w	lr, r0, r3, lsl #3
100029c8:	2301      	movs	r3, #1
100029ca:	f50e 5e86 	add.w	lr, lr, #4288	@ 0x10c0
100029ce:	1d0c      	adds	r4, r1, #4
100029d0:	f101 0708 	add.w	r7, r1, #8
100029d4:	408d      	lsls	r5, r1
100029d6:	f8ce 6010 	str.w	r6, [lr, #16]
100029da:	fa03 f404 	lsl.w	r4, r3, r4
100029de:	f8ce 6010 	str.w	r6, [lr, #16]
100029e2:	f002 021f 	and.w	r2, r2, #31
100029e6:	6085      	str	r5, [r0, #8]
100029e8:	40bb      	lsls	r3, r7
100029ea:	f500 5000 	add.w	r0, r0, #8192	@ 0x2000
100029ee:	6004      	str	r4, [r0, #0]
100029f0:	f10e 0e10 	add.w	lr, lr, #16
100029f4:	6003      	str	r3, [r0, #0]
100029f6:	2000      	movs	r0, #0
100029f8:	f8cc 20d8 	str.w	r2, [ip, #216]	@ 0xd8
100029fc:	bdf0      	pop	{r4, r5, r6, r7, pc}
100029fe:	f44f 3780 	mov.w	r7, #65536	@ 0x10000
10002a02:	f44f 2640 	mov.w	r6, #786432	@ 0xc0000
10002a06:	f44f 35f8 	mov.w	r5, #126976	@ 0x1f000
10002a0a:	eb01 0441 	add.w	r4, r1, r1, lsl #1
10002a0e:	eb00 04c4 	add.w	r4, r0, r4, lsl #3
10002a12:	f8c4 70c8 	str.w	r7, [r4, #200]	@ 0xc8
10002a16:	ea4f 0c41 	mov.w	ip, r1, lsl #1
10002a1a:	f8c4 60d0 	str.w	r6, [r4, #208]	@ 0xd0
10002a1e:	f8c4 50cc 	str.w	r5, [r4, #204]	@ 0xcc
10002a22:	f8c4 30dc 	str.w	r3, [r4, #220]	@ 0xdc
10002a26:	e7c5      	b.n	100029b4 <pio_sm_init+0x34>

10002a28 <dma_claim_unused_channel>:
10002a28:	b510      	push	{r4, lr}
10002a2a:	4c05      	ldr	r4, [pc, #20]	@ (10002a40 <dma_claim_unused_channel+0x18>)
10002a2c:	b082      	sub	sp, #8
10002a2e:	4601      	mov	r1, r0
10002a30:	230f      	movs	r3, #15
10002a32:	2200      	movs	r2, #0
10002a34:	9400      	str	r4, [sp, #0]
10002a36:	4803      	ldr	r0, [pc, #12]	@ (10002a44 <dma_claim_unused_channel+0x1c>)
10002a38:	f7fe fd78 	bl	1000152c <hw_claim_unused_from_range>
10002a3c:	b002      	add	sp, #8
10002a3e:	bd10      	pop	{r4, pc}
10002a40:	10002ed4 	.word	0x10002ed4
10002a44:	20025ea8 	.word	0x20025ea8

10002a48 <memset>:
10002a48:	0783      	lsls	r3, r0, #30
10002a4a:	b530      	push	{r4, r5, lr}
10002a4c:	d046      	beq.n	10002adc <memset+0x94>
10002a4e:	1884      	adds	r4, r0, r2
10002a50:	4684      	mov	ip, r0
10002a52:	e004      	b.n	10002a5e <memset+0x16>
10002a54:	f803 1b01 	strb.w	r1, [r3], #1
10002a58:	079d      	lsls	r5, r3, #30
10002a5a:	d004      	beq.n	10002a66 <memset+0x1e>
10002a5c:	469c      	mov	ip, r3
10002a5e:	45a4      	cmp	ip, r4
10002a60:	4663      	mov	r3, ip
10002a62:	d1f7      	bne.n	10002a54 <memset+0xc>
10002a64:	bd30      	pop	{r4, r5, pc}
10002a66:	3a01      	subs	r2, #1
10002a68:	4402      	add	r2, r0
10002a6a:	eba2 020c 	sub.w	r2, r2, ip
10002a6e:	2a03      	cmp	r2, #3
10002a70:	d929      	bls.n	10002ac6 <memset+0x7e>
10002a72:	b2cc      	uxtb	r4, r1
10002a74:	2a0f      	cmp	r2, #15
10002a76:	eb04 2404 	add.w	r4, r4, r4, lsl #8
10002a7a:	eb04 4404 	add.w	r4, r4, r4, lsl #16
10002a7e:	d92f      	bls.n	10002ae0 <memset+0x98>
10002a80:	f1a2 0c10 	sub.w	ip, r2, #16
10002a84:	f103 0510 	add.w	r5, r3, #16
10002a88:	f02c 0c0f 	bic.w	ip, ip, #15
10002a8c:	44ac      	add	ip, r5
10002a8e:	e9c3 4400 	strd	r4, r4, [r3]
10002a92:	e9c3 4402 	strd	r4, r4, [r3, #8]
10002a96:	3310      	adds	r3, #16
10002a98:	4563      	cmp	r3, ip
10002a9a:	d1f8      	bne.n	10002a8e <memset+0x46>
10002a9c:	f012 0f0c 	tst.w	r2, #12
10002aa0:	f002 0e0f 	and.w	lr, r2, #15
10002aa4:	d018      	beq.n	10002ad8 <memset+0x90>
10002aa6:	f02e 0c03 	bic.w	ip, lr, #3
10002aaa:	f1ae 0504 	sub.w	r5, lr, #4
10002aae:	461a      	mov	r2, r3
10002ab0:	449c      	add	ip, r3
10002ab2:	f842 4b04 	str.w	r4, [r2], #4
10002ab6:	4562      	cmp	r2, ip
10002ab8:	d1fb      	bne.n	10002ab2 <memset+0x6a>
10002aba:	f025 0403 	bic.w	r4, r5, #3
10002abe:	3304      	adds	r3, #4
10002ac0:	f00e 0203 	and.w	r2, lr, #3
10002ac4:	4423      	add	r3, r4
10002ac6:	2a00      	cmp	r2, #0
10002ac8:	d0cc      	beq.n	10002a64 <memset+0x1c>
10002aca:	b2c9      	uxtb	r1, r1
10002acc:	441a      	add	r2, r3
10002ace:	f803 1b01 	strb.w	r1, [r3], #1
10002ad2:	4293      	cmp	r3, r2
10002ad4:	d1fb      	bne.n	10002ace <memset+0x86>
10002ad6:	bd30      	pop	{r4, r5, pc}
10002ad8:	4672      	mov	r2, lr
10002ada:	e7f4      	b.n	10002ac6 <memset+0x7e>
10002adc:	4603      	mov	r3, r0
10002ade:	e7c6      	b.n	10002a6e <memset+0x26>
10002ae0:	4696      	mov	lr, r2
10002ae2:	e7e0      	b.n	10002aa6 <memset+0x5e>

10002ae4 <memcpy>:
10002ae4:	4684      	mov	ip, r0
10002ae6:	ea41 0300 	orr.w	r3, r1, r0
10002aea:	f013 0303 	ands.w	r3, r3, #3
10002aee:	d149      	bne.n	10002b84 <memcpy+0xa0>
10002af0:	3a40      	subs	r2, #64	@ 0x40
10002af2:	d323      	bcc.n	10002b3c <memcpy+0x58>
10002af4:	680b      	ldr	r3, [r1, #0]
10002af6:	6003      	str	r3, [r0, #0]
10002af8:	684b      	ldr	r3, [r1, #4]
10002afa:	6043      	str	r3, [r0, #4]
10002afc:	688b      	ldr	r3, [r1, #8]
10002afe:	6083      	str	r3, [r0, #8]
10002b00:	68cb      	ldr	r3, [r1, #12]
10002b02:	60c3      	str	r3, [r0, #12]
10002b04:	690b      	ldr	r3, [r1, #16]
10002b06:	6103      	str	r3, [r0, #16]
10002b08:	694b      	ldr	r3, [r1, #20]
10002b0a:	6143      	str	r3, [r0, #20]
10002b0c:	698b      	ldr	r3, [r1, #24]
10002b0e:	6183      	str	r3, [r0, #24]
10002b10:	69cb      	ldr	r3, [r1, #28]
10002b12:	61c3      	str	r3, [r0, #28]
10002b14:	6a0b      	ldr	r3, [r1, #32]
10002b16:	6203      	str	r3, [r0, #32]
10002b18:	6a4b      	ldr	r3, [r1, #36]	@ 0x24
10002b1a:	6243      	str	r3, [r0, #36]	@ 0x24
10002b1c:	6a8b      	ldr	r3, [r1, #40]	@ 0x28
10002b1e:	6283      	str	r3, [r0, #40]	@ 0x28
10002b20:	6acb      	ldr	r3, [r1, #44]	@ 0x2c
10002b22:	62c3      	str	r3, [r0, #44]	@ 0x2c
10002b24:	6b0b      	ldr	r3, [r1, #48]	@ 0x30
10002b26:	6303      	str	r3, [r0, #48]	@ 0x30
10002b28:	6b4b      	ldr	r3, [r1, #52]	@ 0x34
10002b2a:	6343      	str	r3, [r0, #52]	@ 0x34
10002b2c:	6b8b      	ldr	r3, [r1, #56]	@ 0x38
10002b2e:	6383      	str	r3, [r0, #56]	@ 0x38
10002b30:	6bcb      	ldr	r3, [r1, #60]	@ 0x3c
10002b32:	63c3      	str	r3, [r0, #60]	@ 0x3c
10002b34:	3040      	adds	r0, #64	@ 0x40
10002b36:	3140      	adds	r1, #64	@ 0x40
10002b38:	3a40      	subs	r2, #64	@ 0x40
10002b3a:	d2db      	bcs.n	10002af4 <memcpy+0x10>
10002b3c:	3230      	adds	r2, #48	@ 0x30
10002b3e:	d30b      	bcc.n	10002b58 <memcpy+0x74>
10002b40:	680b      	ldr	r3, [r1, #0]
10002b42:	6003      	str	r3, [r0, #0]
10002b44:	684b      	ldr	r3, [r1, #4]
10002b46:	6043      	str	r3, [r0, #4]
10002b48:	688b      	ldr	r3, [r1, #8]
10002b4a:	6083      	str	r3, [r0, #8]
10002b4c:	68cb      	ldr	r3, [r1, #12]
10002b4e:	60c3      	str	r3, [r0, #12]
10002b50:	3010      	adds	r0, #16
10002b52:	3110      	adds	r1, #16
10002b54:	3a10      	subs	r2, #16
10002b56:	d2f3      	bcs.n	10002b40 <memcpy+0x5c>
10002b58:	320c      	adds	r2, #12
10002b5a:	d305      	bcc.n	10002b68 <memcpy+0x84>
10002b5c:	f851 3b04 	ldr.w	r3, [r1], #4
10002b60:	f840 3b04 	str.w	r3, [r0], #4
10002b64:	3a04      	subs	r2, #4
10002b66:	d2f9      	bcs.n	10002b5c <memcpy+0x78>
10002b68:	3204      	adds	r2, #4
10002b6a:	d008      	beq.n	10002b7e <memcpy+0x9a>
10002b6c:	07d2      	lsls	r2, r2, #31
10002b6e:	bf1c      	itt	ne
10002b70:	f811 3b01 	ldrbne.w	r3, [r1], #1
10002b74:	f800 3b01 	strbne.w	r3, [r0], #1
10002b78:	d301      	bcc.n	10002b7e <memcpy+0x9a>
10002b7a:	880b      	ldrh	r3, [r1, #0]
10002b7c:	8003      	strh	r3, [r0, #0]
10002b7e:	4660      	mov	r0, ip
10002b80:	4770      	bx	lr
10002b82:	bf00      	nop
10002b84:	2a08      	cmp	r2, #8
10002b86:	d313      	bcc.n	10002bb0 <memcpy+0xcc>
10002b88:	078b      	lsls	r3, r1, #30
10002b8a:	d0b1      	beq.n	10002af0 <memcpy+0xc>
10002b8c:	f010 0303 	ands.w	r3, r0, #3
10002b90:	d0ae      	beq.n	10002af0 <memcpy+0xc>
10002b92:	f1c3 0304 	rsb	r3, r3, #4
10002b96:	1ad2      	subs	r2, r2, r3
10002b98:	07db      	lsls	r3, r3, #31
10002b9a:	bf1c      	itt	ne
10002b9c:	f811 3b01 	ldrbne.w	r3, [r1], #1
10002ba0:	f800 3b01 	strbne.w	r3, [r0], #1
10002ba4:	d3a4      	bcc.n	10002af0 <memcpy+0xc>
10002ba6:	f831 3b02 	ldrh.w	r3, [r1], #2
10002baa:	f820 3b02 	strh.w	r3, [r0], #2
10002bae:	e79f      	b.n	10002af0 <memcpy+0xc>
10002bb0:	3a04      	subs	r2, #4
10002bb2:	d3d9      	bcc.n	10002b68 <memcpy+0x84>
10002bb4:	3a01      	subs	r2, #1
10002bb6:	f811 3b01 	ldrb.w	r3, [r1], #1
10002bba:	f800 3b01 	strb.w	r3, [r0], #1
10002bbe:	d2f9      	bcs.n	10002bb4 <memcpy+0xd0>
10002bc0:	780b      	ldrb	r3, [r1, #0]
10002bc2:	7003      	strb	r3, [r0, #0]
10002bc4:	784b      	ldrb	r3, [r1, #1]
10002bc6:	7043      	strb	r3, [r0, #1]
10002bc8:	788b      	ldrb	r3, [r1, #2]
10002bca:	7083      	strb	r3, [r0, #2]
10002bcc:	4660      	mov	r0, ip
10002bce:	4770      	bx	lr

10002bd0 <strlen>:
10002bd0:	f020 0103 	bic.w	r1, r0, #3
10002bd4:	f010 0003 	ands.w	r0, r0, #3
10002bd8:	f1c0 0000 	rsb	r0, r0, #0
10002bdc:	f851 3b04 	ldr.w	r3, [r1], #4
10002be0:	f100 0c04 	add.w	ip, r0, #4
10002be4:	ea4f 0ccc 	mov.w	ip, ip, lsl #3
10002be8:	f06f 0200 	mvn.w	r2, #0
10002bec:	bf1c      	itt	ne
10002bee:	fa22 f20c 	lsrne.w	r2, r2, ip
10002bf2:	4313      	orrne	r3, r2
10002bf4:	f04f 0c01 	mov.w	ip, #1
10002bf8:	ea4c 2c0c 	orr.w	ip, ip, ip, lsl #8
10002bfc:	ea4c 4c0c 	orr.w	ip, ip, ip, lsl #16
10002c00:	eba3 020c 	sub.w	r2, r3, ip
10002c04:	ea22 0203 	bic.w	r2, r2, r3
10002c08:	ea12 12cc 	ands.w	r2, r2, ip, lsl #7
10002c0c:	bf04      	itt	eq
10002c0e:	f851 3b04 	ldreq.w	r3, [r1], #4
10002c12:	3004      	addeq	r0, #4
10002c14:	d0f4      	beq.n	10002c00 <strlen+0x30>
10002c16:	f1c2 0100 	rsb	r1, r2, #0
10002c1a:	ea02 0201 	and.w	r2, r2, r1
10002c1e:	fab2 f282 	clz	r2, r2
10002c22:	f1c2 021f 	rsb	r2, r2, #31
10002c26:	eb00 00d2 	add.w	r0, r0, r2, lsr #3
10002c2a:	4770      	bx	lr

10002c2c <_fini>:
10002c2c:	b5f8      	push	{r3, r4, r5, r6, r7, lr}
10002c2e:	bf00      	nop

10002c30 <__mutex_exit_veneer>:
10002c30:	f85f f000 	ldr.w	pc, [pc]	@ 10002c34 <__mutex_exit_veneer+0x4>
10002c34:	200001e5 	.word	0x200001e5

10002c38 <__mutex_try_enter_block_until_veneer>:
10002c38:	f85f f000 	ldr.w	pc, [pc]	@ 10002c3c <__mutex_try_enter_block_until_veneer+0x4>
10002c3c:	2000017d 	.word	0x2000017d

10002c40 <__pre_init_runtime_init_bootrom_reset>:
10002c40:	10002379                                y#..

10002c44 <__pre_init_runtime_init_early_resets>:
10002c44:	100022ed                                ."..

10002c48 <__pre_init_runtime_init_usb_power_down>:
10002c48:	10002321                                !#..

10002c4c <__pre_init_runtime_init_clocks>:
10002c4c:	1000240d                                .$..

10002c50 <__pre_init_runtime_init_post_clock_resets>:
10002c50:	10002359                                Y#..

10002c54 <__pre_init_runtime_init_boot_locks_reset>:
10002c54:	10002271                                q"..

10002c58 <__pre_init_runtime_init_spin_locks_reset>:
10002c58:	100023a1                                .#..

10002c5c <__pre_init_runtime_init_bootrom_locking_enable>:
10002c5c:	1000225d                                ]"..

10002c60 <__pre_init_runtime_init_mutex>:
10002c60:	100016c5                                ....

10002c64 <__pre_init_runtime_init_install_ram_vector_table>:
10002c64:	100023a5                                .#..

10002c68 <__pre_init_runtime_init_default_alarm_pool>:
10002c68:	10001a41                                A...

10002c6c <__pre_init_first_per_core_initializer>:
10002c6c:	100022bd                                ."..

10002c70 <__pre_init_runtime_init_per_core_bootrom_reset>:
10002c70:	1000238d                                .#..

10002c74 <__pre_init_runtime_init_per_core_enable_coprocessors>:
10002c74:	1000233d                                =#..

10002c78 <__pre_init_spinlock_set_extexclall>:
10002c78:	100015c5                                ....

10002c7c <__pre_init_runtime_init_per_core_irq_priorities>:
10002c7c:	100015ed                                ....

10002c80 <__frame_dummy_init_array_entry>:
10002c80:	10000211                                ....

Disassembly of section .data:

20000110 <mutex_enter_block_until>:
20000110:	f04f 4150 	mov.w	r1, #3489660928	@ 0xd0000000
20000114:	e92d 41f0 	stmdb	sp!, {r4, r5, r6, r7, r8, lr}
20000118:	2700      	movs	r7, #0
2000011a:	4604      	mov	r4, r0
2000011c:	4616      	mov	r6, r2
2000011e:	461d      	mov	r5, r3
20000120:	f8d1 8000 	ldr.w	r8, [r1]
20000124:	e008      	b.n	20000138 <mutex_enter_block_until+0x28>
20000126:	e8c1 7f8f 	stlb	r7, [r1]
2000012a:	f38c 8810 	msr	PRIMASK, ip
2000012e:	4630      	mov	r0, r6
20000130:	4629      	mov	r1, r5
20000132:	f000 f875 	bl	20000220 <__best_effort_wfe_or_timeout_veneer>
20000136:	b9e8      	cbnz	r0, 20000174 <mutex_enter_block_until+0x64>
20000138:	6821      	ldr	r1, [r4, #0]
2000013a:	f3ef 8c10 	mrs	ip, PRIMASK
2000013e:	b672      	cpsid	i
20000140:	e8d1 2fcf 	ldaexb	r2, [r1]
20000144:	2301      	movs	r3, #1
20000146:	2a00      	cmp	r2, #0
20000148:	d1fa      	bne.n	20000140 <mutex_enter_block_until+0x30>
2000014a:	e8c1 3f42 	strexb	r2, r3, [r1]
2000014e:	2a00      	cmp	r2, #0
20000150:	d1f6      	bne.n	20000140 <mutex_enter_block_until+0x30>
20000152:	f3bf 8f5f 	dmb	sy
20000156:	f994 3004 	ldrsb.w	r3, [r4, #4]
2000015a:	6821      	ldr	r1, [r4, #0]
2000015c:	2b00      	cmp	r3, #0
2000015e:	dae2      	bge.n	20000126 <mutex_enter_block_until+0x16>
20000160:	2300      	movs	r3, #0
20000162:	f884 8004 	strb.w	r8, [r4, #4]
20000166:	e8c1 3f8f 	stlb	r3, [r1]
2000016a:	f38c 8810 	msr	PRIMASK, ip
2000016e:	2001      	movs	r0, #1
20000170:	e8bd 81f0 	ldmia.w	sp!, {r4, r5, r6, r7, r8, pc}
20000174:	2000      	movs	r0, #0
20000176:	e8bd 81f0 	ldmia.w	sp!, {r4, r5, r6, r7, r8, pc}
2000017a:	bf00      	nop

2000017c <mutex_try_enter_block_until>:
2000017c:	b530      	push	{r4, r5, lr}
2000017e:	6804      	ldr	r4, [r0, #0]
20000180:	f3ef 8c10 	mrs	ip, PRIMASK
20000184:	b672      	cpsid	i
20000186:	e8d4 efcf 	ldaexb	lr, [r4]
2000018a:	2501      	movs	r5, #1
2000018c:	f1be 0f00 	cmp.w	lr, #0
20000190:	d1f9      	bne.n	20000186 <mutex_try_enter_block_until+0xa>
20000192:	e8c4 5f4e 	strexb	lr, r5, [r4]
20000196:	f1be 0f00 	cmp.w	lr, #0
2000019a:	d1f4      	bne.n	20000186 <mutex_try_enter_block_until+0xa>
2000019c:	f3bf 8f5f 	dmb	sy
200001a0:	f990 4004 	ldrsb.w	r4, [r0, #4]
200001a4:	6805      	ldr	r5, [r0, #0]
200001a6:	2c00      	cmp	r4, #0
200001a8:	db10      	blt.n	200001cc <mutex_try_enter_block_until+0x50>
200001aa:	2100      	movs	r1, #0
200001ac:	e8c5 1f8f 	stlb	r1, [r5]
200001b0:	f38c 8810 	msr	PRIMASK, ip
200001b4:	f04f 4550 	mov.w	r5, #3489660928	@ 0xd0000000
200001b8:	f995 5000 	ldrsb.w	r5, [r5]
200001bc:	42a5      	cmp	r5, r4
200001be:	d101      	bne.n	200001c4 <mutex_try_enter_block_until+0x48>
200001c0:	4608      	mov	r0, r1
200001c2:	bd30      	pop	{r4, r5, pc}
200001c4:	e8bd 4030 	ldmia.w	sp!, {r4, r5, lr}
200001c8:	f7ff bfa2 	b.w	20000110 <mutex_enter_block_until>
200001cc:	f04f 4250 	mov.w	r2, #3489660928	@ 0xd0000000
200001d0:	6812      	ldr	r2, [r2, #0]
200001d2:	2300      	movs	r3, #0
200001d4:	7102      	strb	r2, [r0, #4]
200001d6:	e8c5 3f8f 	stlb	r3, [r5]
200001da:	f38c 8810 	msr	PRIMASK, ip
200001de:	2001      	movs	r0, #1
200001e0:	bd30      	pop	{r4, r5, pc}
200001e2:	bf00      	nop

200001e4 <mutex_exit>:
200001e4:	6803      	ldr	r3, [r0, #0]
200001e6:	f3ef 8210 	mrs	r2, PRIMASK
200001ea:	b672      	cpsid	i
200001ec:	e8d3 cfcf 	ldaexb	ip, [r3]
200001f0:	2101      	movs	r1, #1
200001f2:	f1bc 0f00 	cmp.w	ip, #0
200001f6:	d1f9      	bne.n	200001ec <mutex_exit+0x8>
200001f8:	e8c3 1f4c 	strexb	ip, r1, [r3]
200001fc:	f1bc 0f00 	cmp.w	ip, #0
20000200:	d1f4      	bne.n	200001ec <mutex_exit+0x8>
20000202:	f3bf 8f5f 	dmb	sy
20000206:	f04f 0cff 	mov.w	ip, #255	@ 0xff
2000020a:	2300      	movs	r3, #0
2000020c:	6801      	ldr	r1, [r0, #0]
2000020e:	f880 c004 	strb.w	ip, [r0, #4]
20000212:	e8c1 3f8f 	stlb	r3, [r1]
20000216:	f382 8810 	msr	PRIMASK, r2
2000021a:	bf40      	sev
2000021c:	4770      	bx	lr
2000021e:	bf00      	nop

20000220 <__best_effort_wfe_or_timeout_veneer>:
20000220:	f85f f000 	ldr.w	pc, [pc]	@ 20000224 <__best_effort_wfe_or_timeout_veneer+0x4>
20000224:	10001c89 	.word	0x10001c89

20000228 <address_pointer>:
20000228:	200006a8                                ... 

2000022c <FONT_WIDTH>:
2000022c:	                                         .

2000022d <FONT_HEIGHT>:
2000022d:	                                         .

2000022e <striped_spin_lock_num>:
2000022e:	                                         ..

20000230 <default_alarm_pool>:
	...
20000244:	20000258                                X.. 

20000248 <malloc_mutex>:
	...

20000250 <print_mutex>:
	...
