
/home/pdsilva/project/vgaPico/vgaPico2/VGA_Fonts_and_Colors/build/vgaPico2.elf:     file format elf32-littlearm

Sections:
Idx Name          Size      VMA       LMA       File off  Algn
  0 .text         0000cd84  10000000  10000000  00001000  2**3
                  CONTENTS, ALLOC, LOAD, READONLY, CODE
  1 .rodata       00008284  1000cd88  1000cd88  0000dd88  2**3
                  CONTENTS, ALLOC, LOAD, READONLY, DATA
  2 .ARM.exidx    00000008  1001500c  1001500c  0001600c  2**2
                  CONTENTS, ALLOC, LOAD, READONLY, DATA
  3 .binary_info  00000020  10015014  10015014  00016014  2**2
                  CONTENTS, ALLOC, LOAD, READONLY, DATA
  4 .ram_vector_table 00000110  20000000  20000000  00018000  2**2
                  ALLOC
  5 .uninitialized_data 00000000  20000110  20000110  00017c6c  2**0
                  CONTENTS
  6 .data         00000c24  20000110  10015034  00016110  2**3
                  CONTENTS, ALLOC, LOAD, READONLY, CODE
  7 .tdata        00000000  20000d34  20000d34  00017c6c  2**0
                  CONTENTS, ALLOC, LOAD, DATA, THREAD_LOCAL
  8 .tbss         00000000  20000d34  20000d34  00000000  2**0
                  ALLOC, THREAD_LOCAL
  9 .bss          00026000  20000d38  10015c58  00017d38  2**3
                  ALLOC
 10 .heap         00000800  20026d38  10015c58  00017d38  2**2
                  ALLOC, READONLY
 11 .scratch_x    00000000  20080000  20080000  00017c6c  2**0
                  CONTENTS
 12 .scratch_y    00000000  20081000  20081000  00017c6c  2**0
                  CONTENTS
 13 .stack1_dummy 00000800  20080000  20080000  00018000  2**2
                  ALLOC
 14 .stack_dummy  00000800  20081000  20081000  00018000  2**5
                  ALLOC, READONLY
 15 .flash_end    00000014  10015c58  10015c58  00017c58  2**2
                  CONTENTS, ALLOC, LOAD, READONLY, DATA
 16 .ARM.attributes 00000034  00000000  00000000  00017c6c  2**0
                  CONTENTS, READONLY
 17 .comment      00000045  00000000  00000000  00017ca0  2**0
                  CONTENTS, READONLY
 18 .debug_info   000304f8  00000000  00000000  00017ce5  2**0
                  CONTENTS, READONLY, DEBUGGING, OCTETS
 19 .debug_abbrev 00006e84  00000000  00000000  000481dd  2**0
                  CONTENTS, READONLY, DEBUGGING, OCTETS
 20 .debug_loclists 00019a07  00000000  00000000  0004f061  2**0
                  CONTENTS, READONLY, DEBUGGING, OCTETS
 21 .debug_aranges 00000f68  00000000  00000000  00068a68  2**3
                  CONTENTS, READONLY, DEBUGGING, OCTETS
 22 .debug_rnglists 00004d86  00000000  00000000  000699d0  2**0
                  CONTENTS, READONLY, DEBUGGING, OCTETS
 23 .debug_line   0001f728  00000000  00000000  0006e756  2**0
                  CONTENTS, READONLY, DEBUGGING, OCTETS
 24 .debug_str    0000760e  00000000  00000000  0008de7e  2**0
                  CONTENTS, READONLY, DEBUGGING, OCTETS
 25 .debug_frame  00003edc  00000000  00000000  0009548c  2**2
                  CONTENTS, READONLY, DEBUGGING, OCTETS
 26 .debug_line_str 000002ac  00000000  00000000  00099368  2**0
                  CONTENTS, READONLY, DEBUGGING, OCTETS

/home/pdsilva/project/vgaPico/vgaPico2/VGA_Fonts_and_Colors/build/vgaPico2.elf:     file format elf32-littlearm


Disassembly of section .text:

10000000 <__VECTOR_TABLE>:
10000000:	20082000 	.word	0x20082000
10000004:	1000015d 	.word	0x1000015d
10000008:	1000011b 	.word	0x1000011b
1000000c:	1000011d 	.word	0x1000011d
10000010:	10000111 	.word	0x10000111
10000014:	10000111 	.word	0x10000111
10000018:	10000111 	.word	0x10000111
1000001c:	10000111 	.word	0x10000111
10000020:	10000119 	.word	0x10000119
10000024:	10000119 	.word	0x10000119
10000028:	10000119 	.word	0x10000119
1000002c:	1000011f 	.word	0x1000011f
10000030:	10000111 	.word	0x10000111
10000034:	10000119 	.word	0x10000119
10000038:	10000121 	.word	0x10000121
1000003c:	10000123 	.word	0x10000123
10000040:	10000111 	.word	0x10000111
10000044:	10000111 	.word	0x10000111
10000048:	10000111 	.word	0x10000111
1000004c:	10000111 	.word	0x10000111
10000050:	10000111 	.word	0x10000111
10000054:	10000111 	.word	0x10000111
10000058:	10000111 	.word	0x10000111
1000005c:	10000111 	.word	0x10000111
10000060:	10000111 	.word	0x10000111
10000064:	10000111 	.word	0x10000111
10000068:	10000111 	.word	0x10000111
1000006c:	10000111 	.word	0x10000111
10000070:	10000111 	.word	0x10000111
10000074:	10000111 	.word	0x10000111
10000078:	10000111 	.word	0x10000111
1000007c:	10000111 	.word	0x10000111
10000080:	10000111 	.word	0x10000111
10000084:	10000111 	.word	0x10000111
10000088:	10000111 	.word	0x10000111
1000008c:	10000111 	.word	0x10000111
10000090:	10000111 	.word	0x10000111
10000094:	10000111 	.word	0x10000111
10000098:	10000111 	.word	0x10000111
1000009c:	10000111 	.word	0x10000111
100000a0:	10000111 	.word	0x10000111
100000a4:	10000111 	.word	0x10000111
100000a8:	10000111 	.word	0x10000111
100000ac:	10000111 	.word	0x10000111
100000b0:	10000111 	.word	0x10000111
100000b4:	10000111 	.word	0x10000111
100000b8:	10000111 	.word	0x10000111
100000bc:	10000111 	.word	0x10000111
100000c0:	10000111 	.word	0x10000111
100000c4:	10000111 	.word	0x10000111
100000c8:	10000111 	.word	0x10000111
100000cc:	10000111 	.word	0x10000111
100000d0:	10000111 	.word	0x10000111
100000d4:	10000111 	.word	0x10000111
100000d8:	10000111 	.word	0x10000111
100000dc:	10000111 	.word	0x10000111
100000e0:	10000111 	.word	0x10000111
100000e4:	10000111 	.word	0x10000111
100000e8:	10000111 	.word	0x10000111
100000ec:	10000111 	.word	0x10000111
100000f0:	10000111 	.word	0x10000111
100000f4:	10000111 	.word	0x10000111
100000f8:	10000111 	.word	0x10000111
100000fc:	10000111 	.word	0x10000111
10000100:	10000111 	.word	0x10000111
10000104:	10000111 	.word	0x10000111
10000108:	10000111 	.word	0x10000111
1000010c:	10000111 	.word	0x10000111

10000110 <__unhandled_user_irq>:
10000110:	f3ef 8005 	mrs	r0, IPSR
10000114:	3810      	subs	r0, #16

10000116 <unhandled_user_irq_num_in_r0>:
10000116:	be00      	bkpt	0x0000

10000118 <isr_invalid>:
10000118:	be00      	bkpt	0x0000

1000011a <isr_nmi>:
1000011a:	be00      	bkpt	0x0000

1000011c <isr_hardfault>:
1000011c:	be00      	bkpt	0x0000

1000011e <isr_svcall>:
1000011e:	be00      	bkpt	0x0000

10000120 <isr_pendsv>:
10000120:	be00      	bkpt	0x0000

10000122 <isr_systick>:
10000122:	be00      	bkpt	0x0000

10000124 <__default_isrs_end>:
10000124:	7188ebf2 	.word	0x7188ebf2
10000128:	10015014 	.word	0x10015014
1000012c:	10015034 	.word	0x10015034
10000130:	100001a0 	.word	0x100001a0
10000134:	e71aa390 	.word	0xe71aa390

10000138 <__binary_info_header_end>:
10000138:	ffffded3 	.word	0xffffded3
1000013c:	10210142 	.word	0x10210142
10000140:	000001ff 	.word	0x000001ff
10000144:	00015b20 	.word	0x00015b20
10000148:	ab123579 	.word	0xab123579

1000014c <_entry_point>:
1000014c:	f04f 0000 	mov.w	r0, #0

10000150 <_enter_vtable_in_r0>:
10000150:	491e      	ldr	r1, [pc, #120]	@ (100001cc <data_cpy_table+0x2c>)
10000152:	6008      	str	r0, [r1, #0]
10000154:	c806      	ldmia	r0!, {r1, r2}
10000156:	f381 8808 	msr	MSP, r1
1000015a:	4710      	bx	r2

1000015c <_reset_handler>:
1000015c:	f04f 4050 	mov.w	r0, #3489660928	@ 0xd0000000
10000160:	6800      	ldr	r0, [r0, #0]
10000162:	b110      	cbz	r0, 1000016a <hold_non_core0_in_bootrom+0x6>

10000164 <hold_non_core0_in_bootrom>:
10000164:	f04f 0000 	mov.w	r0, #0
10000168:	e7f2      	b.n	10000150 <_enter_vtable_in_r0>
1000016a:	a40d      	add	r4, pc, #52	@ (adr r4, 100001a0 <data_cpy_table>)
1000016c:	cc0e      	ldmia	r4!, {r1, r2, r3}
1000016e:	2900      	cmp	r1, #0
10000170:	d002      	beq.n	10000178 <hold_non_core0_in_bootrom+0x14>
10000172:	f000 f812 	bl	1000019a <data_cpy>
10000176:	e7f9      	b.n	1000016c <hold_non_core0_in_bootrom+0x8>
10000178:	4915      	ldr	r1, [pc, #84]	@ (100001d0 <data_cpy_table+0x30>)
1000017a:	4a16      	ldr	r2, [pc, #88]	@ (100001d4 <data_cpy_table+0x34>)
1000017c:	2000      	movs	r0, #0
1000017e:	e000      	b.n	10000182 <bss_fill_test>

10000180 <bss_fill_loop>:
10000180:	c101      	stmia	r1!, {r0}

10000182 <bss_fill_test>:
10000182:	4291      	cmp	r1, r2
10000184:	d1fc      	bne.n	10000180 <bss_fill_loop>

10000186 <platform_entry>:
10000186:	4914      	ldr	r1, [pc, #80]	@ (100001d8 <data_cpy_table+0x38>)
10000188:	4788      	blx	r1
1000018a:	4914      	ldr	r1, [pc, #80]	@ (100001dc <data_cpy_table+0x3c>)
1000018c:	4788      	blx	r1
1000018e:	4914      	ldr	r1, [pc, #80]	@ (100001e0 <data_cpy_table+0x40>)
10000190:	4788      	blx	r1
10000192:	be00      	bkpt	0x0000
10000194:	e7fd      	b.n	10000192 <platform_entry+0xc>

10000196 <data_cpy_loop>:
10000196:	c901      	ldmia	r1!, {r0}
10000198:	c201      	stmia	r2!, {r0}

1000019a <data_cpy>:
1000019a:	429a      	cmp	r2, r3
1000019c:	d3fb      	bcc.n	10000196 <data_cpy_loop>
1000019e:	4770      	bx	lr

100001a0 <data_cpy_table>:
100001a0:	10015034 	.word	0x10015034
100001a4:	20000110 	.word	0x20000110
100001a8:	20000d34 	.word	0x20000d34
100001ac:	10015c58 	.word	0x10015c58
100001b0:	20080000 	.word	0x20080000
100001b4:	20080000 	.word	0x20080000
100001b8:	10015c58 	.word	0x10015c58
100001bc:	20081000 	.word	0x20081000
100001c0:	20081000 	.word	0x20081000
100001c4:	00000000 	.word	0x00000000
100001c8:	4770      	bx	lr
100001ca:	0000      	.short	0x0000
100001cc:	e000ed08 	.word	0xe000ed08
100001d0:	20000d34 	.word	0x20000d34
100001d4:	20026d38 	.word	0x20026d38
100001d8:	10006979 	.word	0x10006979
100001dc:	1000128d 	.word	0x1000128d
100001e0:	1000693d 	.word	0x1000693d

100001e4 <_init>:
100001e4:	b5f8      	push	{r3, r4, r5, r6, r7, lr}
100001e6:	bf00      	nop

100001e8 <register_tm_clones>:
100001e8:	4b06      	ldr	r3, [pc, #24]	@ (10000204 <register_tm_clones+0x1c>)
100001ea:	4907      	ldr	r1, [pc, #28]	@ (10000208 <register_tm_clones+0x20>)
100001ec:	1ac9      	subs	r1, r1, r3
100001ee:	1089      	asrs	r1, r1, #2
100001f0:	bf48      	it	mi
100001f2:	3101      	addmi	r1, #1
100001f4:	1049      	asrs	r1, r1, #1
100001f6:	d003      	beq.n	10000200 <register_tm_clones+0x18>
100001f8:	4b04      	ldr	r3, [pc, #16]	@ (1000020c <register_tm_clones+0x24>)
100001fa:	b10b      	cbz	r3, 10000200 <register_tm_clones+0x18>
100001fc:	4801      	ldr	r0, [pc, #4]	@ (10000204 <register_tm_clones+0x1c>)
100001fe:	4718      	bx	r3
10000200:	4770      	bx	lr
10000202:	bf00      	nop
10000204:	20000d34 	.word	0x20000d34
10000208:	20000d34 	.word	0x20000d34
1000020c:	00000000 	.word	0x00000000

10000210 <frame_dummy>:
10000210:	b508      	push	{r3, lr}
10000212:	4b05      	ldr	r3, [pc, #20]	@ (10000228 <frame_dummy+0x18>)
10000214:	b11b      	cbz	r3, 1000021e <frame_dummy+0xe>
10000216:	4905      	ldr	r1, [pc, #20]	@ (1000022c <frame_dummy+0x1c>)
10000218:	4805      	ldr	r0, [pc, #20]	@ (10000230 <frame_dummy+0x20>)
1000021a:	f3af 8000 	nop.w
1000021e:	e8bd 4008 	ldmia.w	sp!, {r3, lr}
10000222:	f7ff bfe1 	b.w	100001e8 <register_tm_clones>
10000226:	bf00      	nop
10000228:	00000000 	.word	0x00000000
1000022c:	20001174 	.word	0x20001174
10000230:	1000cd84 	.word	0x1000cd84

10000234 <protothread_toggle25>:
10000234:	6803      	ldr	r3, [r0, #0]
10000236:	b570      	push	{r4, r5, r6, lr}
10000238:	2501      	movs	r5, #1
1000023a:	4604      	mov	r4, r0
1000023c:	b333      	cbz	r3, 1000028c <protothread_toggle25+0x58>
1000023e:	4e1b      	ldr	r6, [pc, #108]	@ (100002ac <protothread_toggle25+0x78>)
10000240:	6026      	str	r6, [r4, #0]
10000242:	b90d      	cbnz	r5, 10000248 <protothread_toggle25+0x14>
10000244:	2001      	movs	r0, #1
10000246:	bd70      	pop	{r4, r5, r6, pc}
10000248:	f004 f8c6 	bl	100043d8 <time_us_64>
1000024c:	4d18      	ldr	r5, [pc, #96]	@ (100002b0 <protothread_toggle25+0x7c>)
1000024e:	e9d5 2300 	ldrd	r2, r3, [r5]
10000252:	4290      	cmp	r0, r2
10000254:	4199      	sbcs	r1, r3
10000256:	d3f5      	bcc.n	10000244 <protothread_toggle25+0x10>
10000258:	f04f 4350 	mov.w	r3, #3489660928	@ 0xd0000000
1000025c:	681b      	ldr	r3, [r3, #0]
1000025e:	2b01      	cmp	r3, #1
10000260:	d020      	beq.n	100002a4 <protothread_toggle25+0x70>
10000262:	2201      	movs	r2, #1
10000264:	4b13      	ldr	r3, [pc, #76]	@ (100002b4 <protothread_toggle25+0x80>)
10000266:	601a      	str	r2, [r3, #0]
10000268:	f004 f8b6 	bl	100043d8 <time_us_64>
1000026c:	4a12      	ldr	r2, [pc, #72]	@ (100002b8 <protothread_toggle25+0x84>)
1000026e:	4b13      	ldr	r3, [pc, #76]	@ (100002bc <protothread_toggle25+0x88>)
10000270:	18c0      	adds	r0, r0, r3
10000272:	7813      	ldrb	r3, [r2, #0]
10000274:	f141 0100 	adc.w	r1, r1, #0
10000278:	f083 0301 	eor.w	r3, r3, #1
1000027c:	6069      	str	r1, [r5, #4]
1000027e:	6028      	str	r0, [r5, #0]
10000280:	2119      	movs	r1, #25
10000282:	7013      	strb	r3, [r2, #0]
10000284:	ec43 1040 	gpioc_bit_out_put r1, r3
10000288:	2500      	movs	r5, #0
1000028a:	e7d9      	b.n	10000240 <protothread_toggle25+0xc>
1000028c:	2019      	movs	r0, #25
1000028e:	f003 fbdd 	bl	10003a4c <gpio_init>
10000292:	2319      	movs	r3, #25
10000294:	ec45 3044 	gpioc_bit_oe_put r3, r5
10000298:	ec45 3040 	gpioc_bit_out_put r3, r5
1000029c:	4b03      	ldr	r3, [pc, #12]	@ (100002ac <protothread_toggle25+0x78>)
1000029e:	2001      	movs	r0, #1
100002a0:	6023      	str	r3, [r4, #0]
100002a2:	bd70      	pop	{r4, r5, r6, pc}
100002a4:	4a06      	ldr	r2, [pc, #24]	@ (100002c0 <protothread_toggle25+0x8c>)
100002a6:	6013      	str	r3, [r2, #0]
100002a8:	e7de      	b.n	10000268 <protothread_toggle25+0x34>
100002aa:	bf00      	nop
100002ac:	10000240 	.word	0x10000240
100002b0:	20000ec0 	.word	0x20000ec0
100002b4:	200011b0 	.word	0x200011b0
100002b8:	20026d32 	.word	0x20026d32
100002bc:	000186a0 	.word	0x000186a0
100002c0:	200011b4 	.word	0x200011b4

100002c4 <protothread_graphics>:
100002c4:	e92d 4ff0 	stmdb	sp!, {r4, r5, r6, r7, r8, r9, sl, fp, lr}
100002c8:	6804      	ldr	r4, [r0, #0]
100002ca:	2601      	movs	r6, #1
100002cc:	4605      	mov	r5, r0
100002ce:	b095      	sub	sp, #84	@ 0x54
100002d0:	2c00      	cmp	r4, #0
100002d2:	f000 8175 	beq.w	100005c0 <protothread_graphics+0x2fc>
100002d6:	4ba0      	ldr	r3, [pc, #640]	@ (10000558 <protothread_graphics+0x294>)
100002d8:	602b      	str	r3, [r5, #0]
100002da:	b91e      	cbnz	r6, 100002e4 <protothread_graphics+0x20>
100002dc:	2001      	movs	r0, #1
100002de:	b015      	add	sp, #84	@ 0x54
100002e0:	e8bd 8ff0 	ldmia.w	sp!, {r4, r5, r6, r7, r8, r9, sl, fp, pc}
100002e4:	f004 f878 	bl	100043d8 <time_us_64>
100002e8:	4b9c      	ldr	r3, [pc, #624]	@ (1000055c <protothread_graphics+0x298>)
100002ea:	e9d3 2300 	ldrd	r2, r3, [r3]
100002ee:	4290      	cmp	r0, r2
100002f0:	4199      	sbcs	r1, r3
100002f2:	d3f3      	bcc.n	100002dc <protothread_graphics+0x18>
100002f4:	f04f 4350 	mov.w	r3, #3489660928	@ 0xd0000000
100002f8:	681b      	ldr	r3, [r3, #0]
100002fa:	2b01      	cmp	r3, #1
100002fc:	f000 8129 	beq.w	10000552 <protothread_graphics+0x28e>
10000300:	2201      	movs	r2, #1
10000302:	4b97      	ldr	r3, [pc, #604]	@ (10000560 <protothread_graphics+0x29c>)
10000304:	601a      	str	r2, [r3, #0]
10000306:	4b97      	ldr	r3, [pc, #604]	@ (10000564 <protothread_graphics+0x2a0>)
10000308:	781a      	ldrb	r2, [r3, #0]
1000030a:	2a00      	cmp	r2, #0
1000030c:	f040 8421 	bne.w	10000b52 <protothread_graphics+0x88e>
10000310:	f04f 4350 	mov.w	r3, #3489660928	@ 0xd0000000
10000314:	4994      	ldr	r1, [pc, #592]	@ (10000568 <protothread_graphics+0x2a4>)
10000316:	680a      	ldr	r2, [r1, #0]
10000318:	3201      	adds	r2, #1
1000031a:	600a      	str	r2, [r1, #0]
1000031c:	685c      	ldr	r4, [r3, #4]
1000031e:	f414 3400 	ands.w	r4, r4, #131072	@ 0x20000
10000322:	d1fb      	bne.n	1000031c <protothread_graphics+0x58>
10000324:	4b91      	ldr	r3, [pc, #580]	@ (1000056c <protothread_graphics+0x2a8>)
10000326:	f44f 7220 	mov.w	r2, #640	@ 0x280
1000032a:	f9b3 3000 	ldrsh.w	r3, [r3]
1000032e:	2132      	movs	r1, #50	@ 0x32
10000330:	4620      	mov	r0, r4
10000332:	9300      	str	r3, [sp, #0]
10000334:	2396      	movs	r3, #150	@ 0x96
10000336:	f003 f9c9 	bl	100036cc <clearRect>
1000033a:	f8df b274 	ldr.w	fp, [pc, #628]	@ 100005b0 <protothread_graphics+0x2ec>
1000033e:	f004 f84b 	bl	100043d8 <time_us_64>
10000342:	4b8b      	ldr	r3, [pc, #556]	@ (10000570 <protothread_graphics+0x2ac>)
10000344:	222d      	movs	r2, #45	@ 0x2d
10000346:	781b      	ldrb	r3, [r3, #0]
10000348:	2164      	movs	r1, #100	@ 0x64
1000034a:	f9bb 0000 	ldrsh.w	r0, [fp]
1000034e:	f002 f833 	bl	100023b8 <fillCircle>
10000352:	f8bb 0000 	ldrh.w	r0, [fp]
10000356:	2164      	movs	r1, #100	@ 0x64
10000358:	3823      	subs	r0, #35	@ 0x23
1000035a:	b200      	sxth	r0, r0
1000035c:	f002 fe90 	bl	10003080 <setCursor>
10000360:	4621      	mov	r1, r4
10000362:	200f      	movs	r0, #15
10000364:	f002 fea8 	bl	100030b8 <setTextColor2>
10000368:	4882      	ldr	r0, [pc, #520]	@ (10000574 <protothread_graphics+0x2b0>)
1000036a:	f003 f915 	bl	10003598 <writeStringBold>
1000036e:	f8df a244 	ldr.w	sl, [pc, #580]	@ 100005b4 <protothread_graphics+0x2f0>
10000372:	4b81      	ldr	r3, [pc, #516]	@ (10000578 <protothread_graphics+0x2b4>)
10000374:	222d      	movs	r2, #45	@ 0x2d
10000376:	781b      	ldrb	r3, [r3, #0]
10000378:	2164      	movs	r1, #100	@ 0x64
1000037a:	f9ba 0000 	ldrsh.w	r0, [sl]
1000037e:	f001 fe13 	bl	10001fa8 <drawCircle>
10000382:	f8ba 0000 	ldrh.w	r0, [sl]
10000386:	2164      	movs	r1, #100	@ 0x64
10000388:	3823      	subs	r0, #35	@ 0x23
1000038a:	b200      	sxth	r0, r0
1000038c:	f002 fe78 	bl	10003080 <setCursor>
10000390:	4621      	mov	r1, r4
10000392:	200f      	movs	r0, #15
10000394:	f002 fe90 	bl	100030b8 <setTextColor2>
10000398:	4878      	ldr	r0, [pc, #480]	@ (1000057c <protothread_graphics+0x2b8>)
1000039a:	f003 f8fd 	bl	10003598 <writeStringBold>
1000039e:	2355      	movs	r3, #85	@ 0x55
100003a0:	4a77      	ldr	r2, [pc, #476]	@ (10000580 <protothread_graphics+0x2bc>)
100003a2:	f8df 9214 	ldr.w	r9, [pc, #532]	@ 100005b8 <protothread_graphics+0x2f4>
100003a6:	7812      	ldrb	r2, [r2, #0]
100003a8:	2134      	movs	r1, #52	@ 0x34
100003aa:	9200      	str	r2, [sp, #0]
100003ac:	f9b9 0000 	ldrsh.w	r0, [r9]
100003b0:	461a      	mov	r2, r3
100003b2:	f002 fd7b 	bl	10002eac <fillRect>
100003b6:	f8b9 0000 	ldrh.w	r0, [r9]
100003ba:	2164      	movs	r1, #100	@ 0x64
100003bc:	3005      	adds	r0, #5
100003be:	b200      	sxth	r0, r0
100003c0:	f002 fe5e 	bl	10003080 <setCursor>
100003c4:	4621      	mov	r1, r4
100003c6:	200f      	movs	r0, #15
100003c8:	f002 fe76 	bl	100030b8 <setTextColor2>
100003cc:	486d      	ldr	r0, [pc, #436]	@ (10000584 <protothread_graphics+0x2c0>)
100003ce:	f003 f8e3 	bl	10003598 <writeStringBold>
100003d2:	2355      	movs	r3, #85	@ 0x55
100003d4:	4a6c      	ldr	r2, [pc, #432]	@ (10000588 <protothread_graphics+0x2c4>)
100003d6:	f8df 81e4 	ldr.w	r8, [pc, #484]	@ 100005bc <protothread_graphics+0x2f8>
100003da:	7812      	ldrb	r2, [r2, #0]
100003dc:	2134      	movs	r1, #52	@ 0x34
100003de:	9200      	str	r2, [sp, #0]
100003e0:	f9b8 0000 	ldrsh.w	r0, [r8]
100003e4:	461a      	mov	r2, r3
100003e6:	f001 fd51 	bl	10001e8c <drawRect>
100003ea:	f8b8 0000 	ldrh.w	r0, [r8]
100003ee:	2605      	movs	r6, #5
100003f0:	3005      	adds	r0, #5
100003f2:	2164      	movs	r1, #100	@ 0x64
100003f4:	b200      	sxth	r0, r0
100003f6:	f002 fe43 	bl	10003080 <setCursor>
100003fa:	4621      	mov	r1, r4
100003fc:	200f      	movs	r0, #15
100003fe:	f002 fe5b 	bl	100030b8 <setTextColor2>
10000402:	4862      	ldr	r0, [pc, #392]	@ (1000058c <protothread_graphics+0x2c8>)
10000404:	f003 f8c8 	bl	10003598 <writeStringBold>
10000408:	233c      	movs	r3, #60	@ 0x3c
1000040a:	4a61      	ldr	r2, [pc, #388]	@ (10000590 <protothread_graphics+0x2cc>)
1000040c:	4f61      	ldr	r7, [pc, #388]	@ (10000594 <protothread_graphics+0x2d0>)
1000040e:	7812      	ldrb	r2, [r2, #0]
10000410:	4619      	mov	r1, r3
10000412:	e9cd 6200 	strd	r6, r2, [sp]
10000416:	2256      	movs	r2, #86	@ 0x56
10000418:	f9b7 0000 	ldrsh.w	r0, [r7]
1000041c:	f002 fb8a 	bl	10002b34 <fillRoundRect>
10000420:	8838      	ldrh	r0, [r7, #0]
10000422:	2164      	movs	r1, #100	@ 0x64
10000424:	3001      	adds	r0, #1
10000426:	b200      	sxth	r0, r0
10000428:	f002 fe2a 	bl	10003080 <setCursor>
1000042c:	4621      	mov	r1, r4
1000042e:	200f      	movs	r0, #15
10000430:	f002 fe42 	bl	100030b8 <setTextColor2>
10000434:	4858      	ldr	r0, [pc, #352]	@ (10000598 <protothread_graphics+0x2d4>)
10000436:	f003 f8af 	bl	10003598 <writeStringBold>
1000043a:	4b58      	ldr	r3, [pc, #352]	@ (1000059c <protothread_graphics+0x2d8>)
1000043c:	9600      	str	r6, [sp, #0]
1000043e:	781b      	ldrb	r3, [r3, #0]
10000440:	4e57      	ldr	r6, [pc, #348]	@ (100005a0 <protothread_graphics+0x2dc>)
10000442:	9301      	str	r3, [sp, #4]
10000444:	2256      	movs	r2, #86	@ 0x56
10000446:	233c      	movs	r3, #60	@ 0x3c
10000448:	2146      	movs	r1, #70	@ 0x46
1000044a:	f9b6 0000 	ldrsh.w	r0, [r6]
1000044e:	f002 f919 	bl	10002684 <drawRoundRect>
10000452:	8830      	ldrh	r0, [r6, #0]
10000454:	2164      	movs	r1, #100	@ 0x64
10000456:	3001      	adds	r0, #1
10000458:	b200      	sxth	r0, r0
1000045a:	f002 fe11 	bl	10003080 <setCursor>
1000045e:	4621      	mov	r1, r4
10000460:	200f      	movs	r0, #15
10000462:	f002 fe29 	bl	100030b8 <setTextColor2>
10000466:	484f      	ldr	r0, [pc, #316]	@ (100005a4 <protothread_graphics+0x2e0>)
10000468:	f003 f896 	bl	10003598 <writeStringBold>
1000046c:	4b3e      	ldr	r3, [pc, #248]	@ (10000568 <protothread_graphics+0x2a4>)
1000046e:	f240 207e 	movw	r0, #638	@ 0x27e
10000472:	681b      	ldr	r3, [r3, #0]
10000474:	f8b9 c000 	ldrh.w	ip, [r9]
10000478:	43db      	mvns	r3, r3
1000047a:	f10c 0c01 	add.w	ip, ip, #1
1000047e:	f8a9 c000 	strh.w	ip, [r9]
10000482:	f8b8 c000 	ldrh.w	ip, [r8]
10000486:	f003 0301 	and.w	r3, r3, #1
1000048a:	449c      	add	ip, r3
1000048c:	f8a8 c000 	strh.w	ip, [r8]
10000490:	f8b7 c000 	ldrh.w	ip, [r7]
10000494:	f8bb 1000 	ldrh.w	r1, [fp]
10000498:	f8ba 2000 	ldrh.w	r2, [sl]
1000049c:	4463      	add	r3, ip
1000049e:	3102      	adds	r1, #2
100004a0:	803b      	strh	r3, [r7, #0]
100004a2:	8833      	ldrh	r3, [r6, #0]
100004a4:	b209      	sxth	r1, r1
100004a6:	3205      	adds	r2, #5
100004a8:	b212      	sxth	r2, r2
100004aa:	3301      	adds	r3, #1
100004ac:	4281      	cmp	r1, r0
100004ae:	f8ab 1000 	strh.w	r1, [fp]
100004b2:	f8aa 2000 	strh.w	r2, [sl]
100004b6:	8033      	strh	r3, [r6, #0]
100004b8:	f300 8387 	bgt.w	10000bca <protothread_graphics+0x906>
100004bc:	f240 237e 	movw	r3, #638	@ 0x27e
100004c0:	429a      	cmp	r2, r3
100004c2:	f300 8378 	bgt.w	10000bb6 <protothread_graphics+0x8f2>
100004c6:	f240 237e 	movw	r3, #638	@ 0x27e
100004ca:	f9b9 2000 	ldrsh.w	r2, [r9]
100004ce:	429a      	cmp	r2, r3
100004d0:	f300 8367 	bgt.w	10000ba2 <protothread_graphics+0x8de>
100004d4:	f240 237e 	movw	r3, #638	@ 0x27e
100004d8:	f9b8 2000 	ldrsh.w	r2, [r8]
100004dc:	429a      	cmp	r2, r3
100004de:	f300 8356 	bgt.w	10000b8e <protothread_graphics+0x8ca>
100004e2:	f240 237e 	movw	r3, #638	@ 0x27e
100004e6:	f9b7 2000 	ldrsh.w	r2, [r7]
100004ea:	429a      	cmp	r2, r3
100004ec:	f300 8346 	bgt.w	10000b7c <protothread_graphics+0x8b8>
100004f0:	f240 237e 	movw	r3, #638	@ 0x27e
100004f4:	f9b6 2000 	ldrsh.w	r2, [r6]
100004f8:	429a      	cmp	r2, r3
100004fa:	f300 8336 	bgt.w	10000b6a <protothread_graphics+0x8a6>
100004fe:	9b03      	ldr	r3, [sp, #12]
10000500:	220f      	movs	r2, #15
10000502:	3301      	adds	r3, #1
10000504:	b2dc      	uxtb	r4, r3
10000506:	2164      	movs	r1, #100	@ 0x64
10000508:	f44f 70a0 	mov.w	r0, #320	@ 0x140
1000050c:	9403      	str	r4, [sp, #12]
1000050e:	f003 f911 	bl	10003734 <crosshair>
10000512:	21a0      	movs	r1, #160	@ 0xa0
10000514:	f44f 70a0 	mov.w	r0, #320	@ 0x140
10000518:	f002 fdb2 	bl	10003080 <setCursor>
1000051c:	2c19      	cmp	r4, #25
1000051e:	f240 831f 	bls.w	10000b60 <protothread_graphics+0x89c>
10000522:	210f      	movs	r1, #15
10000524:	2000      	movs	r0, #0
10000526:	f002 fdc7 	bl	100030b8 <setTextColor2>
1000052a:	2c33      	cmp	r4, #51	@ 0x33
1000052c:	bf34      	ite	cc
1000052e:	4623      	movcc	r3, r4
10000530:	2300      	movcs	r3, #0
10000532:	9303      	str	r3, [sp, #12]
10000534:	481c      	ldr	r0, [pc, #112]	@ (100005a8 <protothread_graphics+0x2e4>)
10000536:	f003 f803 	bl	10003540 <writeStringBig>
1000053a:	f003 ff4d 	bl	100043d8 <time_us_64>
1000053e:	f644 6220 	movw	r2, #20000	@ 0x4e20
10000542:	4b06      	ldr	r3, [pc, #24]	@ (1000055c <protothread_graphics+0x298>)
10000544:	1880      	adds	r0, r0, r2
10000546:	f141 0100 	adc.w	r1, r1, #0
1000054a:	2600      	movs	r6, #0
1000054c:	6018      	str	r0, [r3, #0]
1000054e:	6059      	str	r1, [r3, #4]
10000550:	e6c1      	b.n	100002d6 <protothread_graphics+0x12>
10000552:	4a16      	ldr	r2, [pc, #88]	@ (100005ac <protothread_graphics+0x2e8>)
10000554:	6013      	str	r3, [r2, #0]
10000556:	e6d6      	b.n	10000306 <protothread_graphics+0x42>
10000558:	100002d6 	.word	0x100002d6
1000055c:	20000f78 	.word	0x20000f78
10000560:	200011b0 	.word	0x200011b0
10000564:	2000063e 	.word	0x2000063e
10000568:	20001520 	.word	0x20001520
1000056c:	2000111c 	.word	0x2000111c
10000570:	2000063c 	.word	0x2000063c
10000574:	1000d030 	.word	0x1000d030
10000578:	20000638 	.word	0x20000638
1000057c:	1000d03c 	.word	0x1000d03c
10000580:	20000634 	.word	0x20000634
10000584:	1000d048 	.word	0x1000d048
10000588:	20000630 	.word	0x20000630
1000058c:	1000d054 	.word	0x1000d054
10000590:	2000062c 	.word	0x2000062c
10000594:	2000062e 	.word	0x2000062e
10000598:	1000d060 	.word	0x1000d060
1000059c:	20000628 	.word	0x20000628
100005a0:	2000062a 	.word	0x2000062a
100005a4:	1000d070 	.word	0x1000d070
100005a8:	1000d080 	.word	0x1000d080
100005ac:	200011b4 	.word	0x200011b4
100005b0:	20026d2e 	.word	0x20026d2e
100005b4:	2000063a 	.word	0x2000063a
100005b8:	20000636 	.word	0x20000636
100005bc:	20000632 	.word	0x20000632
100005c0:	2708      	movs	r7, #8
100005c2:	2332      	movs	r3, #50	@ 0x32
100005c4:	22dc      	movs	r2, #220	@ 0xdc
100005c6:	4621      	mov	r1, r4
100005c8:	200e      	movs	r0, #14
100005ca:	9700      	str	r7, [sp, #0]
100005cc:	f002 fc6e 	bl	10002eac <fillRect>
100005d0:	210b      	movs	r1, #11
100005d2:	2332      	movs	r3, #50	@ 0x32
100005d4:	22b0      	movs	r2, #176	@ 0xb0
100005d6:	20fa      	movs	r0, #250	@ 0xfa
100005d8:	9100      	str	r1, [sp, #0]
100005da:	4621      	mov	r1, r4
100005dc:	f002 fc66 	bl	10002eac <fillRect>
100005e0:	2103      	movs	r1, #3
100005e2:	2332      	movs	r3, #50	@ 0x32
100005e4:	22b0      	movs	r2, #176	@ 0xb0
100005e6:	f240 10b3 	movw	r0, #435	@ 0x1b3
100005ea:	9100      	str	r1, [sp, #0]
100005ec:	4621      	mov	r1, r4
100005ee:	f002 fc5d 	bl	10002eac <fillRect>
100005f2:	200f      	movs	r0, #15
100005f4:	f002 fd56 	bl	100030a4 <setTextColor>
100005f8:	4621      	mov	r1, r4
100005fa:	200f      	movs	r0, #15
100005fc:	f002 fd40 	bl	10003080 <setCursor>
10000600:	4630      	mov	r0, r6
10000602:	f002 fd47 	bl	10003094 <setTextSize>
10000606:	48e4      	ldr	r0, [pc, #912]	@ (10000998 <protothread_graphics+0x6d4>)
10000608:	f002 fd60 	bl	100030cc <writeString>
1000060c:	210a      	movs	r1, #10
1000060e:	200f      	movs	r0, #15
10000610:	f002 fd36 	bl	10003080 <setCursor>
10000614:	48e1      	ldr	r0, [pc, #900]	@ (1000099c <protothread_graphics+0x6d8>)
10000616:	f002 fd59 	bl	100030cc <writeString>
1000061a:	2114      	movs	r1, #20
1000061c:	200f      	movs	r0, #15
1000061e:	f002 fd2f 	bl	10003080 <setCursor>
10000622:	48df      	ldr	r0, [pc, #892]	@ (100009a0 <protothread_graphics+0x6dc>)
10000624:	f002 fd52 	bl	100030cc <writeString>
10000628:	211e      	movs	r1, #30
1000062a:	200f      	movs	r0, #15
1000062c:	f002 fd28 	bl	10003080 <setCursor>
10000630:	48dc      	ldr	r0, [pc, #880]	@ (100009a4 <protothread_graphics+0x6e0>)
10000632:	f002 fd4b 	bl	100030cc <writeString>
10000636:	210a      	movs	r1, #10
10000638:	20ff      	movs	r0, #255	@ 0xff
1000063a:	f002 fd21 	bl	10003080 <setCursor>
1000063e:	4620      	mov	r0, r4
10000640:	f002 fd30 	bl	100030a4 <setTextColor>
10000644:	48d8      	ldr	r0, [pc, #864]	@ (100009a8 <protothread_graphics+0x6e4>)
10000646:	f002 ff7b 	bl	10003540 <writeStringBig>
1000064a:	210a      	movs	r1, #10
1000064c:	f44f 70db 	mov.w	r0, #438	@ 0x1b6
10000650:	f002 fd16 	bl	10003080 <setCursor>
10000654:	4620      	mov	r0, r4
10000656:	f002 fd25 	bl	100030a4 <setTextColor>
1000065a:	4630      	mov	r0, r6
1000065c:	f002 fd1a 	bl	10003094 <setTextSize>
10000660:	48d2      	ldr	r0, [pc, #840]	@ (100009ac <protothread_graphics+0x6e8>)
10000662:	f002 fd33 	bl	100030cc <writeString>
10000666:	2114      	movs	r1, #20
10000668:	f44f 70db 	mov.w	r0, #438	@ 0x1b6
1000066c:	f002 fd08 	bl	10003080 <setCursor>
10000670:	48cf      	ldr	r0, [pc, #828]	@ (100009b0 <protothread_graphics+0x6ec>)
10000672:	f002 fd2b 	bl	100030cc <writeString>
10000676:	211e      	movs	r1, #30
10000678:	f44f 70db 	mov.w	r0, #438	@ 0x1b6
1000067c:	f002 fd00 	bl	10003080 <setCursor>
10000680:	48cc      	ldr	r0, [pc, #816]	@ (100009b4 <protothread_graphics+0x6f0>)
10000682:	f002 fd23 	bl	100030cc <writeString>
10000686:	200f      	movs	r0, #15
10000688:	f002 fd0c 	bl	100030a4 <setTextColor>
1000068c:	4621      	mov	r1, r4
1000068e:	200f      	movs	r0, #15
10000690:	f002 fd12 	bl	100030b8 <setTextColor2>
10000694:	4630      	mov	r0, r6
10000696:	f002 fcfd 	bl	10003094 <setTextSize>
1000069a:	f04f 0a14 	mov.w	sl, #20
1000069e:	46a0      	mov	r8, r4
100006a0:	4647      	mov	r7, r8
100006a2:	2496      	movs	r4, #150	@ 0x96
100006a4:	fa0f f98a 	sxth.w	r9, sl
100006a8:	233c      	movs	r3, #60	@ 0x3c
100006aa:	b226      	sxth	r6, r4
100006ac:	b2fa      	uxtb	r2, r7
100006ae:	4631      	mov	r1, r6
100006b0:	4648      	mov	r0, r9
100006b2:	9200      	str	r2, [sp, #0]
100006b4:	461a      	mov	r2, r3
100006b6:	f002 fbf9 	bl	10002eac <fillRect>
100006ba:	4631      	mov	r1, r6
100006bc:	4648      	mov	r0, r9
100006be:	f002 fcdf 	bl	10003080 <setCursor>
100006c2:	3446      	adds	r4, #70	@ 0x46
100006c4:	463a      	mov	r2, r7
100006c6:	49bc      	ldr	r1, [pc, #752]	@ (100009b8 <protothread_graphics+0x6f4>)
100006c8:	a804      	add	r0, sp, #16
100006ca:	f006 f8b9 	bl	10006840 <__wrap_sprintf>
100006ce:	b2a4      	uxth	r4, r4
100006d0:	a804      	add	r0, sp, #16
100006d2:	f002 fcfb 	bl	100030cc <writeString>
100006d6:	f5b4 7fd7 	cmp.w	r4, #430	@ 0x1ae
100006da:	f107 0704 	add.w	r7, r7, #4
100006de:	d1e3      	bne.n	100006a8 <protothread_graphics+0x3e4>
100006e0:	f108 0801 	add.w	r8, r8, #1
100006e4:	f10a 0a46 	add.w	sl, sl, #70	@ 0x46
100006e8:	f1b8 0f04 	cmp.w	r8, #4
100006ec:	fa1f fa8a 	uxth.w	sl, sl
100006f0:	d1d6      	bne.n	100006a0 <protothread_graphics+0x3dc>
100006f2:	21c8      	movs	r1, #200	@ 0xc8
100006f4:	2014      	movs	r0, #20
100006f6:	f002 fcc3 	bl	10003080 <setCursor>
100006fa:	48b0      	ldr	r0, [pc, #704]	@ (100009bc <protothread_graphics+0x6f8>)
100006fc:	f002 fce6 	bl	100030cc <writeString>
10000700:	21c8      	movs	r1, #200	@ 0xc8
10000702:	205a      	movs	r0, #90	@ 0x5a
10000704:	f002 fcbc 	bl	10003080 <setCursor>
10000708:	48ad      	ldr	r0, [pc, #692]	@ (100009c0 <protothread_graphics+0x6fc>)
1000070a:	f002 fcdf 	bl	100030cc <writeString>
1000070e:	21c8      	movs	r1, #200	@ 0xc8
10000710:	20a0      	movs	r0, #160	@ 0xa0
10000712:	f002 fcb5 	bl	10003080 <setCursor>
10000716:	48ab      	ldr	r0, [pc, #684]	@ (100009c4 <protothread_graphics+0x700>)
10000718:	f002 fcd8 	bl	100030cc <writeString>
1000071c:	21c8      	movs	r1, #200	@ 0xc8
1000071e:	20e6      	movs	r0, #230	@ 0xe6
10000720:	f002 fcae 	bl	10003080 <setCursor>
10000724:	48a8      	ldr	r0, [pc, #672]	@ (100009c8 <protothread_graphics+0x704>)
10000726:	f002 fcd1 	bl	100030cc <writeString>
1000072a:	f44f 7187 	mov.w	r1, #270	@ 0x10e
1000072e:	2014      	movs	r0, #20
10000730:	f002 fca6 	bl	10003080 <setCursor>
10000734:	48a5      	ldr	r0, [pc, #660]	@ (100009cc <protothread_graphics+0x708>)
10000736:	f002 fcc9 	bl	100030cc <writeString>
1000073a:	f44f 7187 	mov.w	r1, #270	@ 0x10e
1000073e:	205a      	movs	r0, #90	@ 0x5a
10000740:	f002 fc9e 	bl	10003080 <setCursor>
10000744:	48a2      	ldr	r0, [pc, #648]	@ (100009d0 <protothread_graphics+0x70c>)
10000746:	f002 fcc1 	bl	100030cc <writeString>
1000074a:	f44f 7187 	mov.w	r1, #270	@ 0x10e
1000074e:	20a0      	movs	r0, #160	@ 0xa0
10000750:	f002 fc96 	bl	10003080 <setCursor>
10000754:	489f      	ldr	r0, [pc, #636]	@ (100009d4 <protothread_graphics+0x710>)
10000756:	f002 fcb9 	bl	100030cc <writeString>
1000075a:	f44f 7187 	mov.w	r1, #270	@ 0x10e
1000075e:	20e6      	movs	r0, #230	@ 0xe6
10000760:	f002 fc8e 	bl	10003080 <setCursor>
10000764:	489c      	ldr	r0, [pc, #624]	@ (100009d8 <protothread_graphics+0x714>)
10000766:	f002 fcb1 	bl	100030cc <writeString>
1000076a:	f44f 71aa 	mov.w	r1, #340	@ 0x154
1000076e:	2014      	movs	r0, #20
10000770:	f002 fc86 	bl	10003080 <setCursor>
10000774:	4899      	ldr	r0, [pc, #612]	@ (100009dc <protothread_graphics+0x718>)
10000776:	f002 fca9 	bl	100030cc <writeString>
1000077a:	f44f 71aa 	mov.w	r1, #340	@ 0x154
1000077e:	205a      	movs	r0, #90	@ 0x5a
10000780:	f002 fc7e 	bl	10003080 <setCursor>
10000784:	4896      	ldr	r0, [pc, #600]	@ (100009e0 <protothread_graphics+0x71c>)
10000786:	f002 fca1 	bl	100030cc <writeString>
1000078a:	f44f 71aa 	mov.w	r1, #340	@ 0x154
1000078e:	20a0      	movs	r0, #160	@ 0xa0
10000790:	f002 fc76 	bl	10003080 <setCursor>
10000794:	4893      	ldr	r0, [pc, #588]	@ (100009e4 <protothread_graphics+0x720>)
10000796:	f002 fc99 	bl	100030cc <writeString>
1000079a:	f44f 71aa 	mov.w	r1, #340	@ 0x154
1000079e:	20e6      	movs	r0, #230	@ 0xe6
100007a0:	f002 fc6e 	bl	10003080 <setCursor>
100007a4:	4890      	ldr	r0, [pc, #576]	@ (100009e8 <protothread_graphics+0x724>)
100007a6:	f002 fc91 	bl	100030cc <writeString>
100007aa:	f44f 71cd 	mov.w	r1, #410	@ 0x19a
100007ae:	2014      	movs	r0, #20
100007b0:	f002 fc66 	bl	10003080 <setCursor>
100007b4:	488d      	ldr	r0, [pc, #564]	@ (100009ec <protothread_graphics+0x728>)
100007b6:	f002 fc89 	bl	100030cc <writeString>
100007ba:	f44f 71cd 	mov.w	r1, #410	@ 0x19a
100007be:	205a      	movs	r0, #90	@ 0x5a
100007c0:	f002 fc5e 	bl	10003080 <setCursor>
100007c4:	488a      	ldr	r0, [pc, #552]	@ (100009f0 <protothread_graphics+0x72c>)
100007c6:	f002 fc81 	bl	100030cc <writeString>
100007ca:	f44f 71cd 	mov.w	r1, #410	@ 0x19a
100007ce:	20a0      	movs	r0, #160	@ 0xa0
100007d0:	f002 fc56 	bl	10003080 <setCursor>
100007d4:	4887      	ldr	r0, [pc, #540]	@ (100009f4 <protothread_graphics+0x730>)
100007d6:	f002 fc79 	bl	100030cc <writeString>
100007da:	f44f 71cd 	mov.w	r1, #410	@ 0x19a
100007de:	20e6      	movs	r0, #230	@ 0xe6
100007e0:	f002 fc4e 	bl	10003080 <setCursor>
100007e4:	4884      	ldr	r0, [pc, #528]	@ (100009f8 <protothread_graphics+0x734>)
100007e6:	f002 fc71 	bl	100030cc <writeString>
100007ea:	2196      	movs	r1, #150	@ 0x96
100007ec:	f44f 70a5 	mov.w	r0, #330	@ 0x14a
100007f0:	f002 fc46 	bl	10003080 <setCursor>
100007f4:	2100      	movs	r1, #0
100007f6:	2003      	movs	r0, #3
100007f8:	f002 fc5e 	bl	100030b8 <setTextColor2>
100007fc:	487f      	ldr	r0, [pc, #508]	@ (100009fc <protothread_graphics+0x738>)
100007fe:	f002 fc65 	bl	100030cc <writeString>
10000802:	219e      	movs	r1, #158	@ 0x9e
10000804:	f44f 70a5 	mov.w	r0, #330	@ 0x14a
10000808:	f002 fc3a 	bl	10003080 <setCursor>
1000080c:	2100      	movs	r1, #0
1000080e:	2008      	movs	r0, #8
10000810:	f002 fc52 	bl	100030b8 <setTextColor2>
10000814:	487a      	ldr	r0, [pc, #488]	@ (10000a00 <protothread_graphics+0x73c>)
10000816:	f002 fc59 	bl	100030cc <writeString>
1000081a:	21a6      	movs	r1, #166	@ 0xa6
1000081c:	f44f 70a5 	mov.w	r0, #330	@ 0x14a
10000820:	f002 fc2e 	bl	10003080 <setCursor>
10000824:	2100      	movs	r1, #0
10000826:	200a      	movs	r0, #10
10000828:	f002 fc46 	bl	100030b8 <setTextColor2>
1000082c:	4875      	ldr	r0, [pc, #468]	@ (10000a04 <protothread_graphics+0x740>)
1000082e:	f002 fc4d 	bl	100030cc <writeString>
10000832:	2100      	movs	r1, #0
10000834:	2006      	movs	r0, #6
10000836:	f002 fc3f 	bl	100030b8 <setTextColor2>
1000083a:	21ae      	movs	r1, #174	@ 0xae
1000083c:	f44f 70a5 	mov.w	r0, #330	@ 0x14a
10000840:	f002 fc1e 	bl	10003080 <setCursor>
10000844:	4870      	ldr	r0, [pc, #448]	@ (10000a08 <protothread_graphics+0x744>)
10000846:	f002 fc41 	bl	100030cc <writeString>
1000084a:	21b6      	movs	r1, #182	@ 0xb6
1000084c:	f44f 70a5 	mov.w	r0, #330	@ 0x14a
10000850:	f002 fc16 	bl	10003080 <setCursor>
10000854:	2100      	movs	r1, #0
10000856:	200d      	movs	r0, #13
10000858:	f002 fc2e 	bl	100030b8 <setTextColor2>
1000085c:	486b      	ldr	r0, [pc, #428]	@ (10000a0c <protothread_graphics+0x748>)
1000085e:	f002 fc35 	bl	100030cc <writeString>
10000862:	21c8      	movs	r1, #200	@ 0xc8
10000864:	f44f 70a5 	mov.w	r0, #330	@ 0x14a
10000868:	f002 fc0a 	bl	10003080 <setCursor>
1000086c:	2100      	movs	r1, #0
1000086e:	2003      	movs	r0, #3
10000870:	f002 fc22 	bl	100030b8 <setTextColor2>
10000874:	4866      	ldr	r0, [pc, #408]	@ (10000a10 <protothread_graphics+0x74c>)
10000876:	f002 fe8f 	bl	10003598 <writeStringBold>
1000087a:	21d0      	movs	r1, #208	@ 0xd0
1000087c:	f44f 70a5 	mov.w	r0, #330	@ 0x14a
10000880:	f002 fbfe 	bl	10003080 <setCursor>
10000884:	2100      	movs	r1, #0
10000886:	2008      	movs	r0, #8
10000888:	f002 fc16 	bl	100030b8 <setTextColor2>
1000088c:	485c      	ldr	r0, [pc, #368]	@ (10000a00 <protothread_graphics+0x73c>)
1000088e:	f002 fe83 	bl	10003598 <writeStringBold>
10000892:	21d8      	movs	r1, #216	@ 0xd8
10000894:	f44f 70a5 	mov.w	r0, #330	@ 0x14a
10000898:	f002 fbf2 	bl	10003080 <setCursor>
1000089c:	2100      	movs	r1, #0
1000089e:	200a      	movs	r0, #10
100008a0:	f002 fc0a 	bl	100030b8 <setTextColor2>
100008a4:	4857      	ldr	r0, [pc, #348]	@ (10000a04 <protothread_graphics+0x740>)
100008a6:	f002 fe77 	bl	10003598 <writeStringBold>
100008aa:	2100      	movs	r1, #0
100008ac:	2006      	movs	r0, #6
100008ae:	f002 fc03 	bl	100030b8 <setTextColor2>
100008b2:	21e0      	movs	r1, #224	@ 0xe0
100008b4:	f44f 70a5 	mov.w	r0, #330	@ 0x14a
100008b8:	f002 fbe2 	bl	10003080 <setCursor>
100008bc:	4852      	ldr	r0, [pc, #328]	@ (10000a08 <protothread_graphics+0x744>)
100008be:	f002 fe6b 	bl	10003598 <writeStringBold>
100008c2:	21e8      	movs	r1, #232	@ 0xe8
100008c4:	f44f 70a5 	mov.w	r0, #330	@ 0x14a
100008c8:	f002 fbda 	bl	10003080 <setCursor>
100008cc:	2100      	movs	r1, #0
100008ce:	200d      	movs	r0, #13
100008d0:	f002 fbf2 	bl	100030b8 <setTextColor2>
100008d4:	484d      	ldr	r0, [pc, #308]	@ (10000a0c <protothread_graphics+0x748>)
100008d6:	f002 fe5f 	bl	10003598 <writeStringBold>
100008da:	2002      	movs	r0, #2
100008dc:	f002 fbda 	bl	10003094 <setTextSize>
100008e0:	21fa      	movs	r1, #250	@ 0xfa
100008e2:	f44f 7096 	mov.w	r0, #300	@ 0x12c
100008e6:	f002 fbcb 	bl	10003080 <setCursor>
100008ea:	2100      	movs	r1, #0
100008ec:	2003      	movs	r0, #3
100008ee:	f002 fbe3 	bl	100030b8 <setTextColor2>
100008f2:	4848      	ldr	r0, [pc, #288]	@ (10000a14 <protothread_graphics+0x750>)
100008f4:	260f      	movs	r6, #15
100008f6:	f002 fbe9 	bl	100030cc <writeString>
100008fa:	f44f 7185 	mov.w	r1, #266	@ 0x10a
100008fe:	f44f 7096 	mov.w	r0, #300	@ 0x12c
10000902:	f002 fbbd 	bl	10003080 <setCursor>
10000906:	2100      	movs	r1, #0
10000908:	2008      	movs	r0, #8
1000090a:	f002 fbd5 	bl	100030b8 <setTextColor2>
1000090e:	483c      	ldr	r0, [pc, #240]	@ (10000a00 <protothread_graphics+0x73c>)
10000910:	f002 fbdc 	bl	100030cc <writeString>
10000914:	f44f 718d 	mov.w	r1, #282	@ 0x11a
10000918:	f44f 7096 	mov.w	r0, #300	@ 0x12c
1000091c:	f002 fbb0 	bl	10003080 <setCursor>
10000920:	2100      	movs	r1, #0
10000922:	200a      	movs	r0, #10
10000924:	f002 fbc8 	bl	100030b8 <setTextColor2>
10000928:	4836      	ldr	r0, [pc, #216]	@ (10000a04 <protothread_graphics+0x740>)
1000092a:	f002 fbcf 	bl	100030cc <writeString>
1000092e:	2100      	movs	r1, #0
10000930:	2006      	movs	r0, #6
10000932:	f002 fbc1 	bl	100030b8 <setTextColor2>
10000936:	f44f 7195 	mov.w	r1, #298	@ 0x12a
1000093a:	f44f 7096 	mov.w	r0, #300	@ 0x12c
1000093e:	f002 fb9f 	bl	10003080 <setCursor>
10000942:	4831      	ldr	r0, [pc, #196]	@ (10000a08 <protothread_graphics+0x744>)
10000944:	f002 fbc2 	bl	100030cc <writeString>
10000948:	f44f 719d 	mov.w	r1, #314	@ 0x13a
1000094c:	f44f 7096 	mov.w	r0, #300	@ 0x12c
10000950:	f002 fb96 	bl	10003080 <setCursor>
10000954:	2100      	movs	r1, #0
10000956:	200d      	movs	r0, #13
10000958:	f002 fbae 	bl	100030b8 <setTextColor2>
1000095c:	482b      	ldr	r0, [pc, #172]	@ (10000a0c <protothread_graphics+0x748>)
1000095e:	f002 fbb5 	bl	100030cc <writeString>
10000962:	2001      	movs	r0, #1
10000964:	f002 fb96 	bl	10003094 <setTextSize>
10000968:	f44f 71af 	mov.w	r1, #350	@ 0x15e
1000096c:	f44f 70a5 	mov.w	r0, #330	@ 0x14a
10000970:	f002 fb86 	bl	10003080 <setCursor>
10000974:	2100      	movs	r1, #0
10000976:	2003      	movs	r0, #3
10000978:	f002 fb9e 	bl	100030b8 <setTextColor2>
1000097c:	4826      	ldr	r0, [pc, #152]	@ (10000a18 <protothread_graphics+0x754>)
1000097e:	f002 fddf 	bl	10003540 <writeStringBig>
10000982:	f240 116d 	movw	r1, #365	@ 0x16d
10000986:	f44f 70a5 	mov.w	r0, #330	@ 0x14a
1000098a:	f002 fb79 	bl	10003080 <setCursor>
1000098e:	2100      	movs	r1, #0
10000990:	2008      	movs	r0, #8
10000992:	f002 fb91 	bl	100030b8 <setTextColor2>
10000996:	e041      	b.n	10000a1c <protothread_graphics+0x758>
10000998:	1000cd88 	.word	0x1000cd88
1000099c:	1000cdac 	.word	0x1000cdac
100009a0:	1000cdc8 	.word	0x1000cdc8
100009a4:	1000cde8 	.word	0x1000cde8
100009a8:	1000ce04 	.word	0x1000ce04
100009ac:	1000ce1c 	.word	0x1000ce1c
100009b0:	1000ce3c 	.word	0x1000ce3c
100009b4:	1000ce50 	.word	0x1000ce50
100009b8:	1000ce60 	.word	0x1000ce60
100009bc:	1000ce64 	.word	0x1000ce64
100009c0:	1000ce6c 	.word	0x1000ce6c
100009c4:	1000ce78 	.word	0x1000ce78
100009c8:	1000ce7c 	.word	0x1000ce7c
100009cc:	1000ce84 	.word	0x1000ce84
100009d0:	1000ce90 	.word	0x1000ce90
100009d4:	1000ce98 	.word	0x1000ce98
100009d8:	1000cea4 	.word	0x1000cea4
100009dc:	1000ceac 	.word	0x1000ceac
100009e0:	1000ceb0 	.word	0x1000ceb0
100009e4:	1000cebc 	.word	0x1000cebc
100009e8:	1000cec4 	.word	0x1000cec4
100009ec:	1000cecc 	.word	0x1000cecc
100009f0:	1000ced4 	.word	0x1000ced4
100009f4:	1000cedc 	.word	0x1000cedc
100009f8:	1000cee8 	.word	0x1000cee8
100009fc:	1000cef0 	.word	0x1000cef0
10000a00:	1000cf08 	.word	0x1000cf08
10000a04:	1000cf20 	.word	0x1000cf20
10000a08:	1000cf3c 	.word	0x1000cf3c
10000a0c:	1000cf58 	.word	0x1000cf58
10000a10:	1000cf64 	.word	0x1000cf64
10000a14:	1000cf80 	.word	0x1000cf80
10000a18:	1000cf98 	.word	0x1000cf98
10000a1c:	4870      	ldr	r0, [pc, #448]	@ (10000be0 <protothread_graphics+0x91c>)
10000a1e:	f002 fd8f 	bl	10003540 <writeStringBig>
10000a22:	f44f 71be 	mov.w	r1, #380	@ 0x17c
10000a26:	f44f 70a5 	mov.w	r0, #330	@ 0x14a
10000a2a:	f002 fb29 	bl	10003080 <setCursor>
10000a2e:	2100      	movs	r1, #0
10000a30:	200a      	movs	r0, #10
10000a32:	f002 fb41 	bl	100030b8 <setTextColor2>
10000a36:	486b      	ldr	r0, [pc, #428]	@ (10000be4 <protothread_graphics+0x920>)
10000a38:	f002 fd82 	bl	10003540 <writeStringBig>
10000a3c:	2100      	movs	r1, #0
10000a3e:	2006      	movs	r0, #6
10000a40:	f002 fb3a 	bl	100030b8 <setTextColor2>
10000a44:	f240 118b 	movw	r1, #395	@ 0x18b
10000a48:	f44f 70a5 	mov.w	r0, #330	@ 0x14a
10000a4c:	f002 fb18 	bl	10003080 <setCursor>
10000a50:	4865      	ldr	r0, [pc, #404]	@ (10000be8 <protothread_graphics+0x924>)
10000a52:	f002 fd75 	bl	10003540 <writeStringBig>
10000a56:	f44f 71cd 	mov.w	r1, #410	@ 0x19a
10000a5a:	f44f 70a5 	mov.w	r0, #330	@ 0x14a
10000a5e:	f002 fb0f 	bl	10003080 <setCursor>
10000a62:	2100      	movs	r1, #0
10000a64:	200d      	movs	r0, #13
10000a66:	f002 fb27 	bl	100030b8 <setTextColor2>
10000a6a:	4860      	ldr	r0, [pc, #384]	@ (10000bec <protothread_graphics+0x928>)
10000a6c:	f002 fd68 	bl	10003540 <writeStringBig>
10000a70:	230f      	movs	r3, #15
10000a72:	2232      	movs	r2, #50	@ 0x32
10000a74:	204b      	movs	r0, #75	@ 0x4b
10000a76:	4621      	mov	r1, r4
10000a78:	f001 f89e 	bl	10001bb8 <drawHLine>
10000a7c:	4621      	mov	r1, r4
10000a7e:	2005      	movs	r0, #5
10000a80:	f002 fafe 	bl	10003080 <setCursor>
10000a84:	2100      	movs	r1, #0
10000a86:	200f      	movs	r0, #15
10000a88:	f002 fb16 	bl	100030b8 <setTextColor2>
10000a8c:	4858      	ldr	r0, [pc, #352]	@ (10000bf0 <protothread_graphics+0x92c>)
10000a8e:	f002 fd83 	bl	10003598 <writeStringBold>
10000a92:	f44f 73e2 	mov.w	r3, #452	@ 0x1c4
10000a96:	2278      	movs	r2, #120	@ 0x78
10000a98:	f240 11bd 	movw	r1, #445	@ 0x1bd
10000a9c:	204b      	movs	r0, #75	@ 0x4b
10000a9e:	9600      	str	r6, [sp, #0]
10000aa0:	f001 f8fc 	bl	10001c9c <drawLine>
10000aa4:	f44f 71dc 	mov.w	r1, #440	@ 0x1b8
10000aa8:	2005      	movs	r0, #5
10000aaa:	f002 fae9 	bl	10003080 <setCursor>
10000aae:	2100      	movs	r1, #0
10000ab0:	4630      	mov	r0, r6
10000ab2:	f002 fb01 	bl	100030b8 <setTextColor2>
10000ab6:	484f      	ldr	r0, [pc, #316]	@ (10000bf4 <protothread_graphics+0x930>)
10000ab8:	f002 fd6e 	bl	10003598 <writeStringBold>
10000abc:	4633      	mov	r3, r6
10000abe:	2219      	movs	r2, #25
10000ac0:	f44f 71e1 	mov.w	r1, #450	@ 0x1c2
10000ac4:	204b      	movs	r0, #75	@ 0x4b
10000ac6:	f001 f843 	bl	10001b50 <drawVLine>
10000aca:	f44f 71e1 	mov.w	r1, #450	@ 0x1c2
10000ace:	2005      	movs	r0, #5
10000ad0:	f002 fad6 	bl	10003080 <setCursor>
10000ad4:	2100      	movs	r1, #0
10000ad6:	4630      	mov	r0, r6
10000ad8:	f002 faee 	bl	100030b8 <setTextColor2>
10000adc:	4846      	ldr	r0, [pc, #280]	@ (10000bf8 <protothread_graphics+0x934>)
10000ade:	f002 fd5b 	bl	10003598 <writeStringBold>
10000ae2:	2203      	movs	r2, #3
10000ae4:	f44f 71e3 	mov.w	r1, #454	@ 0x1c6
10000ae8:	20dc      	movs	r0, #220	@ 0xdc
10000aea:	f002 fe23 	bl	10003734 <crosshair>
10000aee:	2203      	movs	r2, #3
10000af0:	f44f 71e5 	mov.w	r1, #458	@ 0x1ca
10000af4:	20de      	movs	r0, #222	@ 0xde
10000af6:	f001 f807 	bl	10001b08 <drawPixel>
10000afa:	f44f 71e1 	mov.w	r1, #450	@ 0x1c2
10000afe:	2096      	movs	r0, #150	@ 0x96
10000b00:	f002 fabe 	bl	10003080 <setCursor>
10000b04:	2100      	movs	r1, #0
10000b06:	4630      	mov	r0, r6
10000b08:	f002 fad6 	bl	100030b8 <setTextColor2>
10000b0c:	483b      	ldr	r0, [pc, #236]	@ (10000bfc <protothread_graphics+0x938>)
10000b0e:	f002 fd43 	bl	10003598 <writeStringBold>
10000b12:	4621      	mov	r1, r4
10000b14:	f44f 70aa 	mov.w	r0, #340	@ 0x154
10000b18:	f002 fab2 	bl	10003080 <setCursor>
10000b1c:	2100      	movs	r1, #0
10000b1e:	4630      	mov	r0, r6
10000b20:	f002 faca 	bl	100030b8 <setTextColor2>
10000b24:	4836      	ldr	r0, [pc, #216]	@ (10000c00 <protothread_graphics+0x93c>)
10000b26:	f002 fd37 	bl	10003598 <writeStringBold>
10000b2a:	f44f 71dc 	mov.w	r1, #440	@ 0x1b8
10000b2e:	f44f 70aa 	mov.w	r0, #340	@ 0x154
10000b32:	f002 faa5 	bl	10003080 <setCursor>
10000b36:	2100      	movs	r1, #0
10000b38:	4630      	mov	r0, r6
10000b3a:	f002 fabd 	bl	100030b8 <setTextColor2>
10000b3e:	4831      	ldr	r0, [pc, #196]	@ (10000c04 <protothread_graphics+0x940>)
10000b40:	f002 fd2a 	bl	10003598 <writeStringBold>
10000b44:	2300      	movs	r3, #0
10000b46:	9303      	str	r3, [sp, #12]
10000b48:	4b2f      	ldr	r3, [pc, #188]	@ (10000c08 <protothread_graphics+0x944>)
10000b4a:	781a      	ldrb	r2, [r3, #0]
10000b4c:	2a00      	cmp	r2, #0
10000b4e:	f43f abdf 	beq.w	10000310 <protothread_graphics+0x4c>
10000b52:	2200      	movs	r2, #0
10000b54:	4610      	mov	r0, r2
10000b56:	701a      	strb	r2, [r3, #0]
10000b58:	602a      	str	r2, [r5, #0]
10000b5a:	b015      	add	sp, #84	@ 0x54
10000b5c:	e8bd 8ff0 	ldmia.w	sp!, {r4, r5, r6, r7, r8, r9, sl, fp, pc}
10000b60:	2100      	movs	r1, #0
10000b62:	200f      	movs	r0, #15
10000b64:	f002 faa8 	bl	100030b8 <setTextColor2>
10000b68:	e4e4      	b.n	10000534 <protothread_graphics+0x270>
10000b6a:	2300      	movs	r3, #0
10000b6c:	8033      	strh	r3, [r6, #0]
10000b6e:	f006 fde5 	bl	1000773c <rand>
10000b72:	4b26      	ldr	r3, [pc, #152]	@ (10000c0c <protothread_graphics+0x948>)
10000b74:	f000 000f 	and.w	r0, r0, #15
10000b78:	8018      	strh	r0, [r3, #0]
10000b7a:	e4c0      	b.n	100004fe <protothread_graphics+0x23a>
10000b7c:	2300      	movs	r3, #0
10000b7e:	803b      	strh	r3, [r7, #0]
10000b80:	f006 fddc 	bl	1000773c <rand>
10000b84:	4b22      	ldr	r3, [pc, #136]	@ (10000c10 <protothread_graphics+0x94c>)
10000b86:	f000 000f 	and.w	r0, r0, #15
10000b8a:	8018      	strh	r0, [r3, #0]
10000b8c:	e4b0      	b.n	100004f0 <protothread_graphics+0x22c>
10000b8e:	2300      	movs	r3, #0
10000b90:	f8a8 3000 	strh.w	r3, [r8]
10000b94:	f006 fdd2 	bl	1000773c <rand>
10000b98:	4b1e      	ldr	r3, [pc, #120]	@ (10000c14 <protothread_graphics+0x950>)
10000b9a:	f000 000f 	and.w	r0, r0, #15
10000b9e:	8018      	strh	r0, [r3, #0]
10000ba0:	e49f      	b.n	100004e2 <protothread_graphics+0x21e>
10000ba2:	2300      	movs	r3, #0
10000ba4:	f8a9 3000 	strh.w	r3, [r9]
10000ba8:	f006 fdc8 	bl	1000773c <rand>
10000bac:	4b1a      	ldr	r3, [pc, #104]	@ (10000c18 <protothread_graphics+0x954>)
10000bae:	f000 000f 	and.w	r0, r0, #15
10000bb2:	8018      	strh	r0, [r3, #0]
10000bb4:	e48e      	b.n	100004d4 <protothread_graphics+0x210>
10000bb6:	2300      	movs	r3, #0
10000bb8:	f8aa 3000 	strh.w	r3, [sl]
10000bbc:	f006 fdbe 	bl	1000773c <rand>
10000bc0:	4b16      	ldr	r3, [pc, #88]	@ (10000c1c <protothread_graphics+0x958>)
10000bc2:	f000 000f 	and.w	r0, r0, #15
10000bc6:	8018      	strh	r0, [r3, #0]
10000bc8:	e47d      	b.n	100004c6 <protothread_graphics+0x202>
10000bca:	f8ab 4000 	strh.w	r4, [fp]
10000bce:	f006 fdb5 	bl	1000773c <rand>
10000bd2:	4b13      	ldr	r3, [pc, #76]	@ (10000c20 <protothread_graphics+0x95c>)
10000bd4:	f000 000f 	and.w	r0, r0, #15
10000bd8:	f9ba 2000 	ldrsh.w	r2, [sl]
10000bdc:	8018      	strh	r0, [r3, #0]
10000bde:	e46d      	b.n	100004bc <protothread_graphics+0x1f8>
10000be0:	1000cf08 	.word	0x1000cf08
10000be4:	1000cf20 	.word	0x1000cf20
10000be8:	1000cf3c 	.word	0x1000cf3c
10000bec:	1000cf58 	.word	0x1000cf58
10000bf0:	1000cfbc 	.word	0x1000cfbc
10000bf4:	1000cfc8 	.word	0x1000cfc8
10000bf8:	1000cfd4 	.word	0x1000cfd4
10000bfc:	1000cfe0 	.word	0x1000cfe0
10000c00:	1000cfec 	.word	0x1000cfec
10000c04:	1000d010 	.word	0x1000d010
10000c08:	2000063e 	.word	0x2000063e
10000c0c:	20000628 	.word	0x20000628
10000c10:	2000062c 	.word	0x2000062c
10000c14:	20000630 	.word	0x20000630
10000c18:	20000634 	.word	0x20000634
10000c1c:	20000638 	.word	0x20000638
10000c20:	2000063c 	.word	0x2000063c

10000c24 <pt_serialin_polled.constprop.0>:
10000c24:	b538      	push	{r3, r4, r5, lr}
10000c26:	4d7b      	ldr	r5, [pc, #492]	@ (10000e14 <pt_serialin_polled.constprop.0+0x1f0>)
10000c28:	682c      	ldr	r4, [r5, #0]
10000c2a:	2c00      	cmp	r4, #0
10000c2c:	f000 80a6 	beq.w	10000d7c <pt_serialin_polled.constprop.0+0x158>
10000c30:	f044 0401 	orr.w	r4, r4, #1
10000c34:	4720      	bx	r4
10000c36:	4b78      	ldr	r3, [pc, #480]	@ (10000e18 <pt_serialin_polled.constprop.0+0x1f4>)
10000c38:	4a78      	ldr	r2, [pc, #480]	@ (10000e1c <pt_serialin_polled.constprop.0+0x1f8>)
10000c3a:	699b      	ldr	r3, [r3, #24]
10000c3c:	602a      	str	r2, [r5, #0]
10000c3e:	069a      	lsls	r2, r3, #26
10000c40:	f100 8082 	bmi.w	10000d48 <pt_serialin_polled.constprop.0+0x124>
10000c44:	f04f 4350 	mov.w	r3, #3489660928	@ 0xd0000000
10000c48:	681b      	ldr	r3, [r3, #0]
10000c4a:	2b01      	cmp	r3, #1
10000c4c:	f000 80bd 	beq.w	10000dca <pt_serialin_polled.constprop.0+0x1a6>
10000c50:	2201      	movs	r2, #1
10000c52:	4b73      	ldr	r3, [pc, #460]	@ (10000e20 <pt_serialin_polled.constprop.0+0x1fc>)
10000c54:	601a      	str	r2, [r3, #0]
10000c56:	4b73      	ldr	r3, [pc, #460]	@ (10000e24 <pt_serialin_polled.constprop.0+0x200>)
10000c58:	f9b3 3000 	ldrsh.w	r3, [r3]
10000c5c:	2b7f      	cmp	r3, #127	@ 0x7f
10000c5e:	f000 80ad 	beq.w	10000dbc <pt_serialin_polled.constprop.0+0x198>
10000c62:	4a6d      	ldr	r2, [pc, #436]	@ (10000e18 <pt_serialin_polled.constprop.0+0x1f4>)
10000c64:	6993      	ldr	r3, [r2, #24]
10000c66:	f013 0320 	ands.w	r3, r3, #32
10000c6a:	d1fb      	bne.n	10000c64 <pt_serialin_polled.constprop.0+0x40>
10000c6c:	207f      	movs	r0, #127	@ 0x7f
10000c6e:	496e      	ldr	r1, [pc, #440]	@ (10000e28 <pt_serialin_polled.constprop.0+0x204>)
10000c70:	6010      	str	r0, [r2, #0]
10000c72:	680a      	ldr	r2, [r1, #0]
10000c74:	3a01      	subs	r2, #1
10000c76:	f100 809f 	bmi.w	10000db8 <pt_serialin_polled.constprop.0+0x194>
10000c7a:	600a      	str	r2, [r1, #0]
10000c7c:	2afe      	cmp	r2, #254	@ 0xfe
10000c7e:	f340 808f 	ble.w	10000da0 <pt_serialin_polled.constprop.0+0x17c>
10000c82:	2300      	movs	r3, #0
10000c84:	2002      	movs	r0, #2
10000c86:	602b      	str	r3, [r5, #0]
10000c88:	bd38      	pop	{r3, r4, r5, pc}
10000c8a:	4b63      	ldr	r3, [pc, #396]	@ (10000e18 <pt_serialin_polled.constprop.0+0x1f4>)
10000c8c:	4a67      	ldr	r2, [pc, #412]	@ (10000e2c <pt_serialin_polled.constprop.0+0x208>)
10000c8e:	699b      	ldr	r3, [r3, #24]
10000c90:	602a      	str	r2, [r5, #0]
10000c92:	069b      	lsls	r3, r3, #26
10000c94:	d458      	bmi.n	10000d48 <pt_serialin_polled.constprop.0+0x124>
10000c96:	f04f 4350 	mov.w	r3, #3489660928	@ 0xd0000000
10000c9a:	681b      	ldr	r3, [r3, #0]
10000c9c:	2b01      	cmp	r3, #1
10000c9e:	f000 809e 	beq.w	10000dde <pt_serialin_polled.constprop.0+0x1ba>
10000ca2:	2201      	movs	r2, #1
10000ca4:	4b5e      	ldr	r3, [pc, #376]	@ (10000e20 <pt_serialin_polled.constprop.0+0x1fc>)
10000ca6:	601a      	str	r2, [r3, #0]
10000ca8:	4a61      	ldr	r2, [pc, #388]	@ (10000e30 <pt_serialin_polled.constprop.0+0x20c>)
10000caa:	4b5e      	ldr	r3, [pc, #376]	@ (10000e24 <pt_serialin_polled.constprop.0+0x200>)
10000cac:	7811      	ldrb	r1, [r2, #0]
10000cae:	f9b3 3000 	ldrsh.w	r3, [r3]
10000cb2:	428b      	cmp	r3, r1
10000cb4:	f000 808c 	beq.w	10000dd0 <pt_serialin_polled.constprop.0+0x1ac>
10000cb8:	4a57      	ldr	r2, [pc, #348]	@ (10000e18 <pt_serialin_polled.constprop.0+0x1f4>)
10000cba:	6993      	ldr	r3, [r2, #24]
10000cbc:	f013 0320 	ands.w	r3, r3, #32
10000cc0:	d1fb      	bne.n	10000cba <pt_serialin_polled.constprop.0+0x96>
10000cc2:	290d      	cmp	r1, #13
10000cc4:	6011      	str	r1, [r2, #0]
10000cc6:	f000 808d 	beq.w	10000de4 <pt_serialin_polled.constprop.0+0x1c0>
10000cca:	297f      	cmp	r1, #127	@ 0x7f
10000ccc:	d071      	beq.n	10000db2 <pt_serialin_polled.constprop.0+0x18e>
10000cce:	4856      	ldr	r0, [pc, #344]	@ (10000e28 <pt_serialin_polled.constprop.0+0x204>)
10000cd0:	6803      	ldr	r3, [r0, #0]
10000cd2:	1c5a      	adds	r2, r3, #1
10000cd4:	6002      	str	r2, [r0, #0]
10000cd6:	4857      	ldr	r0, [pc, #348]	@ (10000e34 <pt_serialin_polled.constprop.0+0x210>)
10000cd8:	54c1      	strb	r1, [r0, r3]
10000cda:	e7cf      	b.n	10000c7c <pt_serialin_polled.constprop.0+0x58>
10000cdc:	4b4e      	ldr	r3, [pc, #312]	@ (10000e18 <pt_serialin_polled.constprop.0+0x1f4>)
10000cde:	4a56      	ldr	r2, [pc, #344]	@ (10000e38 <pt_serialin_polled.constprop.0+0x214>)
10000ce0:	699b      	ldr	r3, [r3, #24]
10000ce2:	602a      	str	r2, [r5, #0]
10000ce4:	0698      	lsls	r0, r3, #26
10000ce6:	d42f      	bmi.n	10000d48 <pt_serialin_polled.constprop.0+0x124>
10000ce8:	f04f 4350 	mov.w	r3, #3489660928	@ 0xd0000000
10000cec:	681b      	ldr	r3, [r3, #0]
10000cee:	2b01      	cmp	r3, #1
10000cf0:	d05c      	beq.n	10000dac <pt_serialin_polled.constprop.0+0x188>
10000cf2:	2201      	movs	r2, #1
10000cf4:	4b4a      	ldr	r3, [pc, #296]	@ (10000e20 <pt_serialin_polled.constprop.0+0x1fc>)
10000cf6:	601a      	str	r2, [r3, #0]
10000cf8:	4b4a      	ldr	r3, [pc, #296]	@ (10000e24 <pt_serialin_polled.constprop.0+0x200>)
10000cfa:	f9b3 3000 	ldrsh.w	r3, [r3]
10000cfe:	2b0a      	cmp	r3, #10
10000d00:	f000 8081 	beq.w	10000e06 <pt_serialin_polled.constprop.0+0x1e2>
10000d04:	4a44      	ldr	r2, [pc, #272]	@ (10000e18 <pt_serialin_polled.constprop.0+0x1f4>)
10000d06:	6993      	ldr	r3, [r2, #24]
10000d08:	069b      	lsls	r3, r3, #26
10000d0a:	d4fc      	bmi.n	10000d06 <pt_serialin_polled.constprop.0+0xe2>
10000d0c:	230a      	movs	r3, #10
10000d0e:	6013      	str	r3, [r2, #0]
10000d10:	e7b7      	b.n	10000c82 <pt_serialin_polled.constprop.0+0x5e>
10000d12:	4b41      	ldr	r3, [pc, #260]	@ (10000e18 <pt_serialin_polled.constprop.0+0x1f4>)
10000d14:	4a49      	ldr	r2, [pc, #292]	@ (10000e3c <pt_serialin_polled.constprop.0+0x218>)
10000d16:	699b      	ldr	r3, [r3, #24]
10000d18:	602a      	str	r2, [r5, #0]
10000d1a:	069c      	lsls	r4, r3, #26
10000d1c:	d414      	bmi.n	10000d48 <pt_serialin_polled.constprop.0+0x124>
10000d1e:	f04f 4350 	mov.w	r3, #3489660928	@ 0xd0000000
10000d22:	681b      	ldr	r3, [r3, #0]
10000d24:	2b01      	cmp	r3, #1
10000d26:	d06b      	beq.n	10000e00 <pt_serialin_polled.constprop.0+0x1dc>
10000d28:	2201      	movs	r2, #1
10000d2a:	4b3d      	ldr	r3, [pc, #244]	@ (10000e20 <pt_serialin_polled.constprop.0+0x1fc>)
10000d2c:	601a      	str	r2, [r3, #0]
10000d2e:	4b3d      	ldr	r3, [pc, #244]	@ (10000e24 <pt_serialin_polled.constprop.0+0x200>)
10000d30:	f9b3 3000 	ldrsh.w	r3, [r3]
10000d34:	2b20      	cmp	r3, #32
10000d36:	d05c      	beq.n	10000df2 <pt_serialin_polled.constprop.0+0x1ce>
10000d38:	4a37      	ldr	r2, [pc, #220]	@ (10000e18 <pt_serialin_polled.constprop.0+0x1f4>)
10000d3a:	6993      	ldr	r3, [r2, #24]
10000d3c:	0699      	lsls	r1, r3, #26
10000d3e:	d4fc      	bmi.n	10000d3a <pt_serialin_polled.constprop.0+0x116>
10000d40:	2120      	movs	r1, #32
10000d42:	4b36      	ldr	r3, [pc, #216]	@ (10000e1c <pt_serialin_polled.constprop.0+0x1f8>)
10000d44:	6011      	str	r1, [r2, #0]
10000d46:	602b      	str	r3, [r5, #0]
10000d48:	2001      	movs	r0, #1
10000d4a:	bd38      	pop	{r3, r4, r5, pc}
10000d4c:	4b32      	ldr	r3, [pc, #200]	@ (10000e18 <pt_serialin_polled.constprop.0+0x1f4>)
10000d4e:	4a3c      	ldr	r2, [pc, #240]	@ (10000e40 <pt_serialin_polled.constprop.0+0x21c>)
10000d50:	699b      	ldr	r3, [r3, #24]
10000d52:	602a      	str	r2, [r5, #0]
10000d54:	06d8      	lsls	r0, r3, #27
10000d56:	d4f7      	bmi.n	10000d48 <pt_serialin_polled.constprop.0+0x124>
10000d58:	f04f 4350 	mov.w	r3, #3489660928	@ 0xd0000000
10000d5c:	681b      	ldr	r3, [r3, #0]
10000d5e:	2b01      	cmp	r3, #1
10000d60:	d021      	beq.n	10000da6 <pt_serialin_polled.constprop.0+0x182>
10000d62:	2201      	movs	r2, #1
10000d64:	4b2e      	ldr	r3, [pc, #184]	@ (10000e20 <pt_serialin_polled.constprop.0+0x1fc>)
10000d66:	601a      	str	r2, [r3, #0]
10000d68:	4a2b      	ldr	r2, [pc, #172]	@ (10000e18 <pt_serialin_polled.constprop.0+0x1f4>)
10000d6a:	6993      	ldr	r3, [r2, #24]
10000d6c:	06d9      	lsls	r1, r3, #27
10000d6e:	d4fc      	bmi.n	10000d6a <pt_serialin_polled.constprop.0+0x146>
10000d70:	6811      	ldr	r1, [r2, #0]
10000d72:	4b2e      	ldr	r3, [pc, #184]	@ (10000e2c <pt_serialin_polled.constprop.0+0x208>)
10000d74:	4a2e      	ldr	r2, [pc, #184]	@ (10000e30 <pt_serialin_polled.constprop.0+0x20c>)
10000d76:	602b      	str	r3, [r5, #0]
10000d78:	7011      	strb	r1, [r2, #0]
10000d7a:	e7e5      	b.n	10000d48 <pt_serialin_polled.constprop.0+0x124>
10000d7c:	22ff      	movs	r2, #255	@ 0xff
10000d7e:	4621      	mov	r1, r4
10000d80:	482c      	ldr	r0, [pc, #176]	@ (10000e34 <pt_serialin_polled.constprop.0+0x210>)
10000d82:	f006 ff69 	bl	10007c58 <memset>
10000d86:	4b28      	ldr	r3, [pc, #160]	@ (10000e28 <pt_serialin_polled.constprop.0+0x204>)
10000d88:	4a23      	ldr	r2, [pc, #140]	@ (10000e18 <pt_serialin_polled.constprop.0+0x1f4>)
10000d8a:	601c      	str	r4, [r3, #0]
10000d8c:	6993      	ldr	r3, [r2, #24]
10000d8e:	06d9      	lsls	r1, r3, #27
10000d90:	d406      	bmi.n	10000da0 <pt_serialin_polled.constprop.0+0x17c>
10000d92:	6993      	ldr	r3, [r2, #24]
10000d94:	06db      	lsls	r3, r3, #27
10000d96:	d4fc      	bmi.n	10000d92 <pt_serialin_polled.constprop.0+0x16e>
10000d98:	6813      	ldr	r3, [r2, #0]
10000d9a:	6993      	ldr	r3, [r2, #24]
10000d9c:	06dc      	lsls	r4, r3, #27
10000d9e:	d5f8      	bpl.n	10000d92 <pt_serialin_polled.constprop.0+0x16e>
10000da0:	4b27      	ldr	r3, [pc, #156]	@ (10000e40 <pt_serialin_polled.constprop.0+0x21c>)
10000da2:	602b      	str	r3, [r5, #0]
10000da4:	e7d0      	b.n	10000d48 <pt_serialin_polled.constprop.0+0x124>
10000da6:	4a27      	ldr	r2, [pc, #156]	@ (10000e44 <pt_serialin_polled.constprop.0+0x220>)
10000da8:	6013      	str	r3, [r2, #0]
10000daa:	e7dd      	b.n	10000d68 <pt_serialin_polled.constprop.0+0x144>
10000dac:	4a25      	ldr	r2, [pc, #148]	@ (10000e44 <pt_serialin_polled.constprop.0+0x220>)
10000dae:	6013      	str	r3, [r2, #0]
10000db0:	e7a2      	b.n	10000cf8 <pt_serialin_polled.constprop.0+0xd4>
10000db2:	4b22      	ldr	r3, [pc, #136]	@ (10000e3c <pt_serialin_polled.constprop.0+0x218>)
10000db4:	602b      	str	r3, [r5, #0]
10000db6:	e7c7      	b.n	10000d48 <pt_serialin_polled.constprop.0+0x124>
10000db8:	600b      	str	r3, [r1, #0]
10000dba:	e7f1      	b.n	10000da0 <pt_serialin_polled.constprop.0+0x17c>
10000dbc:	4a16      	ldr	r2, [pc, #88]	@ (10000e18 <pt_serialin_polled.constprop.0+0x1f4>)
10000dbe:	6993      	ldr	r3, [r2, #24]
10000dc0:	069b      	lsls	r3, r3, #26
10000dc2:	d4fc      	bmi.n	10000dbe <pt_serialin_polled.constprop.0+0x19a>
10000dc4:	230d      	movs	r3, #13
10000dc6:	6013      	str	r3, [r2, #0]
10000dc8:	e74b      	b.n	10000c62 <pt_serialin_polled.constprop.0+0x3e>
10000dca:	4a1e      	ldr	r2, [pc, #120]	@ (10000e44 <pt_serialin_polled.constprop.0+0x220>)
10000dcc:	6013      	str	r3, [r2, #0]
10000dce:	e742      	b.n	10000c56 <pt_serialin_polled.constprop.0+0x32>
10000dd0:	4a11      	ldr	r2, [pc, #68]	@ (10000e18 <pt_serialin_polled.constprop.0+0x1f4>)
10000dd2:	6993      	ldr	r3, [r2, #24]
10000dd4:	069c      	lsls	r4, r3, #26
10000dd6:	d4fc      	bmi.n	10000dd2 <pt_serialin_polled.constprop.0+0x1ae>
10000dd8:	230d      	movs	r3, #13
10000dda:	6013      	str	r3, [r2, #0]
10000ddc:	e76c      	b.n	10000cb8 <pt_serialin_polled.constprop.0+0x94>
10000dde:	4a19      	ldr	r2, [pc, #100]	@ (10000e44 <pt_serialin_polled.constprop.0+0x220>)
10000de0:	6013      	str	r3, [r2, #0]
10000de2:	e761      	b.n	10000ca8 <pt_serialin_polled.constprop.0+0x84>
10000de4:	4a10      	ldr	r2, [pc, #64]	@ (10000e28 <pt_serialin_polled.constprop.0+0x204>)
10000de6:	4813      	ldr	r0, [pc, #76]	@ (10000e34 <pt_serialin_polled.constprop.0+0x210>)
10000de8:	6811      	ldr	r1, [r2, #0]
10000dea:	4a13      	ldr	r2, [pc, #76]	@ (10000e38 <pt_serialin_polled.constprop.0+0x214>)
10000dec:	5443      	strb	r3, [r0, r1]
10000dee:	602a      	str	r2, [r5, #0]
10000df0:	e7aa      	b.n	10000d48 <pt_serialin_polled.constprop.0+0x124>
10000df2:	4a09      	ldr	r2, [pc, #36]	@ (10000e18 <pt_serialin_polled.constprop.0+0x1f4>)
10000df4:	6993      	ldr	r3, [r2, #24]
10000df6:	0698      	lsls	r0, r3, #26
10000df8:	d4fc      	bmi.n	10000df4 <pt_serialin_polled.constprop.0+0x1d0>
10000dfa:	230d      	movs	r3, #13
10000dfc:	6013      	str	r3, [r2, #0]
10000dfe:	e79b      	b.n	10000d38 <pt_serialin_polled.constprop.0+0x114>
10000e00:	4a10      	ldr	r2, [pc, #64]	@ (10000e44 <pt_serialin_polled.constprop.0+0x220>)
10000e02:	6013      	str	r3, [r2, #0]
10000e04:	e793      	b.n	10000d2e <pt_serialin_polled.constprop.0+0x10a>
10000e06:	4a04      	ldr	r2, [pc, #16]	@ (10000e18 <pt_serialin_polled.constprop.0+0x1f4>)
10000e08:	6993      	ldr	r3, [r2, #24]
10000e0a:	0699      	lsls	r1, r3, #26
10000e0c:	d4fc      	bmi.n	10000e08 <pt_serialin_polled.constprop.0+0x1e4>
10000e0e:	230d      	movs	r3, #13
10000e10:	6013      	str	r3, [r2, #0]
10000e12:	e777      	b.n	10000d04 <pt_serialin_polled.constprop.0+0xe0>
10000e14:	200013c4 	.word	0x200013c4
10000e18:	40070000 	.word	0x40070000
10000e1c:	10000c36 	.word	0x10000c36
10000e20:	200011b0 	.word	0x200011b0
10000e24:	20001524 	.word	0x20001524
10000e28:	200011ac 	.word	0x200011ac
10000e2c:	10000c8a 	.word	0x10000c8a
10000e30:	20026d33 	.word	0x20026d33
10000e34:	200011c4 	.word	0x200011c4
10000e38:	10000cdc 	.word	0x10000cdc
10000e3c:	10000d12 	.word	0x10000d12
10000e40:	10000d4c 	.word	0x10000d4c
10000e44:	200011b4 	.word	0x200011b4

10000e48 <protothread_sched.constprop.0.isra.0>:
10000e48:	e92d 4ff8 	stmdb	sp!, {r3, r4, r5, r6, r7, r8, r9, sl, fp, lr}
10000e4c:	4b3f      	ldr	r3, [pc, #252]	@ (10000f4c <protothread_sched.constprop.0.isra.0+0x104>)
10000e4e:	681f      	ldr	r7, [r3, #0]
10000e50:	2f00      	cmp	r7, #0
10000e52:	d177      	bne.n	10000f44 <protothread_sched.constprop.0.isra.0+0xfc>
10000e54:	4b3e      	ldr	r3, [pc, #248]	@ (10000f50 <protothread_sched.constprop.0.isra.0+0x108>)
10000e56:	f8d3 8000 	ldr.w	r8, [r3]
10000e5a:	f1b8 0f00 	cmp.w	r8, #0
10000e5e:	d11c      	bne.n	10000e9a <protothread_sched.constprop.0.isra.0+0x52>
10000e60:	4e3c      	ldr	r6, [pc, #240]	@ (10000f54 <protothread_sched.constprop.0.isra.0+0x10c>)
10000e62:	4647      	mov	r7, r8
10000e64:	4c3c      	ldr	r4, [pc, #240]	@ (10000f58 <protothread_sched.constprop.0.isra.0+0x110>)
10000e66:	f8df 90f4 	ldr.w	r9, [pc, #244]	@ 10000f5c <protothread_sched.constprop.0.isra.0+0x114>
10000e6a:	6833      	ldr	r3, [r6, #0]
10000e6c:	e011      	b.n	10000e92 <protothread_sched.constprop.0.isra.0+0x4a>
10000e6e:	2300      	movs	r3, #0
10000e70:	4d3a      	ldr	r5, [pc, #232]	@ (10000f5c <protothread_sched.constprop.0.isra.0+0x114>)
10000e72:	eb03 0343 	add.w	r3, r3, r3, lsl #1
10000e76:	eb09 0383 	add.w	r3, r9, r3, lsl #2
10000e7a:	4628      	mov	r0, r5
10000e7c:	689b      	ldr	r3, [r3, #8]
10000e7e:	4798      	blx	r3
10000e80:	6823      	ldr	r3, [r4, #0]
10000e82:	6832      	ldr	r2, [r6, #0]
10000e84:	3301      	adds	r3, #1
10000e86:	4293      	cmp	r3, r2
10000e88:	6023      	str	r3, [r4, #0]
10000e8a:	f105 050c 	add.w	r5, r5, #12
10000e8e:	dbf0      	blt.n	10000e72 <protothread_sched.constprop.0.isra.0+0x2a>
10000e90:	4613      	mov	r3, r2
10000e92:	2b00      	cmp	r3, #0
10000e94:	6027      	str	r7, [r4, #0]
10000e96:	dcea      	bgt.n	10000e6e <protothread_sched.constprop.0.isra.0+0x26>
10000e98:	e7fe      	b.n	10000e98 <protothread_sched.constprop.0.isra.0+0x50>
10000e9a:	f1b8 0f01 	cmp.w	r8, #1
10000e9e:	d001      	beq.n	10000ea4 <protothread_sched.constprop.0.isra.0+0x5c>
10000ea0:	e8bd 8ff8 	ldmia.w	sp!, {r3, r4, r5, r6, r7, r8, r9, sl, fp, pc}
10000ea4:	4c2c      	ldr	r4, [pc, #176]	@ (10000f58 <protothread_sched.constprop.0.isra.0+0x110>)
10000ea6:	4e2b      	ldr	r6, [pc, #172]	@ (10000f54 <protothread_sched.constprop.0.isra.0+0x10c>)
10000ea8:	f8df 90b0 	ldr.w	r9, [pc, #176]	@ 10000f5c <protothread_sched.constprop.0.isra.0+0x114>
10000eac:	f8df 80bc 	ldr.w	r8, [pc, #188]	@ 10000f6c <protothread_sched.constprop.0.isra.0+0x124>
10000eb0:	4d2b      	ldr	r5, [pc, #172]	@ (10000f60 <protothread_sched.constprop.0.isra.0+0x118>)
10000eb2:	f8df a0bc 	ldr.w	sl, [pc, #188]	@ 10000f70 <protothread_sched.constprop.0.isra.0+0x128>
10000eb6:	f8d8 3000 	ldr.w	r3, [r8]
10000eba:	6832      	ldr	r2, [r6, #0]
10000ebc:	3301      	adds	r3, #1
10000ebe:	2a00      	cmp	r2, #0
10000ec0:	f8c8 3000 	str.w	r3, [r8]
10000ec4:	6027      	str	r7, [r4, #0]
10000ec6:	dc00      	bgt.n	10000eca <protothread_sched.constprop.0.isra.0+0x82>
10000ec8:	e7fe      	b.n	10000ec8 <protothread_sched.constprop.0.isra.0+0x80>
10000eca:	f8df b090 	ldr.w	fp, [pc, #144]	@ 10000f5c <protothread_sched.constprop.0.isra.0+0x114>
10000ece:	602f      	str	r7, [r5, #0]
10000ed0:	f003 fa82 	bl	100043d8 <time_us_64>
10000ed4:	6823      	ldr	r3, [r4, #0]
10000ed6:	e9ca 0100 	strd	r0, r1, [sl]
10000eda:	eb03 0343 	add.w	r3, r3, r3, lsl #1
10000ede:	eb09 0383 	add.w	r3, r9, r3, lsl #2
10000ee2:	689b      	ldr	r3, [r3, #8]
10000ee4:	4658      	mov	r0, fp
10000ee6:	4798      	blx	r3
10000ee8:	682a      	ldr	r2, [r5, #0]
10000eea:	6823      	ldr	r3, [r4, #0]
10000eec:	2a01      	cmp	r2, #1
10000eee:	d007      	beq.n	10000f00 <protothread_sched.constprop.0.isra.0+0xb8>
10000ef0:	6832      	ldr	r2, [r6, #0]
10000ef2:	3301      	adds	r3, #1
10000ef4:	4293      	cmp	r3, r2
10000ef6:	6023      	str	r3, [r4, #0]
10000ef8:	f10b 0b0c 	add.w	fp, fp, #12
10000efc:	dadb      	bge.n	10000eb6 <protothread_sched.constprop.0.isra.0+0x6e>
10000efe:	e7e6      	b.n	10000ece <protothread_sched.constprop.0.isra.0+0x86>
10000f00:	4918      	ldr	r1, [pc, #96]	@ (10000f64 <protothread_sched.constprop.0.isra.0+0x11c>)
10000f02:	f851 2023 	ldr.w	r2, [r1, r3, lsl #2]
10000f06:	3201      	adds	r2, #1
10000f08:	f841 2023 	str.w	r2, [r1, r3, lsl #2]
10000f0c:	f003 fa64 	bl	100043d8 <time_us_64>
10000f10:	468e      	mov	lr, r1
10000f12:	f8d4 b000 	ldr.w	fp, [r4]
10000f16:	4b14      	ldr	r3, [pc, #80]	@ (10000f68 <protothread_sched.constprop.0.isra.0+0x120>)
10000f18:	f8da 1004 	ldr.w	r1, [sl, #4]
10000f1c:	f853 203b 	ldr.w	r2, [r3, fp, lsl #3]
10000f20:	eb03 0ccb 	add.w	ip, r3, fp, lsl #3
10000f24:	f8da 3000 	ldr.w	r3, [sl]
10000f28:	1ad3      	subs	r3, r2, r3
10000f2a:	f8dc 2004 	ldr.w	r2, [ip, #4]
10000f2e:	eb62 0201 	sbc.w	r2, r2, r1
10000f32:	181b      	adds	r3, r3, r0
10000f34:	480c      	ldr	r0, [pc, #48]	@ (10000f68 <protothread_sched.constprop.0.isra.0+0x120>)
10000f36:	eb42 020e 	adc.w	r2, r2, lr
10000f3a:	f840 303b 	str.w	r3, [r0, fp, lsl #3]
10000f3e:	f8cc 2004 	str.w	r2, [ip, #4]
10000f42:	e7b8      	b.n	10000eb6 <protothread_sched.constprop.0.isra.0+0x6e>
10000f44:	f047 0701 	orr.w	r7, r7, #1
10000f48:	4738      	bx	r7
10000f4a:	bf00      	nop
10000f4c:	200011b8 	.word	0x200011b8
10000f50:	200011c0 	.word	0x200011c0
10000f54:	200013cc 	.word	0x200013cc
10000f58:	20001160 	.word	0x20001160
10000f5c:	200013d4 	.word	0x200013d4
10000f60:	200011b0 	.word	0x200011b0
10000f64:	200014cc 	.word	0x200014cc
10000f68:	20000ec8 	.word	0x20000ec8
10000f6c:	200014c4 	.word	0x200014c4
10000f70:	20000f68 	.word	0x20000f68

10000f74 <protothread_sched1.constprop.0.isra.0>:
10000f74:	e92d 4ff8 	stmdb	sp!, {r3, r4, r5, r6, r7, r8, r9, sl, fp, lr}
10000f78:	4b3f      	ldr	r3, [pc, #252]	@ (10001078 <protothread_sched1.constprop.0.isra.0+0x104>)
10000f7a:	681f      	ldr	r7, [r3, #0]
10000f7c:	2f00      	cmp	r7, #0
10000f7e:	d177      	bne.n	10001070 <protothread_sched1.constprop.0.isra.0+0xfc>
10000f80:	4b3e      	ldr	r3, [pc, #248]	@ (1000107c <protothread_sched1.constprop.0.isra.0+0x108>)
10000f82:	f8d3 8000 	ldr.w	r8, [r3]
10000f86:	f1b8 0f00 	cmp.w	r8, #0
10000f8a:	d11c      	bne.n	10000fc6 <protothread_sched1.constprop.0.isra.0+0x52>
10000f8c:	4e3c      	ldr	r6, [pc, #240]	@ (10001080 <protothread_sched1.constprop.0.isra.0+0x10c>)
10000f8e:	4647      	mov	r7, r8
10000f90:	4c3c      	ldr	r4, [pc, #240]	@ (10001084 <protothread_sched1.constprop.0.isra.0+0x110>)
10000f92:	f8df 90f4 	ldr.w	r9, [pc, #244]	@ 10001088 <protothread_sched1.constprop.0.isra.0+0x114>
10000f96:	6833      	ldr	r3, [r6, #0]
10000f98:	e011      	b.n	10000fbe <protothread_sched1.constprop.0.isra.0+0x4a>
10000f9a:	2300      	movs	r3, #0
10000f9c:	4d3a      	ldr	r5, [pc, #232]	@ (10001088 <protothread_sched1.constprop.0.isra.0+0x114>)
10000f9e:	eb03 0343 	add.w	r3, r3, r3, lsl #1
10000fa2:	eb09 0383 	add.w	r3, r9, r3, lsl #2
10000fa6:	4628      	mov	r0, r5
10000fa8:	689b      	ldr	r3, [r3, #8]
10000faa:	4798      	blx	r3
10000fac:	6823      	ldr	r3, [r4, #0]
10000fae:	6832      	ldr	r2, [r6, #0]
10000fb0:	3301      	adds	r3, #1
10000fb2:	4293      	cmp	r3, r2
10000fb4:	6023      	str	r3, [r4, #0]
10000fb6:	f105 050c 	add.w	r5, r5, #12
10000fba:	dbf0      	blt.n	10000f9e <protothread_sched1.constprop.0.isra.0+0x2a>
10000fbc:	4613      	mov	r3, r2
10000fbe:	2b00      	cmp	r3, #0
10000fc0:	6027      	str	r7, [r4, #0]
10000fc2:	dcea      	bgt.n	10000f9a <protothread_sched1.constprop.0.isra.0+0x26>
10000fc4:	e7fe      	b.n	10000fc4 <protothread_sched1.constprop.0.isra.0+0x50>
10000fc6:	f1b8 0f01 	cmp.w	r8, #1
10000fca:	d001      	beq.n	10000fd0 <protothread_sched1.constprop.0.isra.0+0x5c>
10000fcc:	e8bd 8ff8 	ldmia.w	sp!, {r3, r4, r5, r6, r7, r8, r9, sl, fp, pc}
10000fd0:	4c2c      	ldr	r4, [pc, #176]	@ (10001084 <protothread_sched1.constprop.0.isra.0+0x110>)
10000fd2:	4e2b      	ldr	r6, [pc, #172]	@ (10001080 <protothread_sched1.constprop.0.isra.0+0x10c>)
10000fd4:	f8df 90b0 	ldr.w	r9, [pc, #176]	@ 10001088 <protothread_sched1.constprop.0.isra.0+0x114>
10000fd8:	f8df 80bc 	ldr.w	r8, [pc, #188]	@ 10001098 <protothread_sched1.constprop.0.isra.0+0x124>
10000fdc:	4d2b      	ldr	r5, [pc, #172]	@ (1000108c <protothread_sched1.constprop.0.isra.0+0x118>)
10000fde:	f8df a0bc 	ldr.w	sl, [pc, #188]	@ 1000109c <protothread_sched1.constprop.0.isra.0+0x128>
10000fe2:	f8d8 3000 	ldr.w	r3, [r8]
10000fe6:	6832      	ldr	r2, [r6, #0]
10000fe8:	3301      	adds	r3, #1
10000fea:	2a00      	cmp	r2, #0
10000fec:	f8c8 3000 	str.w	r3, [r8]
10000ff0:	6027      	str	r7, [r4, #0]
10000ff2:	dc00      	bgt.n	10000ff6 <protothread_sched1.constprop.0.isra.0+0x82>
10000ff4:	e7fe      	b.n	10000ff4 <protothread_sched1.constprop.0.isra.0+0x80>
10000ff6:	f8df b090 	ldr.w	fp, [pc, #144]	@ 10001088 <protothread_sched1.constprop.0.isra.0+0x114>
10000ffa:	602f      	str	r7, [r5, #0]
10000ffc:	f003 f9ec 	bl	100043d8 <time_us_64>
10001000:	6823      	ldr	r3, [r4, #0]
10001002:	e9ca 0100 	strd	r0, r1, [sl]
10001006:	eb03 0343 	add.w	r3, r3, r3, lsl #1
1000100a:	eb09 0383 	add.w	r3, r9, r3, lsl #2
1000100e:	689b      	ldr	r3, [r3, #8]
10001010:	4658      	mov	r0, fp
10001012:	4798      	blx	r3
10001014:	682a      	ldr	r2, [r5, #0]
10001016:	6823      	ldr	r3, [r4, #0]
10001018:	2a01      	cmp	r2, #1
1000101a:	d007      	beq.n	1000102c <protothread_sched1.constprop.0.isra.0+0xb8>
1000101c:	6832      	ldr	r2, [r6, #0]
1000101e:	3301      	adds	r3, #1
10001020:	4293      	cmp	r3, r2
10001022:	6023      	str	r3, [r4, #0]
10001024:	f10b 0b0c 	add.w	fp, fp, #12
10001028:	dadb      	bge.n	10000fe2 <protothread_sched1.constprop.0.isra.0+0x6e>
1000102a:	e7e6      	b.n	10000ffa <protothread_sched1.constprop.0.isra.0+0x86>
1000102c:	4918      	ldr	r1, [pc, #96]	@ (10001090 <protothread_sched1.constprop.0.isra.0+0x11c>)
1000102e:	f851 2023 	ldr.w	r2, [r1, r3, lsl #2]
10001032:	3201      	adds	r2, #1
10001034:	f841 2023 	str.w	r2, [r1, r3, lsl #2]
10001038:	f003 f9ce 	bl	100043d8 <time_us_64>
1000103c:	468e      	mov	lr, r1
1000103e:	f8d4 b000 	ldr.w	fp, [r4]
10001042:	4b14      	ldr	r3, [pc, #80]	@ (10001094 <protothread_sched1.constprop.0.isra.0+0x120>)
10001044:	f8da 1004 	ldr.w	r1, [sl, #4]
10001048:	f853 203b 	ldr.w	r2, [r3, fp, lsl #3]
1000104c:	eb03 0ccb 	add.w	ip, r3, fp, lsl #3
10001050:	f8da 3000 	ldr.w	r3, [sl]
10001054:	1ad3      	subs	r3, r2, r3
10001056:	f8dc 2004 	ldr.w	r2, [ip, #4]
1000105a:	eb62 0201 	sbc.w	r2, r2, r1
1000105e:	181b      	adds	r3, r3, r0
10001060:	480c      	ldr	r0, [pc, #48]	@ (10001094 <protothread_sched1.constprop.0.isra.0+0x120>)
10001062:	eb42 020e 	adc.w	r2, r2, lr
10001066:	f840 303b 	str.w	r3, [r0, fp, lsl #3]
1000106a:	f8cc 2004 	str.w	r2, [ip, #4]
1000106e:	e7b8      	b.n	10000fe2 <protothread_sched1.constprop.0.isra.0+0x6e>
10001070:	f047 0701 	orr.w	r7, r7, #1
10001074:	4738      	bx	r7
10001076:	bf00      	nop
10001078:	200011bc 	.word	0x200011bc
1000107c:	200011c0 	.word	0x200011c0
10001080:	200013d0 	.word	0x200013d0
10001084:	20001164 	.word	0x20001164
10001088:	2000144c 	.word	0x2000144c
1000108c:	200011b4 	.word	0x200011b4
10001090:	200014f4 	.word	0x200014f4
10001094:	20000f18 	.word	0x20000f18
10001098:	200014c8 	.word	0x200014c8
1000109c:	20000f70 	.word	0x20000f70

100010a0 <core1_main>:
100010a0:	f04f 4350 	mov.w	r3, #3489660928	@ 0xd0000000
100010a4:	681b      	ldr	r3, [r3, #0]
100010a6:	2b01      	cmp	r3, #1
100010a8:	d01c      	beq.n	100010e4 <core1_main+0x44>
100010aa:	4a1a      	ldr	r2, [pc, #104]	@ (10001114 <core1_main+0x74>)
100010ac:	6813      	ldr	r3, [r2, #0]
100010ae:	2b09      	cmp	r3, #9
100010b0:	dd04      	ble.n	100010bc <core1_main+0x1c>
100010b2:	2200      	movs	r2, #0
100010b4:	4b18      	ldr	r3, [pc, #96]	@ (10001118 <core1_main+0x78>)
100010b6:	601a      	str	r2, [r3, #0]
100010b8:	f7ff bec6 	b.w	10000e48 <protothread_sched.constprop.0.isra.0>
100010bc:	4817      	ldr	r0, [pc, #92]	@ (1000111c <core1_main+0x7c>)
100010be:	eb03 0143 	add.w	r1, r3, r3, lsl #1
100010c2:	ea4f 0c81 	mov.w	ip, r1, lsl #2
100010c6:	eb00 0181 	add.w	r1, r0, r1, lsl #2
100010ca:	604b      	str	r3, [r1, #4]
100010cc:	3301      	adds	r3, #1
100010ce:	6013      	str	r3, [r2, #0]
100010d0:	2300      	movs	r3, #0
100010d2:	4a13      	ldr	r2, [pc, #76]	@ (10001120 <core1_main+0x80>)
100010d4:	f840 300c 	str.w	r3, [r0, ip]
100010d8:	608a      	str	r2, [r1, #8]
100010da:	2200      	movs	r2, #0
100010dc:	4b0e      	ldr	r3, [pc, #56]	@ (10001118 <core1_main+0x78>)
100010de:	601a      	str	r2, [r3, #0]
100010e0:	f7ff beb2 	b.w	10000e48 <protothread_sched.constprop.0.isra.0>
100010e4:	4a0f      	ldr	r2, [pc, #60]	@ (10001124 <core1_main+0x84>)
100010e6:	6813      	ldr	r3, [r2, #0]
100010e8:	2b09      	cmp	r3, #9
100010ea:	dc0e      	bgt.n	1000110a <core1_main+0x6a>
100010ec:	480e      	ldr	r0, [pc, #56]	@ (10001128 <core1_main+0x88>)
100010ee:	eb03 0143 	add.w	r1, r3, r3, lsl #1
100010f2:	ea4f 0c81 	mov.w	ip, r1, lsl #2
100010f6:	eb00 0181 	add.w	r1, r0, r1, lsl #2
100010fa:	604b      	str	r3, [r1, #4]
100010fc:	3301      	adds	r3, #1
100010fe:	6013      	str	r3, [r2, #0]
10001100:	2300      	movs	r3, #0
10001102:	4a07      	ldr	r2, [pc, #28]	@ (10001120 <core1_main+0x80>)
10001104:	f840 300c 	str.w	r3, [r0, ip]
10001108:	608a      	str	r2, [r1, #8]
1000110a:	2200      	movs	r2, #0
1000110c:	4b07      	ldr	r3, [pc, #28]	@ (1000112c <core1_main+0x8c>)
1000110e:	601a      	str	r2, [r3, #0]
10001110:	f7ff bf30 	b.w	10000f74 <protothread_sched1.constprop.0.isra.0>
10001114:	200013cc 	.word	0x200013cc
10001118:	200011b8 	.word	0x200011b8
1000111c:	200013d4 	.word	0x200013d4
10001120:	100011c9 	.word	0x100011c9
10001124:	200013d0 	.word	0x200013d0
10001128:	2000144c 	.word	0x2000144c
1000112c:	200011bc 	.word	0x200011bc

10001130 <pt_serialout_polled>:
10001130:	6803      	ldr	r3, [r0, #0]
10001132:	4601      	mov	r1, r0
10001134:	b470      	push	{r4, r5, r6}
10001136:	2b00      	cmp	r3, #0
10001138:	d02a      	beq.n	10001190 <pt_serialout_polled+0x60>
1000113a:	2201      	movs	r2, #1
1000113c:	4b1b      	ldr	r3, [pc, #108]	@ (100011ac <pt_serialout_polled+0x7c>)
1000113e:	600b      	str	r3, [r1, #0]
10001140:	b31a      	cbz	r2, 1000118a <pt_serialout_polled+0x5a>
10001142:	4b1b      	ldr	r3, [pc, #108]	@ (100011b0 <pt_serialout_polled+0x80>)
10001144:	699b      	ldr	r3, [r3, #24]
10001146:	069a      	lsls	r2, r3, #26
10001148:	d41f      	bmi.n	1000118a <pt_serialout_polled+0x5a>
1000114a:	f04f 4350 	mov.w	r3, #3489660928	@ 0xd0000000
1000114e:	681b      	ldr	r3, [r3, #0]
10001150:	2b01      	cmp	r3, #1
10001152:	d020      	beq.n	10001196 <pt_serialout_polled+0x66>
10001154:	2201      	movs	r2, #1
10001156:	4b17      	ldr	r3, [pc, #92]	@ (100011b4 <pt_serialout_polled+0x84>)
10001158:	601a      	str	r2, [r3, #0]
1000115a:	4c17      	ldr	r4, [pc, #92]	@ (100011b8 <pt_serialout_polled+0x88>)
1000115c:	4d17      	ldr	r5, [pc, #92]	@ (100011bc <pt_serialout_polled+0x8c>)
1000115e:	6822      	ldr	r2, [r4, #0]
10001160:	4b17      	ldr	r3, [pc, #92]	@ (100011c0 <pt_serialout_polled+0x90>)
10001162:	5cae      	ldrb	r6, [r5, r2]
10001164:	f9b3 3000 	ldrsh.w	r3, [r3]
10001168:	42b3      	cmp	r3, r6
1000116a:	d017      	beq.n	1000119c <pt_serialout_polled+0x6c>
1000116c:	4810      	ldr	r0, [pc, #64]	@ (100011b0 <pt_serialout_polled+0x80>)
1000116e:	6983      	ldr	r3, [r0, #24]
10001170:	069b      	lsls	r3, r3, #26
10001172:	d4fc      	bmi.n	1000116e <pt_serialout_polled+0x3e>
10001174:	6006      	str	r6, [r0, #0]
10001176:	1c53      	adds	r3, r2, #1
10001178:	5ced      	ldrb	r5, [r5, r3]
1000117a:	2200      	movs	r2, #0
1000117c:	6023      	str	r3, [r4, #0]
1000117e:	2d00      	cmp	r5, #0
10001180:	d1dc      	bne.n	1000113c <pt_serialout_polled+0xc>
10001182:	2002      	movs	r0, #2
10001184:	600d      	str	r5, [r1, #0]
10001186:	bc70      	pop	{r4, r5, r6}
10001188:	4770      	bx	lr
1000118a:	2001      	movs	r0, #1
1000118c:	bc70      	pop	{r4, r5, r6}
1000118e:	4770      	bx	lr
10001190:	4c09      	ldr	r4, [pc, #36]	@ (100011b8 <pt_serialout_polled+0x88>)
10001192:	4d0a      	ldr	r5, [pc, #40]	@ (100011bc <pt_serialout_polled+0x8c>)
10001194:	e7f0      	b.n	10001178 <pt_serialout_polled+0x48>
10001196:	4a0b      	ldr	r2, [pc, #44]	@ (100011c4 <pt_serialout_polled+0x94>)
10001198:	6013      	str	r3, [r2, #0]
1000119a:	e7de      	b.n	1000115a <pt_serialout_polled+0x2a>
1000119c:	4804      	ldr	r0, [pc, #16]	@ (100011b0 <pt_serialout_polled+0x80>)
1000119e:	6983      	ldr	r3, [r0, #24]
100011a0:	069b      	lsls	r3, r3, #26
100011a2:	d4fc      	bmi.n	1000119e <pt_serialout_polled+0x6e>
100011a4:	230d      	movs	r3, #13
100011a6:	6003      	str	r3, [r0, #0]
100011a8:	e7e0      	b.n	1000116c <pt_serialout_polled+0x3c>
100011aa:	bf00      	nop
100011ac:	1000113c 	.word	0x1000113c
100011b0:	40070000 	.word	0x40070000
100011b4:	200011b0 	.word	0x200011b0
100011b8:	20001170 	.word	0x20001170
100011bc:	200012c4 	.word	0x200012c4
100011c0:	20001524 	.word	0x20001524
100011c4:	200011b4 	.word	0x200011b4

100011c8 <protothread_serial>:
100011c8:	b5f8      	push	{r3, r4, r5, r6, r7, lr}
100011ca:	6803      	ldr	r3, [r0, #0]
100011cc:	4604      	mov	r4, r0
100011ce:	b303      	cbz	r3, 10001212 <protothread_serial+0x4a>
100011d0:	f043 0301 	orr.w	r3, r3, #1
100011d4:	4718      	bx	r3
100011d6:	4f21      	ldr	r7, [pc, #132]	@ (1000125c <protothread_serial+0x94>)
100011d8:	4921      	ldr	r1, [pc, #132]	@ (10001260 <protothread_serial+0x98>)
100011da:	463a      	mov	r2, r7
100011dc:	1c68      	adds	r0, r5, #1
100011de:	f006 fc8f 	bl	10007b00 <sscanf>
100011e2:	f003 f8f9 	bl	100043d8 <time_us_64>
100011e6:	4e1f      	ldr	r6, [pc, #124]	@ (10001264 <protothread_serial+0x9c>)
100011e8:	e9c6 0100 	strd	r0, r1, [r6]
100011ec:	2000      	movs	r0, #0
100011ee:	f9b7 1000 	ldrsh.w	r1, [r7]
100011f2:	f002 fa91 	bl	10003718 <clearLowFrame>
100011f6:	f003 f8ef 	bl	100043d8 <time_us_64>
100011fa:	4602      	mov	r2, r0
100011fc:	6833      	ldr	r3, [r6, #0]
100011fe:	481a      	ldr	r0, [pc, #104]	@ (10001268 <protothread_serial+0xa0>)
10001200:	1ad2      	subs	r2, r2, r3
10001202:	6873      	ldr	r3, [r6, #4]
10001204:	eb61 0303 	sbc.w	r3, r1, r3
10001208:	f005 fd8e 	bl	10006d28 <__wrap_printf>
1000120c:	782b      	ldrb	r3, [r5, #0]
1000120e:	2b72      	cmp	r3, #114	@ 0x72
10001210:	d020      	beq.n	10001254 <protothread_serial+0x8c>
10001212:	2600      	movs	r6, #0
10001214:	4d15      	ldr	r5, [pc, #84]	@ (1000126c <protothread_serial+0xa4>)
10001216:	4b16      	ldr	r3, [pc, #88]	@ (10001270 <protothread_serial+0xa8>)
10001218:	cb0f      	ldmia	r3, {r0, r1, r2, r3}
1000121a:	e885 000f 	stmia.w	r5, {r0, r1, r2, r3}
1000121e:	4b15      	ldr	r3, [pc, #84]	@ (10001274 <protothread_serial+0xac>)
10001220:	601e      	str	r6, [r3, #0]
10001222:	4b15      	ldr	r3, [pc, #84]	@ (10001278 <protothread_serial+0xb0>)
10001224:	4813      	ldr	r0, [pc, #76]	@ (10001274 <protothread_serial+0xac>)
10001226:	6023      	str	r3, [r4, #0]
10001228:	f7ff ff82 	bl	10001130 <pt_serialout_polled>
1000122c:	2801      	cmp	r0, #1
1000122e:	d00f      	beq.n	10001250 <protothread_serial+0x88>
10001230:	2200      	movs	r2, #0
10001232:	4b12      	ldr	r3, [pc, #72]	@ (1000127c <protothread_serial+0xb4>)
10001234:	601a      	str	r2, [r3, #0]
10001236:	4b12      	ldr	r3, [pc, #72]	@ (10001280 <protothread_serial+0xb8>)
10001238:	6023      	str	r3, [r4, #0]
1000123a:	f7ff fcf3 	bl	10000c24 <pt_serialin_polled.constprop.0>
1000123e:	2801      	cmp	r0, #1
10001240:	d006      	beq.n	10001250 <protothread_serial+0x88>
10001242:	4d10      	ldr	r5, [pc, #64]	@ (10001284 <protothread_serial+0xbc>)
10001244:	782b      	ldrb	r3, [r5, #0]
10001246:	2b65      	cmp	r3, #101	@ 0x65
10001248:	d0c5      	beq.n	100011d6 <protothread_serial+0xe>
1000124a:	2b72      	cmp	r3, #114	@ 0x72
1000124c:	d1e1      	bne.n	10001212 <protothread_serial+0x4a>
1000124e:	e001      	b.n	10001254 <protothread_serial+0x8c>
10001250:	2000      	movs	r0, #0
10001252:	bdf8      	pop	{r3, r4, r5, r6, r7, pc}
10001254:	2201      	movs	r2, #1
10001256:	4b0c      	ldr	r3, [pc, #48]	@ (10001288 <protothread_serial+0xc0>)
10001258:	701a      	strb	r2, [r3, #0]
1000125a:	e7da      	b.n	10001212 <protothread_serial+0x4a>
1000125c:	2000111c 	.word	0x2000111c
10001260:	1000d0a8 	.word	0x1000d0a8
10001264:	20000eb8 	.word	0x20000eb8
10001268:	1000d0ac 	.word	0x1000d0ac
1000126c:	200012c4 	.word	0x200012c4
10001270:	1000d098 	.word	0x1000d098
10001274:	200013c8 	.word	0x200013c8
10001278:	10001222 	.word	0x10001222
1000127c:	200013c4 	.word	0x200013c4
10001280:	10001236 	.word	0x10001236
10001284:	200011c4 	.word	0x200011c4
10001288:	2000063e 	.word	0x2000063e

1000128c <main>:
1000128c:	b5f0      	push	{r4, r5, r6, r7, lr}
1000128e:	b085      	sub	sp, #20
10001290:	4833      	ldr	r0, [pc, #204]	@ (10001360 <main+0xd4>)
10001292:	ab03      	add	r3, sp, #12
10001294:	aa02      	add	r2, sp, #8
10001296:	a901      	add	r1, sp, #4
10001298:	f003 f9d8 	bl	1000464c <check_sys_clock_khz>
1000129c:	b918      	cbnz	r0, 100012a6 <main+0x1a>
1000129e:	4930      	ldr	r1, [pc, #192]	@ (10001360 <main+0xd4>)
100012a0:	4830      	ldr	r0, [pc, #192]	@ (10001364 <main+0xd8>)
100012a2:	f002 fbf7 	bl	10003a94 <panic>
100012a6:	e9dd 1202 	ldrd	r1, r2, [sp, #8]
100012aa:	9801      	ldr	r0, [sp, #4]
100012ac:	f003 f90c 	bl	100044c8 <set_sys_clock_pll>
100012b0:	f005 fc76 	bl	10006ba0 <stdio_init_all>
100012b4:	482c      	ldr	r0, [pc, #176]	@ (10001368 <main+0xdc>)
100012b6:	f005 fd37 	bl	10006d28 <__wrap_printf>
100012ba:	f000 faf9 	bl	100018b0 <initVGA>
100012be:	f005 fe93 	bl	10006fe8 <multicore_reset_core1>
100012c2:	482a      	ldr	r0, [pc, #168]	@ (1000136c <main+0xe0>)
100012c4:	f005 ff06 	bl	100070d4 <multicore_launch_core1>
100012c8:	f04f 4350 	mov.w	r3, #3489660928	@ 0xd0000000
100012cc:	681b      	ldr	r3, [r3, #0]
100012ce:	2b01      	cmp	r3, #1
100012d0:	d00b      	beq.n	100012ea <main+0x5e>
100012d2:	4927      	ldr	r1, [pc, #156]	@ (10001370 <main+0xe4>)
100012d4:	680b      	ldr	r3, [r1, #0]
100012d6:	2b09      	cmp	r3, #9
100012d8:	dd29      	ble.n	1000132e <main+0xa2>
100012da:	2200      	movs	r2, #0
100012dc:	4b25      	ldr	r3, [pc, #148]	@ (10001374 <main+0xe8>)
100012de:	601a      	str	r2, [r3, #0]
100012e0:	f7ff fdb2 	bl	10000e48 <protothread_sched.constprop.0.isra.0>
100012e4:	2000      	movs	r0, #0
100012e6:	b005      	add	sp, #20
100012e8:	bdf0      	pop	{r4, r5, r6, r7, pc}
100012ea:	4923      	ldr	r1, [pc, #140]	@ (10001378 <main+0xec>)
100012ec:	680b      	ldr	r3, [r1, #0]
100012ee:	2b09      	cmp	r3, #9
100012f0:	dd05      	ble.n	100012fe <main+0x72>
100012f2:	2200      	movs	r2, #0
100012f4:	4b21      	ldr	r3, [pc, #132]	@ (1000137c <main+0xf0>)
100012f6:	601a      	str	r2, [r3, #0]
100012f8:	f7ff fe3c 	bl	10000f74 <protothread_sched1.constprop.0.isra.0>
100012fc:	e7f2      	b.n	100012e4 <main+0x58>
100012fe:	200c      	movs	r0, #12
10001300:	2600      	movs	r6, #0
10001302:	fb00 f403 	mul.w	r4, r0, r3
10001306:	4a1e      	ldr	r2, [pc, #120]	@ (10001380 <main+0xf4>)
10001308:	1c5d      	adds	r5, r3, #1
1000130a:	4f1e      	ldr	r7, [pc, #120]	@ (10001384 <main+0xf8>)
1000130c:	5116      	str	r6, [r2, r4]
1000130e:	2d0a      	cmp	r5, #10
10001310:	4414      	add	r4, r2
10001312:	e9c4 3701 	strd	r3, r7, [r4, #4]
10001316:	600d      	str	r5, [r1, #0]
10001318:	d0eb      	beq.n	100012f2 <main+0x66>
1000131a:	fb05 f000 	mul.w	r0, r5, r0
1000131e:	5016      	str	r6, [r2, r0]
10001320:	4402      	add	r2, r0
10001322:	4819      	ldr	r0, [pc, #100]	@ (10001388 <main+0xfc>)
10001324:	3302      	adds	r3, #2
10001326:	e9c2 5001 	strd	r5, r0, [r2, #4]
1000132a:	600b      	str	r3, [r1, #0]
1000132c:	e7e1      	b.n	100012f2 <main+0x66>
1000132e:	200c      	movs	r0, #12
10001330:	2500      	movs	r5, #0
10001332:	fb00 fc03 	mul.w	ip, r0, r3
10001336:	4a15      	ldr	r2, [pc, #84]	@ (1000138c <main+0x100>)
10001338:	1c5c      	adds	r4, r3, #1
1000133a:	4e12      	ldr	r6, [pc, #72]	@ (10001384 <main+0xf8>)
1000133c:	f842 500c 	str.w	r5, [r2, ip]
10001340:	2c0a      	cmp	r4, #10
10001342:	4494      	add	ip, r2
10001344:	e9cc 3601 	strd	r3, r6, [ip, #4]
10001348:	600c      	str	r4, [r1, #0]
1000134a:	d0c6      	beq.n	100012da <main+0x4e>
1000134c:	fb04 f000 	mul.w	r0, r4, r0
10001350:	5015      	str	r5, [r2, r0]
10001352:	4402      	add	r2, r0
10001354:	480c      	ldr	r0, [pc, #48]	@ (10001388 <main+0xfc>)
10001356:	3302      	adds	r3, #2
10001358:	e9c2 4001 	strd	r4, r0, [r2, #4]
1000135c:	600b      	str	r3, [r1, #0]
1000135e:	e7bc      	b.n	100012da <main+0x4e>
10001360:	000249f0 	.word	0x000249f0
10001364:	1000d0e8 	.word	0x1000d0e8
10001368:	1000d0c4 	.word	0x1000d0c4
1000136c:	100010a1 	.word	0x100010a1
10001370:	200013cc 	.word	0x200013cc
10001374:	200011b8 	.word	0x200011b8
10001378:	200013d0 	.word	0x200013d0
1000137c:	200011bc 	.word	0x200011bc
10001380:	2000144c 	.word	0x2000144c
10001384:	100002c5 	.word	0x100002c5
10001388:	10000235 	.word	0x10000235
1000138c:	200013d4 	.word	0x200013d4

10001390 <drawHLine.part.0>:
10001390:	eb00 0c02 	add.w	ip, r0, r2
10001394:	f5bc 7f20 	cmp.w	ip, #640	@ 0x280
10001398:	bfc8      	it	gt
1000139a:	f5c0 721f 	rsbgt	r2, r0, #636	@ 0x27c
1000139e:	b530      	push	{r4, r5, lr}
100013a0:	bfc8      	it	gt
100013a2:	3203      	addgt	r2, #3
100013a4:	07c5      	lsls	r5, r0, #31
100013a6:	d523      	bpl.n	100013f0 <drawHLine.part.0+0x60>
100013a8:	fa1f fc80 	uxth.w	ip, r0
100013ac:	f5bc 7f20 	cmp.w	ip, #640	@ 0x280
100013b0:	d21c      	bcs.n	100013ec <drawHLine.part.0+0x5c>
100013b2:	b28c      	uxth	r4, r1
100013b4:	f5b4 7ff0 	cmp.w	r4, #480	@ 0x1e0
100013b8:	d218      	bcs.n	100013ec <drawHLine.part.0+0x5c>
100013ba:	f44f 7520 	mov.w	r5, #640	@ 0x280
100013be:	b204      	sxth	r4, r0
100013c0:	fa0f fe81 	sxth.w	lr, r1
100013c4:	fb1e 4e05 	smlabb	lr, lr, r5, r4
100013c8:	4d26      	ldr	r5, [pc, #152]	@ (10001464 <drawHLine.part.0+0xd4>)
100013ca:	ea4f 046e 	mov.w	r4, lr, asr #1
100013ce:	f815 c004 	ldrb.w	ip, [r5, r4]
100013d2:	f01e 0f01 	tst.w	lr, #1
100013d6:	bf15      	itete	ne
100013d8:	f00c 0c0f 	andne.w	ip, ip, #15
100013dc:	f02c 0c0f 	biceq.w	ip, ip, #15
100013e0:	ea4c 1c03 	orrne.w	ip, ip, r3, lsl #4
100013e4:	ea43 0c0c 	orreq.w	ip, r3, ip
100013e8:	f805 c004 	strb.w	ip, [r5, r4]
100013ec:	3001      	adds	r0, #1
100013ee:	3a01      	subs	r2, #1
100013f0:	07d4      	lsls	r4, r2, #31
100013f2:	d525      	bpl.n	10001440 <drawHLine.part.0+0xb0>
100013f4:	eb00 0c02 	add.w	ip, r0, r2
100013f8:	f10c 3cff 	add.w	ip, ip, #4294967295	@ 0xffffffff
100013fc:	fa1f fc8c 	uxth.w	ip, ip
10001400:	f5bc 7f20 	cmp.w	ip, #640	@ 0x280
10001404:	d21b      	bcs.n	1000143e <drawHLine.part.0+0xae>
10001406:	b28c      	uxth	r4, r1
10001408:	f5b4 7ff0 	cmp.w	r4, #480	@ 0x1e0
1000140c:	d217      	bcs.n	1000143e <drawHLine.part.0+0xae>
1000140e:	f44f 7420 	mov.w	r4, #640	@ 0x280
10001412:	fa0f fe81 	sxth.w	lr, r1
10001416:	fb1e ce04 	smlabb	lr, lr, r4, ip
1000141a:	4d12      	ldr	r5, [pc, #72]	@ (10001464 <drawHLine.part.0+0xd4>)
1000141c:	ea4f 046e 	mov.w	r4, lr, asr #1
10001420:	f815 c004 	ldrb.w	ip, [r5, r4]
10001424:	f01e 0f01 	tst.w	lr, #1
10001428:	bf15      	itete	ne
1000142a:	f00c 0c0f 	andne.w	ip, ip, #15
1000142e:	f02c 0c0f 	biceq.w	ip, ip, #15
10001432:	ea4c 1c03 	orrne.w	ip, ip, r3, lsl #4
10001436:	ea43 0c0c 	orreq.w	ip, r3, ip
1000143a:	f805 c004 	strb.w	ip, [r5, r4]
1000143e:	3a01      	subs	r2, #1
10001440:	1052      	asrs	r2, r2, #1
10001442:	2a00      	cmp	r2, #0
10001444:	dc00      	bgt.n	10001448 <drawHLine.part.0+0xb8>
10001446:	bd30      	pop	{r4, r5, pc}
10001448:	4c06      	ldr	r4, [pc, #24]	@ (10001464 <drawHLine.part.0+0xd4>)
1000144a:	eb01 0c81 	add.w	ip, r1, r1, lsl #2
1000144e:	1040      	asrs	r0, r0, #1
10001450:	eb00 108c 	add.w	r0, r0, ip, lsl #6
10001454:	4420      	add	r0, r4
10001456:	ea43 1103 	orr.w	r1, r3, r3, lsl #4
1000145a:	e8bd 4030 	ldmia.w	sp!, {r4, r5, lr}
1000145e:	f006 bbfb 	b.w	10007c58 <memset>
10001462:	bf00      	nop
10001464:	20001528 	.word	0x20001528

10001468 <drawChar.part.0>:
10001468:	e92d 4ff0 	stmdb	sp!, {r4, r5, r6, r7, r8, r9, sl, fp, lr}
1000146c:	2600      	movs	r6, #0
1000146e:	460d      	mov	r5, r1
10001470:	b09d      	sub	sp, #116	@ 0x74
10001472:	f89d 1098 	ldrb.w	r1, [sp, #152]	@ 0x98
10001476:	46b1      	mov	r9, r6
10001478:	9110      	str	r1, [sp, #64]	@ 0x40
1000147a:	b281      	uxth	r1, r0
1000147c:	468a      	mov	sl, r1
1000147e:	b2ad      	uxth	r5, r5
10001480:	4ca3      	ldr	r4, [pc, #652]	@ (10001710 <drawChar.part.0+0x2a8>)
10001482:	4618      	mov	r0, r3
10001484:	eb02 0282 	add.w	r2, r2, r2, lsl #2
10001488:	f5c5 73ef 	rsb	r3, r5, #478	@ 0x1de
1000148c:	4422      	add	r2, r4
1000148e:	3301      	adds	r3, #1
10001490:	9214      	str	r2, [sp, #80]	@ 0x50
10001492:	f89d b09c 	ldrb.w	fp, [sp, #156]	@ 0x9c
10001496:	b29a      	uxth	r2, r3
10001498:	9511      	str	r5, [sp, #68]	@ 0x44
1000149a:	9212      	str	r2, [sp, #72]	@ 0x48
1000149c:	9101      	str	r1, [sp, #4]
1000149e:	f1b9 0f05 	cmp.w	r9, #5
100014a2:	bf08      	it	eq
100014a4:	2300      	moveq	r3, #0
100014a6:	f240 217f 	movw	r1, #639	@ 0x27f
100014aa:	bf18      	it	ne
100014ac:	9b14      	ldrne	r3, [sp, #80]	@ 0x50
100014ae:	fa0f fc8a 	sxth.w	ip, sl
100014b2:	bf18      	it	ne
100014b4:	f813 3009 	ldrbne.w	r3, [r3, r9]
100014b8:	9f01      	ldr	r7, [sp, #4]
100014ba:	9303      	str	r3, [sp, #12]
100014bc:	9b11      	ldr	r3, [sp, #68]	@ 0x44
100014be:	eb0c 080b 	add.w	r8, ip, fp
100014c2:	461c      	mov	r4, r3
100014c4:	461d      	mov	r5, r3
100014c6:	3308      	adds	r3, #8
100014c8:	fa1f fe83 	uxth.w	lr, r3
100014cc:	f00a 0301 	and.w	r3, sl, #1
100014d0:	9305      	str	r3, [sp, #20]
100014d2:	f10c 0301 	add.w	r3, ip, #1
100014d6:	930a      	str	r3, [sp, #40]	@ 0x28
100014d8:	eba1 030c 	sub.w	r3, r1, ip
100014dc:	f5b8 7f20 	cmp.w	r8, #640	@ 0x280
100014e0:	bfd8      	it	le
100014e2:	465b      	movle	r3, fp
100014e4:	428f      	cmp	r7, r1
100014e6:	bf94      	ite	ls
100014e8:	2700      	movls	r7, #0
100014ea:	2701      	movhi	r7, #1
100014ec:	458a      	cmp	sl, r1
100014ee:	9702      	str	r7, [sp, #8]
100014f0:	bf94      	ite	ls
100014f2:	2700      	movls	r7, #0
100014f4:	2701      	movhi	r7, #1
100014f6:	f10a 32ff 	add.w	r2, sl, #4294967295	@ 0xffffffff
100014fa:	441a      	add	r2, r3
100014fc:	b292      	uxth	r2, r2
100014fe:	9204      	str	r2, [sp, #16]
10001500:	1e5a      	subs	r2, r3, #1
10001502:	970d      	str	r7, [sp, #52]	@ 0x34
10001504:	eb0c 0702 	add.w	r7, ip, r2
10001508:	fa1f f887 	uxth.w	r8, r7
1000150c:	4588      	cmp	r8, r1
1000150e:	970c      	str	r7, [sp, #48]	@ 0x30
10001510:	bf94      	ite	ls
10001512:	2700      	movls	r7, #0
10001514:	2701      	movhi	r7, #1
10001516:	f1a3 0802 	sub.w	r8, r3, #2
1000151a:	f012 0f01 	tst.w	r2, #1
1000151e:	970b      	str	r7, [sp, #44]	@ 0x2c
10001520:	bf0c      	ite	eq
10001522:	4617      	moveq	r7, r2
10001524:	4647      	movne	r7, r8
10001526:	970f      	str	r7, [sp, #60]	@ 0x3c
10001528:	9f04      	ldr	r7, [sp, #16]
1000152a:	f8cd a018 	str.w	sl, [sp, #24]
1000152e:	428f      	cmp	r7, r1
10001530:	bf94      	ite	ls
10001532:	2100      	movls	r1, #0
10001534:	2101      	movhi	r1, #1
10001536:	f013 0f01 	tst.w	r3, #1
1000153a:	9109      	str	r1, [sp, #36]	@ 0x24
1000153c:	bf14      	ite	ne
1000153e:	4611      	movne	r1, r2
10001540:	4619      	moveq	r1, r3
10001542:	f002 0201 	and.w	r2, r2, #1
10001546:	f003 0301 	and.w	r3, r3, #1
1000154a:	46e2      	mov	sl, ip
1000154c:	9f03      	ldr	r7, [sp, #12]
1000154e:	9308      	str	r3, [sp, #32]
10001550:	9e12      	ldr	r6, [sp, #72]	@ 0x48
10001552:	4603      	mov	r3, r0
10001554:	f8dd c040 	ldr.w	ip, [sp, #64]	@ 0x40
10001558:	910e      	str	r1, [sp, #56]	@ 0x38
1000155a:	9207      	str	r2, [sp, #28]
1000155c:	f8cd 900c 	str.w	r9, [sp, #12]
10001560:	e028      	b.n	100015b4 <drawChar.part.0+0x14c>
10001562:	f1bb 0f01 	cmp.w	fp, #1
10001566:	d147      	bne.n	100015f8 <drawChar.part.0+0x190>
10001568:	f240 12df 	movw	r2, #479	@ 0x1df
1000156c:	4294      	cmp	r4, r2
1000156e:	d815      	bhi.n	1000159c <drawChar.part.0+0x134>
10001570:	9a02      	ldr	r2, [sp, #8]
10001572:	b99a      	cbnz	r2, 1000159c <drawChar.part.0+0x134>
10001574:	f44f 7220 	mov.w	r2, #640	@ 0x280
10001578:	4611      	mov	r1, r2
1000157a:	9a01      	ldr	r2, [sp, #4]
1000157c:	fb14 2801 	smlabb	r8, r4, r1, r2
10001580:	4a64      	ldr	r2, [pc, #400]	@ (10001714 <drawChar.part.0+0x2ac>)
10001582:	ea4f 0168 	mov.w	r1, r8, asr #1
10001586:	f018 0f01 	tst.w	r8, #1
1000158a:	4610      	mov	r0, r2
1000158c:	5c52      	ldrb	r2, [r2, r1]
1000158e:	f000 80b8 	beq.w	10001702 <drawChar.part.0+0x29a>
10001592:	f002 020f 	and.w	r2, r2, #15
10001596:	ea42 1203 	orr.w	r2, r2, r3, lsl #4
1000159a:	5442      	strb	r2, [r0, r1]
1000159c:	3401      	adds	r4, #1
1000159e:	b2a4      	uxth	r4, r4
100015a0:	eba6 060b 	sub.w	r6, r6, fp
100015a4:	445d      	add	r5, fp
100015a6:	4574      	cmp	r4, lr
100015a8:	ea4f 0757 	mov.w	r7, r7, lsr #1
100015ac:	b2b6      	uxth	r6, r6
100015ae:	b2ad      	uxth	r5, r5
100015b0:	f000 8091 	beq.w	100016d6 <drawChar.part.0+0x26e>
100015b4:	07f8      	lsls	r0, r7, #31
100015b6:	d4d4      	bmi.n	10001562 <drawChar.part.0+0xfa>
100015b8:	4563      	cmp	r3, ip
100015ba:	d0ef      	beq.n	1000159c <drawChar.part.0+0x134>
100015bc:	f1bb 0f01 	cmp.w	fp, #1
100015c0:	d152      	bne.n	10001668 <drawChar.part.0+0x200>
100015c2:	f240 12df 	movw	r2, #479	@ 0x1df
100015c6:	4294      	cmp	r4, r2
100015c8:	d8e8      	bhi.n	1000159c <drawChar.part.0+0x134>
100015ca:	9a02      	ldr	r2, [sp, #8]
100015cc:	2a00      	cmp	r2, #0
100015ce:	d1e5      	bne.n	1000159c <drawChar.part.0+0x134>
100015d0:	f44f 7120 	mov.w	r1, #640	@ 0x280
100015d4:	9a01      	ldr	r2, [sp, #4]
100015d6:	484f      	ldr	r0, [pc, #316]	@ (10001714 <drawChar.part.0+0x2ac>)
100015d8:	fb14 2101 	smlabb	r1, r4, r1, r2
100015dc:	ea4f 0861 	mov.w	r8, r1, asr #1
100015e0:	07c9      	lsls	r1, r1, #31
100015e2:	f810 2008 	ldrb.w	r2, [r0, r8]
100015e6:	f140 80f6 	bpl.w	100017d6 <drawChar.part.0+0x36e>
100015ea:	f002 020f 	and.w	r2, r2, #15
100015ee:	ea42 120c 	orr.w	r2, r2, ip, lsl #4
100015f2:	f800 2008 	strb.w	r2, [r0, r8]
100015f6:	e7d1      	b.n	1000159c <drawChar.part.0+0x134>
100015f8:	b22a      	sxth	r2, r5
100015fa:	eb02 010b 	add.w	r1, r2, fp
100015fe:	f5b1 7ff0 	cmp.w	r1, #480	@ 0x1e0
10001602:	bfca      	itet	gt
10001604:	fa0f f886 	sxthgt.w	r8, r6
10001608:	fa0f f88b 	sxthle.w	r8, fp
1000160c:	eb08 0102 	addgt.w	r1, r8, r2
10001610:	f1b8 0f00 	cmp.w	r8, #0
10001614:	4691      	mov	r9, r2
10001616:	ddc1      	ble.n	1000159c <drawChar.part.0+0x134>
10001618:	f5ba 7f20 	cmp.w	sl, #640	@ 0x280
1000161c:	dabe      	bge.n	1000159c <drawChar.part.0+0x134>
1000161e:	9805      	ldr	r0, [sp, #20]
10001620:	2800      	cmp	r0, #0
10001622:	d179      	bne.n	10001718 <drawChar.part.0+0x2b0>
10001624:	f5b2 7ff0 	cmp.w	r2, #480	@ 0x1e0
10001628:	dab8      	bge.n	1000159c <drawChar.part.0+0x134>
1000162a:	f240 10df 	movw	r0, #479	@ 0x1df
1000162e:	f44f 7820 	mov.w	r8, #640	@ 0x280
10001632:	3901      	subs	r1, #1
10001634:	4281      	cmp	r1, r0
10001636:	bfa8      	it	ge
10001638:	4601      	movge	r1, r0
1000163a:	9804      	ldr	r0, [sp, #16]
1000163c:	fb12 0808 	smlabb	r8, r2, r8, r0
10001640:	9a0e      	ldr	r2, [sp, #56]	@ 0x38
10001642:	1052      	asrs	r2, r2, #1
10001644:	9213      	str	r2, [sp, #76]	@ 0x4c
10001646:	9a08      	ldr	r2, [sp, #32]
10001648:	2a00      	cmp	r2, #0
1000164a:	f040 80cc 	bne.w	100017e6 <drawChar.part.0+0x37e>
1000164e:	9a13      	ldr	r2, [sp, #76]	@ 0x4c
10001650:	9803      	ldr	r0, [sp, #12]
10001652:	2a00      	cmp	r2, #0
10001654:	f300 8126 	bgt.w	100018a4 <drawChar.part.0+0x43c>
10001658:	f109 0901 	add.w	r9, r9, #1
1000165c:	4549      	cmp	r1, r9
1000165e:	f508 7820 	add.w	r8, r8, #640	@ 0x280
10001662:	daf6      	bge.n	10001652 <drawChar.part.0+0x1ea>
10001664:	9003      	str	r0, [sp, #12]
10001666:	e799      	b.n	1000159c <drawChar.part.0+0x134>
10001668:	b229      	sxth	r1, r5
1000166a:	eb0b 0201 	add.w	r2, fp, r1
1000166e:	f5b2 7ff0 	cmp.w	r2, #480	@ 0x1e0
10001672:	bfca      	itet	gt
10001674:	fa0f f986 	sxthgt.w	r9, r6
10001678:	fa0f f98b 	sxthle.w	r9, fp
1000167c:	eb09 0201 	addgt.w	r2, r9, r1
10001680:	f1b9 0f00 	cmp.w	r9, #0
10001684:	4688      	mov	r8, r1
10001686:	dd89      	ble.n	1000159c <drawChar.part.0+0x134>
10001688:	f5ba 7f20 	cmp.w	sl, #640	@ 0x280
1000168c:	da86      	bge.n	1000159c <drawChar.part.0+0x134>
1000168e:	f5b1 7ff0 	cmp.w	r1, #480	@ 0x1e0
10001692:	da83      	bge.n	1000159c <drawChar.part.0+0x134>
10001694:	f102 39ff 	add.w	r9, r2, #4294967295	@ 0xffffffff
10001698:	f240 12df 	movw	r2, #479	@ 0x1df
1000169c:	4591      	cmp	r9, r2
1000169e:	e9cd 4515 	strd	r4, r5, [sp, #84]	@ 0x54
100016a2:	bfa8      	it	ge
100016a4:	4691      	movge	r9, r2
100016a6:	460d      	mov	r5, r1
100016a8:	4698      	mov	r8, r3
100016aa:	4664      	mov	r4, ip
100016ac:	9713      	str	r7, [sp, #76]	@ 0x4c
100016ae:	9f03      	ldr	r7, [sp, #12]
100016b0:	f8cd e05c 	str.w	lr, [sp, #92]	@ 0x5c
100016b4:	4629      	mov	r1, r5
100016b6:	4623      	mov	r3, r4
100016b8:	465a      	mov	r2, fp
100016ba:	4650      	mov	r0, sl
100016bc:	3501      	adds	r5, #1
100016be:	f7ff fe67 	bl	10001390 <drawHLine.part.0>
100016c2:	454d      	cmp	r5, r9
100016c4:	ddf6      	ble.n	100016b4 <drawChar.part.0+0x24c>
100016c6:	e9dd 5e16 	ldrd	r5, lr, [sp, #88]	@ 0x58
100016ca:	46a4      	mov	ip, r4
100016cc:	9703      	str	r7, [sp, #12]
100016ce:	4643      	mov	r3, r8
100016d0:	9f13      	ldr	r7, [sp, #76]	@ 0x4c
100016d2:	9c15      	ldr	r4, [sp, #84]	@ 0x54
100016d4:	e762      	b.n	1000159c <drawChar.part.0+0x134>
100016d6:	9a01      	ldr	r2, [sp, #4]
100016d8:	f8dd 900c 	ldr.w	r9, [sp, #12]
100016dc:	f8dd a018 	ldr.w	sl, [sp, #24]
100016e0:	3201      	adds	r2, #1
100016e2:	f109 0901 	add.w	r9, r9, #1
100016e6:	4618      	mov	r0, r3
100016e8:	b292      	uxth	r2, r2
100016ea:	eb0a 030b 	add.w	r3, sl, fp
100016ee:	f1b9 0f06 	cmp.w	r9, #6
100016f2:	9201      	str	r2, [sp, #4]
100016f4:	fa1f fa83 	uxth.w	sl, r3
100016f8:	f47f aed1 	bne.w	1000149e <drawChar.part.0+0x36>
100016fc:	b01d      	add	sp, #116	@ 0x74
100016fe:	e8bd 8ff0 	ldmia.w	sp!, {r4, r5, r6, r7, r8, r9, sl, fp, pc}
10001702:	4804      	ldr	r0, [pc, #16]	@ (10001714 <drawChar.part.0+0x2ac>)
10001704:	f022 020f 	bic.w	r2, r2, #15
10001708:	431a      	orrs	r2, r3
1000170a:	5442      	strb	r2, [r0, r1]
1000170c:	e746      	b.n	1000159c <drawChar.part.0+0x134>
1000170e:	bf00      	nop
10001710:	1000dbd8 	.word	0x1000dbd8
10001714:	20001528 	.word	0x20001528
10001718:	f5b2 7ff0 	cmp.w	r2, #480	@ 0x1e0
1000171c:	f6bf af3e 	bge.w	1000159c <drawChar.part.0+0x134>
10001720:	1e48      	subs	r0, r1, #1
10001722:	f240 11df 	movw	r1, #479	@ 0x1df
10001726:	4288      	cmp	r0, r1
10001728:	bfa8      	it	ge
1000172a:	4608      	movge	r0, r1
1000172c:	f44f 7120 	mov.w	r1, #640	@ 0x280
10001730:	fb12 a801 	smlabb	r8, r2, r1, sl
10001734:	9a0f      	ldr	r2, [sp, #60]	@ 0x3c
10001736:	e9cd 5617 	strd	r5, r6, [sp, #92]	@ 0x5c
1000173a:	1052      	asrs	r2, r2, #1
1000173c:	9715      	str	r7, [sp, #84]	@ 0x54
1000173e:	4605      	mov	r5, r0
10001740:	4657      	mov	r7, sl
10001742:	461e      	mov	r6, r3
10001744:	4692      	mov	sl, r2
10001746:	ea43 1103 	orr.w	r1, r3, r3, lsl #4
1000174a:	9416      	str	r4, [sp, #88]	@ 0x58
1000174c:	9c0d      	ldr	r4, [sp, #52]	@ 0x34
1000174e:	9113      	str	r1, [sp, #76]	@ 0x4c
10001750:	f8cd e064 	str.w	lr, [sp, #100]	@ 0x64
10001754:	f8cd c068 	str.w	ip, [sp, #104]	@ 0x68
10001758:	ea4f 71d9 	mov.w	r1, r9, lsr #31
1000175c:	b95c      	cbnz	r4, 10001776 <drawChar.part.0+0x30e>
1000175e:	b951      	cbnz	r1, 10001776 <drawChar.part.0+0x30e>
10001760:	4b51      	ldr	r3, [pc, #324]	@ (100018a8 <drawChar.part.0+0x440>)
10001762:	ea4f 0c68 	mov.w	ip, r8, asr #1
10001766:	f813 000c 	ldrb.w	r0, [r3, ip]
1000176a:	f000 000f 	and.w	r0, r0, #15
1000176e:	ea40 1006 	orr.w	r0, r0, r6, lsl #4
10001772:	f803 000c 	strb.w	r0, [r3, ip]
10001776:	9b07      	ldr	r3, [sp, #28]
10001778:	b16b      	cbz	r3, 10001796 <drawChar.part.0+0x32e>
1000177a:	b961      	cbnz	r1, 10001796 <drawChar.part.0+0x32e>
1000177c:	9b0b      	ldr	r3, [sp, #44]	@ 0x2c
1000177e:	b953      	cbnz	r3, 10001796 <drawChar.part.0+0x32e>
10001780:	f8bd 1030 	ldrh.w	r1, [sp, #48]	@ 0x30
10001784:	4b48      	ldr	r3, [pc, #288]	@ (100018a8 <drawChar.part.0+0x440>)
10001786:	1bc9      	subs	r1, r1, r7
10001788:	4441      	add	r1, r8
1000178a:	1049      	asrs	r1, r1, #1
1000178c:	5c58      	ldrb	r0, [r3, r1]
1000178e:	f020 000f 	bic.w	r0, r0, #15
10001792:	4330      	orrs	r0, r6
10001794:	5458      	strb	r0, [r3, r1]
10001796:	f1ba 0f00 	cmp.w	sl, #0
1000179a:	dd0b      	ble.n	100017b4 <drawChar.part.0+0x34c>
1000179c:	9b0a      	ldr	r3, [sp, #40]	@ 0x28
1000179e:	eb09 0089 	add.w	r0, r9, r9, lsl #2
100017a2:	0180      	lsls	r0, r0, #6
100017a4:	eb00 0063 	add.w	r0, r0, r3, asr #1
100017a8:	4b3f      	ldr	r3, [pc, #252]	@ (100018a8 <drawChar.part.0+0x440>)
100017aa:	4652      	mov	r2, sl
100017ac:	9913      	ldr	r1, [sp, #76]	@ 0x4c
100017ae:	4418      	add	r0, r3
100017b0:	f006 fa52 	bl	10007c58 <memset>
100017b4:	f109 0901 	add.w	r9, r9, #1
100017b8:	45a9      	cmp	r9, r5
100017ba:	f508 7820 	add.w	r8, r8, #640	@ 0x280
100017be:	ddcb      	ble.n	10001758 <drawChar.part.0+0x2f0>
100017c0:	46ba      	mov	sl, r7
100017c2:	e9dd 7415 	ldrd	r7, r4, [sp, #84]	@ 0x54
100017c6:	4633      	mov	r3, r6
100017c8:	9d17      	ldr	r5, [sp, #92]	@ 0x5c
100017ca:	f8dd e064 	ldr.w	lr, [sp, #100]	@ 0x64
100017ce:	9e18      	ldr	r6, [sp, #96]	@ 0x60
100017d0:	f8dd c068 	ldr.w	ip, [sp, #104]	@ 0x68
100017d4:	e6e2      	b.n	1000159c <drawChar.part.0+0x134>
100017d6:	4934      	ldr	r1, [pc, #208]	@ (100018a8 <drawChar.part.0+0x440>)
100017d8:	f022 020f 	bic.w	r2, r2, #15
100017dc:	ea4c 0202 	orr.w	r2, ip, r2
100017e0:	f801 2008 	strb.w	r2, [r1, r8]
100017e4:	e6da      	b.n	1000159c <drawChar.part.0+0x134>
100017e6:	f8cd a054 	str.w	sl, [sp, #84]	@ 0x54
100017ea:	f1b9 0f00 	cmp.w	r9, #0
100017ee:	db0c      	blt.n	1000180a <drawChar.part.0+0x3a2>
100017f0:	9a09      	ldr	r2, [sp, #36]	@ 0x24
100017f2:	b952      	cbnz	r2, 1000180a <drawChar.part.0+0x3a2>
100017f4:	4a2c      	ldr	r2, [pc, #176]	@ (100018a8 <drawChar.part.0+0x440>)
100017f6:	ea4f 0a68 	mov.w	sl, r8, asr #1
100017fa:	4610      	mov	r0, r2
100017fc:	f812 200a 	ldrb.w	r2, [r2, sl]
10001800:	f022 020f 	bic.w	r2, r2, #15
10001804:	431a      	orrs	r2, r3
10001806:	f800 200a 	strb.w	r2, [r0, sl]
1000180a:	9a13      	ldr	r2, [sp, #76]	@ 0x4c
1000180c:	2a00      	cmp	r2, #0
1000180e:	dc08      	bgt.n	10001822 <drawChar.part.0+0x3ba>
10001810:	f109 0901 	add.w	r9, r9, #1
10001814:	4549      	cmp	r1, r9
10001816:	f508 7820 	add.w	r8, r8, #640	@ 0x280
1000181a:	dae6      	bge.n	100017ea <drawChar.part.0+0x382>
1000181c:	f8dd a054 	ldr.w	sl, [sp, #84]	@ 0x54
10001820:	e6bc      	b.n	1000159c <drawChar.part.0+0x134>
10001822:	f8dd a054 	ldr.w	sl, [sp, #84]	@ 0x54
10001826:	e9cd a717 	strd	sl, r7, [sp, #92]	@ 0x5c
1000182a:	9419      	str	r4, [sp, #100]	@ 0x64
1000182c:	951a      	str	r5, [sp, #104]	@ 0x68
1000182e:	460c      	mov	r4, r1
10001830:	4645      	mov	r5, r8
10001832:	4677      	mov	r7, lr
10001834:	46e0      	mov	r8, ip
10001836:	ea4f 026a 	mov.w	r2, sl, asr #1
1000183a:	9216      	str	r2, [sp, #88]	@ 0x58
1000183c:	f8dd a00c 	ldr.w	sl, [sp, #12]
10001840:	ea43 1203 	orr.w	r2, r3, r3, lsl #4
10001844:	9215      	str	r2, [sp, #84]	@ 0x54
10001846:	931b      	str	r3, [sp, #108]	@ 0x6c
10001848:	9b16      	ldr	r3, [sp, #88]	@ 0x58
1000184a:	eb09 0089 	add.w	r0, r9, r9, lsl #2
1000184e:	eb03 1080 	add.w	r0, r3, r0, lsl #6
10001852:	4b15      	ldr	r3, [pc, #84]	@ (100018a8 <drawChar.part.0+0x440>)
10001854:	9a13      	ldr	r2, [sp, #76]	@ 0x4c
10001856:	9915      	ldr	r1, [sp, #84]	@ 0x54
10001858:	4418      	add	r0, r3
1000185a:	f109 0901 	add.w	r9, r9, #1
1000185e:	f006 f9fb 	bl	10007c58 <memset>
10001862:	45a1      	cmp	r9, r4
10001864:	f505 7520 	add.w	r5, r5, #640	@ 0x280
10001868:	dc11      	bgt.n	1000188e <drawChar.part.0+0x426>
1000186a:	9b08      	ldr	r3, [sp, #32]
1000186c:	2b00      	cmp	r3, #0
1000186e:	d0eb      	beq.n	10001848 <drawChar.part.0+0x3e0>
10001870:	f8cd a00c 	str.w	sl, [sp, #12]
10001874:	f8dd a05c 	ldr.w	sl, [sp, #92]	@ 0x5c
10001878:	4621      	mov	r1, r4
1000187a:	46be      	mov	lr, r7
1000187c:	46c4      	mov	ip, r8
1000187e:	9c19      	ldr	r4, [sp, #100]	@ 0x64
10001880:	46a8      	mov	r8, r5
10001882:	9f18      	ldr	r7, [sp, #96]	@ 0x60
10001884:	9b1b      	ldr	r3, [sp, #108]	@ 0x6c
10001886:	9d1a      	ldr	r5, [sp, #104]	@ 0x68
10001888:	f8cd a054 	str.w	sl, [sp, #84]	@ 0x54
1000188c:	e7ad      	b.n	100017ea <drawChar.part.0+0x382>
1000188e:	46be      	mov	lr, r7
10001890:	e9dd 4519 	ldrd	r4, r5, [sp, #100]	@ 0x64
10001894:	f8cd a00c 	str.w	sl, [sp, #12]
10001898:	46c4      	mov	ip, r8
1000189a:	9f18      	ldr	r7, [sp, #96]	@ 0x60
1000189c:	f8dd a05c 	ldr.w	sl, [sp, #92]	@ 0x5c
100018a0:	9b1b      	ldr	r3, [sp, #108]	@ 0x6c
100018a2:	e67b      	b.n	1000159c <drawChar.part.0+0x134>
100018a4:	9003      	str	r0, [sp, #12]
100018a6:	e7be      	b.n	10001826 <drawChar.part.0+0x3be>
100018a8:	20001528 	.word	0x20001528
100018ac:	00000000 	.word	0x00000000

100018b0 <initVGA>:
100018b0:	e92d 4ff0 	stmdb	sp!, {r4, r5, r6, r7, r8, r9, sl, fp, lr}
100018b4:	ed2d 8b02 	vpush	{d8}
100018b8:	4987      	ldr	r1, [pc, #540]	@ (10001ad8 <initVGA+0x228>)
100018ba:	b08b      	sub	sp, #44	@ 0x2c
100018bc:	4887      	ldr	r0, [pc, #540]	@ (10001adc <initVGA+0x22c>)
100018be:	f005 fa65 	bl	10006d8c <pio_add_program>
100018c2:	4987      	ldr	r1, [pc, #540]	@ (10001ae0 <initVGA+0x230>)
100018c4:	4681      	mov	r9, r0
100018c6:	4885      	ldr	r0, [pc, #532]	@ (10001adc <initVGA+0x22c>)
100018c8:	f005 fa60 	bl	10006d8c <pio_add_program>
100018cc:	4985      	ldr	r1, [pc, #532]	@ (10001ae4 <initVGA+0x234>)
100018ce:	4680      	mov	r8, r0
100018d0:	4882      	ldr	r0, [pc, #520]	@ (10001adc <initVGA+0x22c>)
100018d2:	f005 fa5b 	bl	10006d8c <pio_add_program>
100018d6:	ed9f 8b7c 	vldr	d8, [pc, #496]	@ 10001ac8 <initVGA+0x218>
100018da:	4607      	mov	r7, r0
100018dc:	2100      	movs	r1, #0
100018de:	487f      	ldr	r0, [pc, #508]	@ (10001adc <initVGA+0x22c>)
100018e0:	f005 fa30 	bl	10006d44 <pio_sm_claim>
100018e4:	2101      	movs	r1, #1
100018e6:	487d      	ldr	r0, [pc, #500]	@ (10001adc <initVGA+0x22c>)
100018e8:	f005 fa2c 	bl	10006d44 <pio_sm_claim>
100018ec:	f04f 0a00 	mov.w	sl, #0
100018f0:	f44f 2b40 	mov.w	fp, #786432	@ 0xc0000
100018f4:	2102      	movs	r1, #2
100018f6:	4879      	ldr	r0, [pc, #484]	@ (10001adc <initVGA+0x22c>)
100018f8:	f005 fa24 	bl	10006d44 <pio_sm_claim>
100018fc:	ed8d 8b02 	vstr	d8, [sp, #8]
10001900:	f109 0608 	add.w	r6, r9, #8
10001904:	ac02      	add	r4, sp, #8
10001906:	ad06      	add	r5, sp, #24
10001908:	f8cd a014 	str.w	sl, [sp, #20]
1000190c:	f8cd b010 	str.w	fp, [sp, #16]
10001910:	f109 0301 	add.w	r3, r9, #1
10001914:	0336      	lsls	r6, r6, #12
10001916:	ea46 16c3 	orr.w	r6, r6, r3, lsl #7
1000191a:	e894 000f 	ldmia.w	r4, {r0, r1, r2, r3}
1000191e:	e885 000f 	stmia.w	r5, {r0, r1, r2, r3}
10001922:	9607      	str	r6, [sp, #28]
10001924:	e895 000f 	ldmia.w	r5, {r0, r1, r2, r3}
10001928:	2601      	movs	r6, #1
1000192a:	e884 000f 	stmia.w	r4, {r0, r1, r2, r3}
1000192e:	f44f 23c0 	mov.w	r3, #393216	@ 0x60000
10001932:	f8df c1cc 	ldr.w	ip, [pc, #460]	@ 10001b00 <initVGA+0x250>
10001936:	2106      	movs	r1, #6
10001938:	2010      	movs	r0, #16
1000193a:	f8cd c014 	str.w	ip, [sp, #20]
1000193e:	9302      	str	r3, [sp, #8]
10001940:	f002 f866 	bl	10003a10 <gpio_set_function>
10001944:	2210      	movs	r2, #16
10001946:	4633      	mov	r3, r6
10001948:	4651      	mov	r1, sl
1000194a:	4864      	ldr	r0, [pc, #400]	@ (10001adc <initVGA+0x22c>)
1000194c:	9600      	str	r6, [sp, #0]
1000194e:	f005 fa97 	bl	10006e80 <pio_sm_set_consecutive_pindirs>
10001952:	4623      	mov	r3, r4
10001954:	464a      	mov	r2, r9
10001956:	4651      	mov	r1, sl
10001958:	4860      	ldr	r0, [pc, #384]	@ (10001adc <initVGA+0x22c>)
1000195a:	f005 fad7 	bl	10006f0c <pio_sm_init>
1000195e:	f44f 23c0 	mov.w	r3, #393216	@ 0x60000
10001962:	9306      	str	r3, [sp, #24]
10001964:	f108 030d 	add.w	r3, r8, #13
10001968:	eb08 0206 	add.w	r2, r8, r6
1000196c:	031b      	lsls	r3, r3, #12
1000196e:	ea43 13c2 	orr.w	r3, r3, r2, lsl #7
10001972:	f023 43c0 	bic.w	r3, r3, #1610612736	@ 0x60000000
10001976:	f043 4380 	orr.w	r3, r3, #1073741824	@ 0x40000000
1000197a:	9307      	str	r3, [sp, #28]
1000197c:	4b5a      	ldr	r3, [pc, #360]	@ (10001ae8 <initVGA+0x238>)
1000197e:	2106      	movs	r1, #6
10001980:	2011      	movs	r0, #17
10001982:	9309      	str	r3, [sp, #36]	@ 0x24
10001984:	f8cd b020 	str.w	fp, [sp, #32]
10001988:	f002 f842 	bl	10003a10 <gpio_set_function>
1000198c:	2211      	movs	r2, #17
1000198e:	4633      	mov	r3, r6
10001990:	4631      	mov	r1, r6
10001992:	4852      	ldr	r0, [pc, #328]	@ (10001adc <initVGA+0x22c>)
10001994:	9600      	str	r6, [sp, #0]
10001996:	f005 fa73 	bl	10006e80 <pio_sm_set_consecutive_pindirs>
1000199a:	462b      	mov	r3, r5
1000199c:	4642      	mov	r2, r8
1000199e:	f20f 1930 	addw	r9, pc, #304	@ 0x130
100019a2:	e9d9 8900 	ldrd	r8, r9, [r9]
100019a6:	4631      	mov	r1, r6
100019a8:	484c      	ldr	r0, [pc, #304]	@ (10001adc <initVGA+0x22c>)
100019aa:	f005 faaf 	bl	10006f0c <pio_sm_init>
100019ae:	ed8d 8b02 	vstr	d8, [sp, #8]
100019b2:	e9cd ba04 	strd	fp, sl, [sp, #16]
100019b6:	f107 0c08 	add.w	ip, r7, #8
100019ba:	1cbb      	adds	r3, r7, #2
100019bc:	ea4f 3c0c 	mov.w	ip, ip, lsl #12
100019c0:	ea4c 1cc3 	orr.w	ip, ip, r3, lsl #7
100019c4:	e894 000f 	ldmia.w	r4, {r0, r1, r2, r3}
100019c8:	e885 000f 	stmia.w	r5, {r0, r1, r2, r3}
100019cc:	f8cd c01c 	str.w	ip, [sp, #28]
100019d0:	e895 000f 	ldmia.w	r5, {r0, r1, r2, r3}
100019d4:	e884 000f 	stmia.w	r4, {r0, r1, r2, r3}
100019d8:	2106      	movs	r1, #6
100019da:	2012      	movs	r0, #18
100019dc:	e9cd 8904 	strd	r8, r9, [sp, #16]
100019e0:	f002 f816 	bl	10003a10 <gpio_set_function>
100019e4:	2106      	movs	r1, #6
100019e6:	2013      	movs	r0, #19
100019e8:	f002 f812 	bl	10003a10 <gpio_set_function>
100019ec:	2106      	movs	r1, #6
100019ee:	2014      	movs	r0, #20
100019f0:	f002 f80e 	bl	10003a10 <gpio_set_function>
100019f4:	2106      	movs	r1, #6
100019f6:	2015      	movs	r0, #21
100019f8:	f002 f80a 	bl	10003a10 <gpio_set_function>
100019fc:	2304      	movs	r3, #4
100019fe:	2212      	movs	r2, #18
10001a00:	2102      	movs	r1, #2
10001a02:	4836      	ldr	r0, [pc, #216]	@ (10001adc <initVGA+0x22c>)
10001a04:	9600      	str	r6, [sp, #0]
10001a06:	f005 fa3b 	bl	10006e80 <pio_sm_set_consecutive_pindirs>
10001a0a:	4623      	mov	r3, r4
10001a0c:	463a      	mov	r2, r7
10001a0e:	2102      	movs	r1, #2
10001a10:	4832      	ldr	r0, [pc, #200]	@ (10001adc <initVGA+0x22c>)
10001a12:	f005 fa7b 	bl	10006f0c <pio_sm_init>
10001a16:	4630      	mov	r0, r6
10001a18:	f005 facc 	bl	10006fb4 <dma_claim_unused_channel>
10001a1c:	4604      	mov	r4, r0
10001a1e:	4630      	mov	r0, r6
10001a20:	f005 fac8 	bl	10006fb4 <dma_claim_unused_channel>
10001a24:	4603      	mov	r3, r0
10001a26:	f44f 3e16 	mov.w	lr, #153600	@ 0x25800
10001a2a:	4d30      	ldr	r5, [pc, #192]	@ (10001aec <initVGA+0x23c>)
10001a2c:	4930      	ldr	r1, [pc, #192]	@ (10001af0 <initVGA+0x240>)
10001a2e:	4831      	ldr	r0, [pc, #196]	@ (10001af4 <initVGA+0x244>)
10001a30:	f8df 80d0 	ldr.w	r8, [pc, #208]	@ 10001b04 <initVGA+0x254>
10001a34:	ea4f 1c84 	mov.w	ip, r4, lsl #6
10001a38:	f10c 4ca0 	add.w	ip, ip, #1342177280	@ 0x50000000
10001a3c:	ea01 3143 	and.w	r1, r1, r3, lsl #13
10001a40:	ea05 3544 	and.w	r5, r5, r4, lsl #13
10001a44:	f8cc 8000 	str.w	r8, [ip]
10001a48:	ea41 3144 	orr.w	r1, r1, r4, lsl #13
10001a4c:	f8cc 0004 	str.w	r0, [ip, #4]
10001a50:	ea45 3043 	orr.w	r0, r5, r3, lsl #13
10001a54:	4f28      	ldr	r7, [pc, #160]	@ (10001af8 <initVGA+0x248>)
10001a56:	f440 2080 	orr.w	r0, r0, #262144	@ 0x40000
10001a5a:	f441 01fc 	orr.w	r1, r1, #8257536	@ 0x7e0000
10001a5e:	019b      	lsls	r3, r3, #6
10001a60:	f103 43a0 	add.w	r3, r3, #1342177280	@ 0x50000000
10001a64:	f040 0011 	orr.w	r0, r0, #17
10001a68:	f041 0109 	orr.w	r1, r1, #9
10001a6c:	4a1b      	ldr	r2, [pc, #108]	@ (10001adc <initVGA+0x22c>)
10001a6e:	f8cc e008 	str.w	lr, [ip, #8]
10001a72:	f8cc 0010 	str.w	r0, [ip, #16]
10001a76:	601f      	str	r7, [r3, #0]
10001a78:	f8c3 c004 	str.w	ip, [r3, #4]
10001a7c:	609e      	str	r6, [r3, #8]
10001a7e:	6119      	str	r1, [r3, #16]
10001a80:	6853      	ldr	r3, [r2, #4]
10001a82:	03d9      	lsls	r1, r3, #15
10001a84:	d4fc      	bmi.n	10001a80 <initVGA+0x1d0>
10001a86:	f240 238f 	movw	r3, #655	@ 0x28f
10001a8a:	4914      	ldr	r1, [pc, #80]	@ (10001adc <initVGA+0x22c>)
10001a8c:	6113      	str	r3, [r2, #16]
10001a8e:	684b      	ldr	r3, [r1, #4]
10001a90:	039a      	lsls	r2, r3, #14
10001a92:	d4fc      	bmi.n	10001a8e <initVGA+0x1de>
10001a94:	f240 13df 	movw	r3, #479	@ 0x1df
10001a98:	4a10      	ldr	r2, [pc, #64]	@ (10001adc <initVGA+0x22c>)
10001a9a:	614b      	str	r3, [r1, #20]
10001a9c:	6853      	ldr	r3, [r2, #4]
10001a9e:	035b      	lsls	r3, r3, #13
10001aa0:	d4fc      	bmi.n	10001a9c <initVGA+0x1ec>
10001aa2:	f240 153f 	movw	r5, #319	@ 0x13f
10001aa6:	2301      	movs	r3, #1
10001aa8:	6195      	str	r5, [r2, #24]
10001aaa:	f240 7007 	movw	r0, #1799	@ 0x707
10001aae:	f04f 42a0 	mov.w	r2, #1342177280	@ 0x50000000
10001ab2:	4912      	ldr	r1, [pc, #72]	@ (10001afc <initVGA+0x24c>)
10001ab4:	40a3      	lsls	r3, r4
10001ab6:	6008      	str	r0, [r1, #0]
10001ab8:	f8c2 3450 	str.w	r3, [r2, #1104]	@ 0x450
10001abc:	b00b      	add	sp, #44	@ 0x2c
10001abe:	ecbd 8b02 	vpop	{d8}
10001ac2:	e8bd 8ff0 	ldmia.w	sp!, {r4, r5, r6, r7, r8, r9, sl, fp, pc}
10001ac6:	bf00      	nop
10001ac8:	00010000 	.word	0x00010000
10001acc:	0001f000 	.word	0x0001f000
10001ad0:	400c0000 	.word	0x400c0000
10001ad4:	10400252 	.word	0x10400252
10001ad8:	1000e114 	.word	0x1000e114
10001adc:	50200000 	.word	0x50200000
10001ae0:	1000e0f0 	.word	0x1000e0f0
10001ae4:	1000e0d4 	.word	0x1000e0d4
10001ae8:	44004620 	.word	0x44004620
10001aec:	fc001ffd 	.word	0xfc001ffd
10001af0:	fc7e1ffd 	.word	0xfc7e1ffd
10001af4:	50200018 	.word	0x50200018
10001af8:	20000640 	.word	0x20000640
10001afc:	50202000 	.word	0x50202000
10001b00:	04000200 	.word	0x04000200
10001b04:	20001528 	.word	0x20001528

10001b08 <drawPixel>:
10001b08:	b283      	uxth	r3, r0
10001b0a:	f5b3 7f20 	cmp.w	r3, #640	@ 0x280
10001b0e:	d21c      	bcs.n	10001b4a <drawPixel+0x42>
10001b10:	b28b      	uxth	r3, r1
10001b12:	f5b3 7ff0 	cmp.w	r3, #480	@ 0x1e0
10001b16:	d218      	bcs.n	10001b4a <drawPixel+0x42>
10001b18:	f44f 7320 	mov.w	r3, #640	@ 0x280
10001b1c:	b410      	push	{r4}
10001b1e:	fb11 0103 	smlabb	r1, r1, r3, r0
10001b22:	4c0a      	ldr	r4, [pc, #40]	@ (10001b4c <drawPixel+0x44>)
10001b24:	1048      	asrs	r0, r1, #1
10001b26:	07c9      	lsls	r1, r1, #31
10001b28:	5c23      	ldrb	r3, [r4, r0]
10001b2a:	d406      	bmi.n	10001b3a <drawPixel+0x32>
10001b2c:	f023 030f 	bic.w	r3, r3, #15
10001b30:	431a      	orrs	r2, r3
10001b32:	5422      	strb	r2, [r4, r0]
10001b34:	f85d 4b04 	ldr.w	r4, [sp], #4
10001b38:	4770      	bx	lr
10001b3a:	f003 030f 	and.w	r3, r3, #15
10001b3e:	ea43 1302 	orr.w	r3, r3, r2, lsl #4
10001b42:	5423      	strb	r3, [r4, r0]
10001b44:	f85d 4b04 	ldr.w	r4, [sp], #4
10001b48:	4770      	bx	lr
10001b4a:	4770      	bx	lr
10001b4c:	20001528 	.word	0x20001528

10001b50 <drawVLine>:
10001b50:	440a      	add	r2, r1
10001b52:	4291      	cmp	r1, r2
10001b54:	da2d      	bge.n	10001bb2 <drawVLine+0x62>
10001b56:	e92d 41f0 	stmdb	sp!, {r4, r5, r6, r7, r8, lr}
10001b5a:	b285      	uxth	r5, r0
10001b5c:	f5b5 7f20 	cmp.w	r5, #640	@ 0x280
10001b60:	bf34      	ite	cc
10001b62:	2500      	movcc	r5, #0
10001b64:	2501      	movcs	r5, #1
10001b66:	f240 16df 	movw	r6, #479	@ 0x1df
10001b6a:	4c12      	ldr	r4, [pc, #72]	@ (10001bb4 <drawVLine+0x64>)
10001b6c:	011f      	lsls	r7, r3, #4
10001b6e:	eb01 0c81 	add.w	ip, r1, r1, lsl #2
10001b72:	b289      	uxth	r1, r1
10001b74:	eb00 1ccc 	add.w	ip, r0, ip, lsl #7
10001b78:	42b1      	cmp	r1, r6
10001b7a:	ea4f 086c 	mov.w	r8, ip, asr #1
10001b7e:	d812      	bhi.n	10001ba6 <drawVLine+0x56>
10001b80:	b98d      	cbnz	r5, 10001ba6 <drawVLine+0x56>
10001b82:	f814 e008 	ldrb.w	lr, [r4, r8]
10001b86:	f01c 0f01 	tst.w	ip, #1
10001b8a:	f00e 0c0f 	and.w	ip, lr, #15
10001b8e:	bf08      	it	eq
10001b90:	f02e 0e0f 	biceq.w	lr, lr, #15
10001b94:	ea4c 0c07 	orr.w	ip, ip, r7
10001b98:	bf0a      	itet	eq
10001b9a:	ea43 0e0e 	orreq.w	lr, r3, lr
10001b9e:	f804 c008 	strbne.w	ip, [r4, r8]
10001ba2:	f804 e008 	strbeq.w	lr, [r4, r8]
10001ba6:	3101      	adds	r1, #1
10001ba8:	b209      	sxth	r1, r1
10001baa:	4291      	cmp	r1, r2
10001bac:	dbdf      	blt.n	10001b6e <drawVLine+0x1e>
10001bae:	e8bd 81f0 	ldmia.w	sp!, {r4, r5, r6, r7, r8, pc}
10001bb2:	4770      	bx	lr
10001bb4:	20001528 	.word	0x20001528

10001bb8 <drawHLine>:
10001bb8:	f5b0 7f20 	cmp.w	r0, #640	@ 0x280
10001bbc:	da5e      	bge.n	10001c7c <drawHLine+0xc4>
10001bbe:	f5b1 7ff0 	cmp.w	r1, #480	@ 0x1e0
10001bc2:	da5b      	bge.n	10001c7c <drawHLine+0xc4>
10001bc4:	eb00 0c02 	add.w	ip, r0, r2
10001bc8:	f5bc 7f20 	cmp.w	ip, #640	@ 0x280
10001bcc:	bfc8      	it	gt
10001bce:	f5c0 721f 	rsbgt	r2, r0, #636	@ 0x27c
10001bd2:	b530      	push	{r4, r5, lr}
10001bd4:	bfc8      	it	gt
10001bd6:	3203      	addgt	r2, #3
10001bd8:	07c5      	lsls	r5, r0, #31
10001bda:	d523      	bpl.n	10001c24 <drawHLine+0x6c>
10001bdc:	fa1f fc80 	uxth.w	ip, r0
10001be0:	f5bc 7f20 	cmp.w	ip, #640	@ 0x280
10001be4:	d21c      	bcs.n	10001c20 <drawHLine+0x68>
10001be6:	b28c      	uxth	r4, r1
10001be8:	f5b4 7ff0 	cmp.w	r4, #480	@ 0x1e0
10001bec:	d218      	bcs.n	10001c20 <drawHLine+0x68>
10001bee:	f44f 7520 	mov.w	r5, #640	@ 0x280
10001bf2:	b204      	sxth	r4, r0
10001bf4:	fa0f fe81 	sxth.w	lr, r1
10001bf8:	fb1e 4e05 	smlabb	lr, lr, r5, r4
10001bfc:	4d26      	ldr	r5, [pc, #152]	@ (10001c98 <drawHLine+0xe0>)
10001bfe:	ea4f 046e 	mov.w	r4, lr, asr #1
10001c02:	f815 c004 	ldrb.w	ip, [r5, r4]
10001c06:	f01e 0f01 	tst.w	lr, #1
10001c0a:	bf15      	itete	ne
10001c0c:	f00c 0c0f 	andne.w	ip, ip, #15
10001c10:	f02c 0c0f 	biceq.w	ip, ip, #15
10001c14:	ea4c 1c03 	orrne.w	ip, ip, r3, lsl #4
10001c18:	ea43 0c0c 	orreq.w	ip, r3, ip
10001c1c:	f805 c004 	strb.w	ip, [r5, r4]
10001c20:	3001      	adds	r0, #1
10001c22:	3a01      	subs	r2, #1
10001c24:	07d4      	lsls	r4, r2, #31
10001c26:	d525      	bpl.n	10001c74 <drawHLine+0xbc>
10001c28:	eb00 0c02 	add.w	ip, r0, r2
10001c2c:	f10c 3cff 	add.w	ip, ip, #4294967295	@ 0xffffffff
10001c30:	fa1f fc8c 	uxth.w	ip, ip
10001c34:	f5bc 7f20 	cmp.w	ip, #640	@ 0x280
10001c38:	d21b      	bcs.n	10001c72 <drawHLine+0xba>
10001c3a:	b28c      	uxth	r4, r1
10001c3c:	f5b4 7ff0 	cmp.w	r4, #480	@ 0x1e0
10001c40:	d217      	bcs.n	10001c72 <drawHLine+0xba>
10001c42:	f44f 7420 	mov.w	r4, #640	@ 0x280
10001c46:	fa0f fe81 	sxth.w	lr, r1
10001c4a:	fb1e ce04 	smlabb	lr, lr, r4, ip
10001c4e:	4d12      	ldr	r5, [pc, #72]	@ (10001c98 <drawHLine+0xe0>)
10001c50:	ea4f 046e 	mov.w	r4, lr, asr #1
10001c54:	f815 c004 	ldrb.w	ip, [r5, r4]
10001c58:	f01e 0f01 	tst.w	lr, #1
10001c5c:	bf15      	itete	ne
10001c5e:	f00c 0c0f 	andne.w	ip, ip, #15
10001c62:	f02c 0c0f 	biceq.w	ip, ip, #15
10001c66:	ea4c 1c03 	orrne.w	ip, ip, r3, lsl #4
10001c6a:	ea43 0c0c 	orreq.w	ip, r3, ip
10001c6e:	f805 c004 	strb.w	ip, [r5, r4]
10001c72:	3a01      	subs	r2, #1
10001c74:	1052      	asrs	r2, r2, #1
10001c76:	2a00      	cmp	r2, #0
10001c78:	dc01      	bgt.n	10001c7e <drawHLine+0xc6>
10001c7a:	bd30      	pop	{r4, r5, pc}
10001c7c:	4770      	bx	lr
10001c7e:	4c06      	ldr	r4, [pc, #24]	@ (10001c98 <drawHLine+0xe0>)
10001c80:	eb01 0181 	add.w	r1, r1, r1, lsl #2
10001c84:	1040      	asrs	r0, r0, #1
10001c86:	eb00 1081 	add.w	r0, r0, r1, lsl #6
10001c8a:	4420      	add	r0, r4
10001c8c:	ea43 1103 	orr.w	r1, r3, r3, lsl #4
10001c90:	e8bd 4030 	ldmia.w	sp!, {r4, r5, lr}
10001c94:	f005 bfe0 	b.w	10007c58 <memset>
10001c98:	20001528 	.word	0x20001528

10001c9c <drawLine>:
10001c9c:	e92d 4ff0 	stmdb	sp!, {r4, r5, r6, r7, r8, r9, sl, fp, lr}
10001ca0:	b085      	sub	sp, #20
10001ca2:	f89d 4038 	ldrb.w	r4, [sp, #56]	@ 0x38
10001ca6:	1a5d      	subs	r5, r3, r1
10001ca8:	9401      	str	r4, [sp, #4]
10001caa:	1a14      	subs	r4, r2, r0
10001cac:	ea85 76e5 	eor.w	r6, r5, r5, asr #31
10001cb0:	ea84 7ee4 	eor.w	lr, r4, r4, asr #31
10001cb4:	eba6 76e5 	sub.w	r6, r6, r5, asr #31
10001cb8:	ebae 7ee4 	sub.w	lr, lr, r4, asr #31
10001cbc:	4576      	cmp	r6, lr
10001cbe:	460f      	mov	r7, r1
10001cc0:	dc58      	bgt.n	10001d74 <drawLine+0xd8>
10001cc2:	4282      	cmp	r2, r0
10001cc4:	f280 80b8 	bge.w	10001e38 <drawLine+0x19c>
10001cc8:	1a85      	subs	r5, r0, r2
10001cca:	1acc      	subs	r4, r1, r3
10001ccc:	f3c5 3cc0 	ubfx	ip, r5, #15, #1
10001cd0:	2c00      	cmp	r4, #0
10001cd2:	fa0c fc85 	sxtah	ip, ip, r5
10001cd6:	bfb8      	it	lt
10001cd8:	4264      	neglt	r4, r4
10001cda:	428b      	cmp	r3, r1
10001cdc:	b2ad      	uxth	r5, r5
10001cde:	ea4f 0c6c 	mov.w	ip, ip, asr #1
10001ce2:	f280 80b9 	bge.w	10001e58 <drawLine+0x1bc>
10001ce6:	4680      	mov	r8, r0
10001ce8:	4611      	mov	r1, r2
10001cea:	4618      	mov	r0, r3
10001cec:	2701      	movs	r7, #1
10001cee:	4643      	mov	r3, r8
10001cf0:	4576      	cmp	r6, lr
10001cf2:	b2a4      	uxth	r4, r4
10001cf4:	dd62      	ble.n	10001dbc <drawLine+0x120>
10001cf6:	9a01      	ldr	r2, [sp, #4]
10001cf8:	f240 18df 	movw	r8, #479	@ 0x1df
10001cfc:	0112      	lsls	r2, r2, #4
10001cfe:	f240 297f 	movw	r9, #639	@ 0x27f
10001d02:	e9cd 5202 	strd	r5, r2, [sp, #8]
10001d06:	f8df a180 	ldr.w	sl, [pc, #384]	@ 10001e88 <drawLine+0x1ec>
10001d0a:	e015      	b.n	10001d38 <drawLine+0x9c>
10001d0c:	f80a 100b 	strb.w	r1, [sl, fp]
10001d10:	ebac 0e04 	sub.w	lr, ip, r4
10001d14:	fa0f fc8e 	sxth.w	ip, lr
10001d18:	3201      	adds	r2, #1
10001d1a:	f1bc 0f00 	cmp.w	ip, #0
10001d1e:	b211      	sxth	r1, r2
10001d20:	fa1f fe8e 	uxth.w	lr, lr
10001d24:	da05      	bge.n	10001d32 <drawLine+0x96>
10001d26:	9a02      	ldr	r2, [sp, #8]
10001d28:	443e      	add	r6, r7
10001d2a:	4496      	add	lr, r2
10001d2c:	fa0f fc8e 	sxth.w	ip, lr
10001d30:	b230      	sxth	r0, r6
10001d32:	4299      	cmp	r1, r3
10001d34:	f300 8099 	bgt.w	10001e6a <drawLine+0x1ce>
10001d38:	b28a      	uxth	r2, r1
10001d3a:	4542      	cmp	r2, r8
10001d3c:	b286      	uxth	r6, r0
10001d3e:	d8e7      	bhi.n	10001d10 <drawLine+0x74>
10001d40:	454e      	cmp	r6, r9
10001d42:	d8e5      	bhi.n	10001d10 <drawLine+0x74>
10001d44:	f44f 7520 	mov.w	r5, #640	@ 0x280
10001d48:	fb11 0105 	smlabb	r1, r1, r5, r0
10001d4c:	ea4f 0b61 	mov.w	fp, r1, asr #1
10001d50:	f81a e00b 	ldrb.w	lr, [sl, fp]
10001d54:	9d03      	ldr	r5, [sp, #12]
10001d56:	f011 0f01 	tst.w	r1, #1
10001d5a:	f00e 010f 	and.w	r1, lr, #15
10001d5e:	ea41 0105 	orr.w	r1, r1, r5
10001d62:	d1d3      	bne.n	10001d0c <drawLine+0x70>
10001d64:	9901      	ldr	r1, [sp, #4]
10001d66:	f02e 0e0f 	bic.w	lr, lr, #15
10001d6a:	ea41 0e0e 	orr.w	lr, r1, lr
10001d6e:	f80a e00b 	strb.w	lr, [sl, fp]
10001d72:	e7cd      	b.n	10001d10 <drawLine+0x74>
10001d74:	428b      	cmp	r3, r1
10001d76:	da12      	bge.n	10001d9e <drawLine+0x102>
10001d78:	1acd      	subs	r5, r1, r3
10001d7a:	1a84      	subs	r4, r0, r2
10001d7c:	f3c5 3cc0 	ubfx	ip, r5, #15, #1
10001d80:	2c00      	cmp	r4, #0
10001d82:	fa0c fc85 	sxtah	ip, ip, r5
10001d86:	bfb8      	it	lt
10001d88:	4264      	neglt	r4, r4
10001d8a:	4282      	cmp	r2, r0
10001d8c:	b2ad      	uxth	r5, r5
10001d8e:	ea4f 0c6c 	mov.w	ip, ip, asr #1
10001d92:	da70      	bge.n	10001e76 <drawLine+0x1da>
10001d94:	4690      	mov	r8, r2
10001d96:	4608      	mov	r0, r1
10001d98:	461a      	mov	r2, r3
10001d9a:	4643      	mov	r3, r8
10001d9c:	e7a3      	b.n	10001ce6 <drawLine+0x4a>
10001d9e:	f3c5 3cc0 	ubfx	ip, r5, #15, #1
10001da2:	fa0c fc85 	sxtah	ip, ip, r5
10001da6:	4282      	cmp	r2, r0
10001da8:	4674      	mov	r4, lr
10001daa:	b2ad      	uxth	r5, r5
10001dac:	ea4f 0c6c 	mov.w	ip, ip, asr #1
10001db0:	dc67      	bgt.n	10001e82 <drawLine+0x1e6>
10001db2:	4576      	cmp	r6, lr
10001db4:	f64f 77ff 	movw	r7, #65535	@ 0xffff
10001db8:	b2a4      	uxth	r4, r4
10001dba:	dc9c      	bgt.n	10001cf6 <drawLine+0x5a>
10001dbc:	9a01      	ldr	r2, [sp, #4]
10001dbe:	f240 18df 	movw	r8, #479	@ 0x1df
10001dc2:	0112      	lsls	r2, r2, #4
10001dc4:	f240 297f 	movw	r9, #639	@ 0x27f
10001dc8:	e9cd 5202 	strd	r5, r2, [sp, #8]
10001dcc:	f8df a0b8 	ldr.w	sl, [pc, #184]	@ 10001e88 <drawLine+0x1ec>
10001dd0:	e014      	b.n	10001dfc <drawLine+0x160>
10001dd2:	f80a 100b 	strb.w	r1, [sl, fp]
10001dd6:	ebac 0e04 	sub.w	lr, ip, r4
10001dda:	fa0f fc8e 	sxth.w	ip, lr
10001dde:	3201      	adds	r2, #1
10001de0:	f1bc 0f00 	cmp.w	ip, #0
10001de4:	b211      	sxth	r1, r2
10001de6:	fa1f fe8e 	uxth.w	lr, lr
10001dea:	da05      	bge.n	10001df8 <drawLine+0x15c>
10001dec:	9a02      	ldr	r2, [sp, #8]
10001dee:	443e      	add	r6, r7
10001df0:	4496      	add	lr, r2
10001df2:	fa0f fc8e 	sxth.w	ip, lr
10001df6:	b230      	sxth	r0, r6
10001df8:	4299      	cmp	r1, r3
10001dfa:	dc36      	bgt.n	10001e6a <drawLine+0x1ce>
10001dfc:	b286      	uxth	r6, r0
10001dfe:	4546      	cmp	r6, r8
10001e00:	b28a      	uxth	r2, r1
10001e02:	d8e8      	bhi.n	10001dd6 <drawLine+0x13a>
10001e04:	454a      	cmp	r2, r9
10001e06:	d8e6      	bhi.n	10001dd6 <drawLine+0x13a>
10001e08:	f44f 7520 	mov.w	r5, #640	@ 0x280
10001e0c:	fb10 1105 	smlabb	r1, r0, r5, r1
10001e10:	ea4f 0b61 	mov.w	fp, r1, asr #1
10001e14:	f81a e00b 	ldrb.w	lr, [sl, fp]
10001e18:	9d01      	ldr	r5, [sp, #4]
10001e1a:	f011 0f01 	tst.w	r1, #1
10001e1e:	f02e 010f 	bic.w	r1, lr, #15
10001e22:	ea41 0105 	orr.w	r1, r1, r5
10001e26:	d0d4      	beq.n	10001dd2 <drawLine+0x136>
10001e28:	9903      	ldr	r1, [sp, #12]
10001e2a:	f00e 0e0f 	and.w	lr, lr, #15
10001e2e:	ea41 0e0e 	orr.w	lr, r1, lr
10001e32:	f80a e00b 	strb.w	lr, [sl, fp]
10001e36:	e7ce      	b.n	10001dd6 <drawLine+0x13a>
10001e38:	f3c4 3cc0 	ubfx	ip, r4, #15, #1
10001e3c:	428b      	cmp	r3, r1
10001e3e:	fa0c fc84 	sxtah	ip, ip, r4
10001e42:	4601      	mov	r1, r0
10001e44:	4613      	mov	r3, r2
10001e46:	4638      	mov	r0, r7
10001e48:	b2a5      	uxth	r5, r4
10001e4a:	ea4f 0c6c 	mov.w	ip, ip, asr #1
10001e4e:	dc0f      	bgt.n	10001e70 <drawLine+0x1d4>
10001e50:	f64f 77ff 	movw	r7, #65535	@ 0xffff
10001e54:	b2b4      	uxth	r4, r6
10001e56:	e7b1      	b.n	10001dbc <drawLine+0x120>
10001e58:	4681      	mov	r9, r0
10001e5a:	4611      	mov	r1, r2
10001e5c:	4618      	mov	r0, r3
10001e5e:	f64f 77ff 	movw	r7, #65535	@ 0xffff
10001e62:	464b      	mov	r3, r9
10001e64:	4299      	cmp	r1, r3
10001e66:	f77f af43 	ble.w	10001cf0 <drawLine+0x54>
10001e6a:	b005      	add	sp, #20
10001e6c:	e8bd 8ff0 	ldmia.w	sp!, {r4, r5, r6, r7, r8, r9, sl, fp, pc}
10001e70:	4634      	mov	r4, r6
10001e72:	2701      	movs	r7, #1
10001e74:	e7f6      	b.n	10001e64 <drawLine+0x1c8>
10001e76:	4619      	mov	r1, r3
10001e78:	4610      	mov	r0, r2
10001e7a:	463b      	mov	r3, r7
10001e7c:	f64f 77ff 	movw	r7, #65535	@ 0xffff
10001e80:	e736      	b.n	10001cf0 <drawLine+0x54>
10001e82:	2701      	movs	r7, #1
10001e84:	e734      	b.n	10001cf0 <drawLine+0x54>
10001e86:	bf00      	nop
10001e88:	20001528 	.word	0x20001528

10001e8c <drawRect>:
10001e8c:	e92d 4ff0 	stmdb	sp!, {r4, r5, r6, r7, r8, r9, sl, fp, lr}
10001e90:	f5b0 7f20 	cmp.w	r0, #640	@ 0x280
10001e94:	b081      	sub	sp, #4
10001e96:	4606      	mov	r6, r0
10001e98:	460c      	mov	r4, r1
10001e9a:	4617      	mov	r7, r2
10001e9c:	f89d 8028 	ldrb.w	r8, [sp, #40]	@ 0x28
10001ea0:	eb03 0501 	add.w	r5, r3, r1
10001ea4:	da10      	bge.n	10001ec8 <drawRect+0x3c>
10001ea6:	f5b1 7ff0 	cmp.w	r1, #480	@ 0x1e0
10001eaa:	f105 39ff 	add.w	r9, r5, #4294967295	@ 0xffffffff
10001eae:	da6f      	bge.n	10001f90 <drawRect+0x104>
10001eb0:	4643      	mov	r3, r8
10001eb2:	f7ff fa6d 	bl	10001390 <drawHLine.part.0>
10001eb6:	f5b9 7ff0 	cmp.w	r9, #480	@ 0x1e0
10001eba:	da07      	bge.n	10001ecc <drawRect+0x40>
10001ebc:	4649      	mov	r1, r9
10001ebe:	4643      	mov	r3, r8
10001ec0:	463a      	mov	r2, r7
10001ec2:	4630      	mov	r0, r6
10001ec4:	f7ff fa64 	bl	10001390 <drawHLine.part.0>
10001ec8:	42ac      	cmp	r4, r5
10001eca:	da5e      	bge.n	10001f8a <drawRect+0xfe>
10001ecc:	b2b3      	uxth	r3, r6
10001ece:	f5b3 7f20 	cmp.w	r3, #640	@ 0x280
10001ed2:	bf34      	ite	cc
10001ed4:	f04f 0e00 	movcc.w	lr, #0
10001ed8:	f04f 0e01 	movcs.w	lr, #1
10001edc:	46a4      	mov	ip, r4
10001ede:	4621      	mov	r1, r4
10001ee0:	f240 10df 	movw	r0, #479	@ 0x1df
10001ee4:	4a2f      	ldr	r2, [pc, #188]	@ (10001fa4 <drawRect+0x118>)
10001ee6:	ea4f 1908 	mov.w	r9, r8, lsl #4
10001eea:	eb0c 0c8c 	add.w	ip, ip, ip, lsl #2
10001eee:	b289      	uxth	r1, r1
10001ef0:	eb06 1ccc 	add.w	ip, r6, ip, lsl #7
10001ef4:	4281      	cmp	r1, r0
10001ef6:	ea4f 0b6c 	mov.w	fp, ip, asr #1
10001efa:	d814      	bhi.n	10001f26 <drawRect+0x9a>
10001efc:	f1be 0f00 	cmp.w	lr, #0
10001f00:	d111      	bne.n	10001f26 <drawRect+0x9a>
10001f02:	f812 a00b 	ldrb.w	sl, [r2, fp]
10001f06:	f01c 0f01 	tst.w	ip, #1
10001f0a:	f00a 0c0f 	and.w	ip, sl, #15
10001f0e:	bf08      	it	eq
10001f10:	f02a 0a0f 	biceq.w	sl, sl, #15
10001f14:	ea4c 0c09 	orr.w	ip, ip, r9
10001f18:	bf0a      	itet	eq
10001f1a:	ea48 0a0a 	orreq.w	sl, r8, sl
10001f1e:	f802 c00b 	strbne.w	ip, [r2, fp]
10001f22:	f802 a00b 	strbeq.w	sl, [r2, fp]
10001f26:	3101      	adds	r1, #1
10001f28:	b209      	sxth	r1, r1
10001f2a:	42a9      	cmp	r1, r5
10001f2c:	468c      	mov	ip, r1
10001f2e:	dbdc      	blt.n	10001eea <drawRect+0x5e>
10001f30:	3f01      	subs	r7, #1
10001f32:	443b      	add	r3, r7
10001f34:	b29b      	uxth	r3, r3
10001f36:	f5b3 7f20 	cmp.w	r3, #640	@ 0x280
10001f3a:	bf34      	ite	cc
10001f3c:	2700      	movcc	r7, #0
10001f3e:	2701      	movcs	r7, #1
10001f40:	f240 16df 	movw	r6, #479	@ 0x1df
10001f44:	4817      	ldr	r0, [pc, #92]	@ (10001fa4 <drawRect+0x118>)
10001f46:	ea4f 1c08 	mov.w	ip, r8, lsl #4
10001f4a:	eb04 0284 	add.w	r2, r4, r4, lsl #2
10001f4e:	b2a4      	uxth	r4, r4
10001f50:	eb03 12c2 	add.w	r2, r3, r2, lsl #7
10001f54:	42b4      	cmp	r4, r6
10001f56:	ea4f 0e62 	mov.w	lr, r2, asr #1
10001f5a:	d812      	bhi.n	10001f82 <drawRect+0xf6>
10001f5c:	b98f      	cbnz	r7, 10001f82 <drawRect+0xf6>
10001f5e:	f810 100e 	ldrb.w	r1, [r0, lr]
10001f62:	f012 0f01 	tst.w	r2, #1
10001f66:	f001 020f 	and.w	r2, r1, #15
10001f6a:	bf08      	it	eq
10001f6c:	f021 010f 	biceq.w	r1, r1, #15
10001f70:	ea42 020c 	orr.w	r2, r2, ip
10001f74:	bf0a      	itet	eq
10001f76:	ea48 0101 	orreq.w	r1, r8, r1
10001f7a:	f800 200e 	strbne.w	r2, [r0, lr]
10001f7e:	f800 100e 	strbeq.w	r1, [r0, lr]
10001f82:	3401      	adds	r4, #1
10001f84:	b224      	sxth	r4, r4
10001f86:	42ac      	cmp	r4, r5
10001f88:	dbdf      	blt.n	10001f4a <drawRect+0xbe>
10001f8a:	b001      	add	sp, #4
10001f8c:	e8bd 8ff0 	ldmia.w	sp!, {r4, r5, r6, r7, r8, r9, sl, fp, pc}
10001f90:	f5b9 7ff0 	cmp.w	r9, #480	@ 0x1e0
10001f94:	da98      	bge.n	10001ec8 <drawRect+0x3c>
10001f96:	4643      	mov	r3, r8
10001f98:	4649      	mov	r1, r9
10001f9a:	b001      	add	sp, #4
10001f9c:	e8bd 4ff0 	ldmia.w	sp!, {r4, r5, r6, r7, r8, r9, sl, fp, lr}
10001fa0:	f7ff b9f6 	b.w	10001390 <drawHLine.part.0>
10001fa4:	20001528 	.word	0x20001528

10001fa8 <drawCircle>:
10001fa8:	e92d 4ff0 	stmdb	sp!, {r4, r5, r6, r7, r8, r9, sl, fp, lr}
10001fac:	b089      	sub	sp, #36	@ 0x24
10001fae:	469c      	mov	ip, r3
10001fb0:	9300      	str	r3, [sp, #0]
10001fb2:	b293      	uxth	r3, r2
10001fb4:	9206      	str	r2, [sp, #24]
10001fb6:	ebc3 32c3 	rsb	r2, r3, r3, lsl #15
10001fba:	0052      	lsls	r2, r2, #1
10001fbc:	b28c      	uxth	r4, r1
10001fbe:	b212      	sxth	r2, r2
10001fc0:	9207      	str	r2, [sp, #28]
10001fc2:	9403      	str	r4, [sp, #12]
10001fc4:	191a      	adds	r2, r3, r4
10001fc6:	f1c3 0401 	rsb	r4, r3, #1
10001fca:	b225      	sxth	r5, r4
10001fcc:	9505      	str	r5, [sp, #20]
10001fce:	b285      	uxth	r5, r0
10001fd0:	f5b5 7f20 	cmp.w	r5, #640	@ 0x280
10001fd4:	b292      	uxth	r2, r2
10001fd6:	bf34      	ite	cc
10001fd8:	2400      	movcc	r4, #0
10001fda:	2401      	movcs	r4, #1
10001fdc:	f5b2 7ff0 	cmp.w	r2, #480	@ 0x1e0
10001fe0:	9504      	str	r5, [sp, #16]
10001fe2:	f080 81c4 	bcs.w	1000236e <drawCircle+0x3c6>
10001fe6:	2c00      	cmp	r4, #0
10001fe8:	f040 81c1 	bne.w	1000236e <drawCircle+0x3c6>
10001fec:	f44f 7620 	mov.w	r6, #640	@ 0x280
10001ff0:	fb12 0206 	smlabb	r2, r2, r6, r0
10001ff4:	4cae      	ldr	r4, [pc, #696]	@ (100022b0 <drawCircle+0x308>)
10001ff6:	1057      	asrs	r7, r2, #1
10001ff8:	07d2      	lsls	r2, r2, #31
10001ffa:	5de5      	ldrb	r5, [r4, r7]
10001ffc:	f100 819d 	bmi.w	1000233a <drawCircle+0x392>
10002000:	4662      	mov	r2, ip
10002002:	f025 050f 	bic.w	r5, r5, #15
10002006:	4315      	orrs	r5, r2
10002008:	9a03      	ldr	r2, [sp, #12]
1000200a:	55e5      	strb	r5, [r4, r7]
1000200c:	1ad2      	subs	r2, r2, r3
1000200e:	b292      	uxth	r2, r2
10002010:	f5b2 7ff0 	cmp.w	r2, #480	@ 0x1e0
10002014:	d208      	bcs.n	10002028 <drawCircle+0x80>
10002016:	fb12 0206 	smlabb	r2, r2, r6, r0
1000201a:	1052      	asrs	r2, r2, #1
1000201c:	5ca0      	ldrb	r0, [r4, r2]
1000201e:	9d00      	ldr	r5, [sp, #0]
10002020:	f020 000f 	bic.w	r0, r0, #15
10002024:	4328      	orrs	r0, r5
10002026:	54a0      	strb	r0, [r4, r2]
10002028:	9a04      	ldr	r2, [sp, #16]
1000202a:	9803      	ldr	r0, [sp, #12]
1000202c:	189a      	adds	r2, r3, r2
1000202e:	f5b0 7ff0 	cmp.w	r0, #480	@ 0x1e0
10002032:	b292      	uxth	r2, r2
10002034:	bf34      	ite	cc
10002036:	2000      	movcc	r0, #0
10002038:	2001      	movcs	r0, #1
1000203a:	f5b2 7f20 	cmp.w	r2, #640	@ 0x280
1000203e:	d210      	bcs.n	10002062 <drawCircle+0xba>
10002040:	b978      	cbnz	r0, 10002062 <drawCircle+0xba>
10002042:	f44f 7620 	mov.w	r6, #640	@ 0x280
10002046:	fb11 2606 	smlabb	r6, r1, r6, r2
1000204a:	4d99      	ldr	r5, [pc, #612]	@ (100022b0 <drawCircle+0x308>)
1000204c:	1074      	asrs	r4, r6, #1
1000204e:	07f6      	lsls	r6, r6, #31
10002050:	5d2a      	ldrb	r2, [r5, r4]
10002052:	f140 81a3 	bpl.w	1000239c <drawCircle+0x3f4>
10002056:	9e00      	ldr	r6, [sp, #0]
10002058:	f002 020f 	and.w	r2, r2, #15
1000205c:	ea42 1206 	orr.w	r2, r2, r6, lsl #4
10002060:	552a      	strb	r2, [r5, r4]
10002062:	9a04      	ldr	r2, [sp, #16]
10002064:	1ad2      	subs	r2, r2, r3
10002066:	b292      	uxth	r2, r2
10002068:	f5b2 7f20 	cmp.w	r2, #640	@ 0x280
1000206c:	d210      	bcs.n	10002090 <drawCircle+0xe8>
1000206e:	b978      	cbnz	r0, 10002090 <drawCircle+0xe8>
10002070:	f44f 7420 	mov.w	r4, #640	@ 0x280
10002074:	fb11 2404 	smlabb	r4, r1, r4, r2
10002078:	488d      	ldr	r0, [pc, #564]	@ (100022b0 <drawCircle+0x308>)
1000207a:	1061      	asrs	r1, r4, #1
1000207c:	07e4      	lsls	r4, r4, #31
1000207e:	5c42      	ldrb	r2, [r0, r1]
10002080:	f140 8192 	bpl.w	100023a8 <drawCircle+0x400>
10002084:	9c00      	ldr	r4, [sp, #0]
10002086:	f002 020f 	and.w	r2, r2, #15
1000208a:	ea42 1204 	orr.w	r2, r2, r4, lsl #4
1000208e:	5442      	strb	r2, [r0, r1]
10002090:	9a06      	ldr	r2, [sp, #24]
10002092:	2a00      	cmp	r2, #0
10002094:	f340 8168 	ble.w	10002368 <drawCircle+0x3c0>
10002098:	2200      	movs	r2, #0
1000209a:	f44f 7520 	mov.w	r5, #640	@ 0x280
1000209e:	9201      	str	r2, [sp, #4]
100020a0:	9a03      	ldr	r2, [sp, #12]
100020a2:	9900      	ldr	r1, [sp, #0]
100020a4:	1e54      	subs	r4, r2, #1
100020a6:	f102 0e01 	add.w	lr, r2, #1
100020aa:	9a04      	ldr	r2, [sp, #16]
100020ac:	0109      	lsls	r1, r1, #4
100020ae:	f102 3cff 	add.w	ip, r2, #4294967295	@ 0xffffffff
100020b2:	1c50      	adds	r0, r2, #1
100020b4:	4a7e      	ldr	r2, [pc, #504]	@ (100022b0 <drawCircle+0x308>)
100020b6:	b2a4      	uxth	r4, r4
100020b8:	fa1f fe8e 	uxth.w	lr, lr
100020bc:	fa1f fc8c 	uxth.w	ip, ip
100020c0:	b280      	uxth	r0, r0
100020c2:	9102      	str	r1, [sp, #8]
100020c4:	9f05      	ldr	r7, [sp, #20]
100020c6:	2f00      	cmp	r7, #0
100020c8:	b2b9      	uxth	r1, r7
100020ca:	db0c      	blt.n	100020e6 <drawCircle+0x13e>
100020cc:	9f07      	ldr	r7, [sp, #28]
100020ce:	f107 0802 	add.w	r8, r7, #2
100020d2:	1e5f      	subs	r7, r3, #1
100020d4:	fa0f f388 	sxth.w	r3, r8
100020d8:	fa11 f188 	uxtah	r1, r1, r8
100020dc:	9307      	str	r3, [sp, #28]
100020de:	b2bb      	uxth	r3, r7
100020e0:	b23f      	sxth	r7, r7
100020e2:	b289      	uxth	r1, r1
100020e4:	9706      	str	r7, [sp, #24]
100020e6:	9f01      	ldr	r7, [sp, #4]
100020e8:	3101      	adds	r1, #1
100020ea:	3701      	adds	r7, #1
100020ec:	eb01 0147 	add.w	r1, r1, r7, lsl #1
100020f0:	b209      	sxth	r1, r1
100020f2:	9105      	str	r1, [sp, #20]
100020f4:	f240 217f 	movw	r1, #639	@ 0x27f
100020f8:	f240 16df 	movw	r6, #479	@ 0x1df
100020fc:	4288      	cmp	r0, r1
100020fe:	bf94      	ite	ls
10002100:	f04f 0800 	movls.w	r8, #0
10002104:	f04f 0801 	movhi.w	r8, #1
10002108:	9903      	ldr	r1, [sp, #12]
1000210a:	b23f      	sxth	r7, r7
1000210c:	4419      	add	r1, r3
1000210e:	b289      	uxth	r1, r1
10002110:	42b1      	cmp	r1, r6
10002112:	bf94      	ite	ls
10002114:	f04f 0a00 	movls.w	sl, #0
10002118:	f04f 0a01 	movhi.w	sl, #1
1000211c:	9701      	str	r7, [sp, #4]
1000211e:	f1b8 0f00 	cmp.w	r8, #0
10002122:	d114      	bne.n	1000214e <drawCircle+0x1a6>
10002124:	f1ba 0f00 	cmp.w	sl, #0
10002128:	d111      	bne.n	1000214e <drawCircle+0x1a6>
1000212a:	fb11 0905 	smlabb	r9, r1, r5, r0
1000212e:	ea4f 0b69 	mov.w	fp, r9, asr #1
10002132:	f812 700b 	ldrb.w	r7, [r2, fp]
10002136:	f019 0f01 	tst.w	r9, #1
1000213a:	bf15      	itete	ne
1000213c:	9e02      	ldrne	r6, [sp, #8]
1000213e:	9e00      	ldreq	r6, [sp, #0]
10002140:	f007 070f 	andne.w	r7, r7, #15
10002144:	f027 070f 	biceq.w	r7, r7, #15
10002148:	4337      	orrs	r7, r6
1000214a:	f802 700b 	strb.w	r7, [r2, fp]
1000214e:	f240 267f 	movw	r6, #639	@ 0x27f
10002152:	45b4      	cmp	ip, r6
10002154:	bf94      	ite	ls
10002156:	f04f 0900 	movls.w	r9, #0
1000215a:	f04f 0901 	movhi.w	r9, #1
1000215e:	f1b9 0f00 	cmp.w	r9, #0
10002162:	d114      	bne.n	1000218e <drawCircle+0x1e6>
10002164:	f1ba 0f00 	cmp.w	sl, #0
10002168:	d111      	bne.n	1000218e <drawCircle+0x1e6>
1000216a:	b209      	sxth	r1, r1
1000216c:	fb11 c105 	smlabb	r1, r1, r5, ip
10002170:	ea4f 0a61 	mov.w	sl, r1, asr #1
10002174:	f812 700a 	ldrb.w	r7, [r2, sl]
10002178:	07c9      	lsls	r1, r1, #31
1000217a:	bf4b      	itete	mi
1000217c:	9902      	ldrmi	r1, [sp, #8]
1000217e:	9900      	ldrpl	r1, [sp, #0]
10002180:	f007 070f 	andmi.w	r7, r7, #15
10002184:	f027 070f 	bicpl.w	r7, r7, #15
10002188:	430f      	orrs	r7, r1
1000218a:	f802 700a 	strb.w	r7, [r2, sl]
1000218e:	f240 16df 	movw	r6, #479	@ 0x1df
10002192:	9903      	ldr	r1, [sp, #12]
10002194:	1ac9      	subs	r1, r1, r3
10002196:	b289      	uxth	r1, r1
10002198:	42b1      	cmp	r1, r6
1000219a:	bf94      	ite	ls
1000219c:	f04f 0a00 	movls.w	sl, #0
100021a0:	f04f 0a01 	movhi.w	sl, #1
100021a4:	f1b8 0f00 	cmp.w	r8, #0
100021a8:	d116      	bne.n	100021d8 <drawCircle+0x230>
100021aa:	f1ba 0f00 	cmp.w	sl, #0
100021ae:	d113      	bne.n	100021d8 <drawCircle+0x230>
100021b0:	fa0f f880 	sxth.w	r8, r0
100021b4:	fb11 8805 	smlabb	r8, r1, r5, r8
100021b8:	ea4f 0b68 	mov.w	fp, r8, asr #1
100021bc:	f812 700b 	ldrb.w	r7, [r2, fp]
100021c0:	f018 0f01 	tst.w	r8, #1
100021c4:	bf15      	itete	ne
100021c6:	9e02      	ldrne	r6, [sp, #8]
100021c8:	9e00      	ldreq	r6, [sp, #0]
100021ca:	f007 070f 	andne.w	r7, r7, #15
100021ce:	f027 070f 	biceq.w	r7, r7, #15
100021d2:	4337      	orrs	r7, r6
100021d4:	f802 700b 	strb.w	r7, [r2, fp]
100021d8:	f1b9 0f00 	cmp.w	r9, #0
100021dc:	d116      	bne.n	1000220c <drawCircle+0x264>
100021de:	f1ba 0f00 	cmp.w	sl, #0
100021e2:	d113      	bne.n	1000220c <drawCircle+0x264>
100021e4:	fa0f f78c 	sxth.w	r7, ip
100021e8:	b209      	sxth	r1, r1
100021ea:	fb11 7105 	smlabb	r1, r1, r5, r7
100021ee:	ea4f 0861 	mov.w	r8, r1, asr #1
100021f2:	f812 7008 	ldrb.w	r7, [r2, r8]
100021f6:	07ce      	lsls	r6, r1, #31
100021f8:	bf4b      	itete	mi
100021fa:	9902      	ldrmi	r1, [sp, #8]
100021fc:	9900      	ldrpl	r1, [sp, #0]
100021fe:	f007 070f 	andmi.w	r7, r7, #15
10002202:	f027 070f 	bicpl.w	r7, r7, #15
10002206:	430f      	orrs	r7, r1
10002208:	f802 7008 	strb.w	r7, [r2, r8]
1000220c:	f240 267f 	movw	r6, #639	@ 0x27f
10002210:	9904      	ldr	r1, [sp, #16]
10002212:	4419      	add	r1, r3
10002214:	b289      	uxth	r1, r1
10002216:	42b1      	cmp	r1, r6
10002218:	f240 16df 	movw	r6, #479	@ 0x1df
1000221c:	bf94      	ite	ls
1000221e:	f04f 0900 	movls.w	r9, #0
10002222:	f04f 0901 	movhi.w	r9, #1
10002226:	45b6      	cmp	lr, r6
10002228:	bf94      	ite	ls
1000222a:	f04f 0800 	movls.w	r8, #0
1000222e:	f04f 0801 	movhi.w	r8, #1
10002232:	f1b9 0f00 	cmp.w	r9, #0
10002236:	d114      	bne.n	10002262 <drawCircle+0x2ba>
10002238:	f1b8 0f00 	cmp.w	r8, #0
1000223c:	d111      	bne.n	10002262 <drawCircle+0x2ba>
1000223e:	fb1e 1a05 	smlabb	sl, lr, r5, r1
10002242:	ea4f 0b6a 	mov.w	fp, sl, asr #1
10002246:	f812 700b 	ldrb.w	r7, [r2, fp]
1000224a:	f01a 0f01 	tst.w	sl, #1
1000224e:	bf15      	itete	ne
10002250:	9e02      	ldrne	r6, [sp, #8]
10002252:	9e00      	ldreq	r6, [sp, #0]
10002254:	f007 070f 	andne.w	r7, r7, #15
10002258:	f027 070f 	biceq.w	r7, r7, #15
1000225c:	4337      	orrs	r7, r6
1000225e:	f802 700b 	strb.w	r7, [r2, fp]
10002262:	f240 267f 	movw	r6, #639	@ 0x27f
10002266:	9f04      	ldr	r7, [sp, #16]
10002268:	1afb      	subs	r3, r7, r3
1000226a:	b29b      	uxth	r3, r3
1000226c:	42b3      	cmp	r3, r6
1000226e:	bf94      	ite	ls
10002270:	f04f 0a00 	movls.w	sl, #0
10002274:	f04f 0a01 	movhi.w	sl, #1
10002278:	f1ba 0f00 	cmp.w	sl, #0
1000227c:	d11a      	bne.n	100022b4 <drawCircle+0x30c>
1000227e:	f1b8 0f00 	cmp.w	r8, #0
10002282:	d117      	bne.n	100022b4 <drawCircle+0x30c>
10002284:	fa0f f88e 	sxth.w	r8, lr
10002288:	fb18 3805 	smlabb	r8, r8, r5, r3
1000228c:	ea4f 0b68 	mov.w	fp, r8, asr #1
10002290:	f812 700b 	ldrb.w	r7, [r2, fp]
10002294:	f018 0f01 	tst.w	r8, #1
10002298:	bf15      	itete	ne
1000229a:	9e02      	ldrne	r6, [sp, #8]
1000229c:	9e00      	ldreq	r6, [sp, #0]
1000229e:	f007 070f 	andne.w	r7, r7, #15
100022a2:	f027 070f 	biceq.w	r7, r7, #15
100022a6:	4337      	orrs	r7, r6
100022a8:	f802 700b 	strb.w	r7, [r2, fp]
100022ac:	e002      	b.n	100022b4 <drawCircle+0x30c>
100022ae:	bf00      	nop
100022b0:	20001528 	.word	0x20001528
100022b4:	f240 16df 	movw	r6, #479	@ 0x1df
100022b8:	42b4      	cmp	r4, r6
100022ba:	bf94      	ite	ls
100022bc:	2700      	movls	r7, #0
100022be:	2701      	movhi	r7, #1
100022c0:	f1b9 0f00 	cmp.w	r9, #0
100022c4:	d113      	bne.n	100022ee <drawCircle+0x346>
100022c6:	b997      	cbnz	r7, 100022ee <drawCircle+0x346>
100022c8:	b209      	sxth	r1, r1
100022ca:	fb14 1105 	smlabb	r1, r4, r5, r1
100022ce:	ea4f 0961 	mov.w	r9, r1, asr #1
100022d2:	f812 8009 	ldrb.w	r8, [r2, r9]
100022d6:	07c9      	lsls	r1, r1, #31
100022d8:	bf4b      	itete	mi
100022da:	9902      	ldrmi	r1, [sp, #8]
100022dc:	9900      	ldrpl	r1, [sp, #0]
100022de:	f008 080f 	andmi.w	r8, r8, #15
100022e2:	f028 080f 	bicpl.w	r8, r8, #15
100022e6:	ea41 0808 	orr.w	r8, r1, r8
100022ea:	f802 8009 	strb.w	r8, [r2, r9]
100022ee:	f1ba 0f00 	cmp.w	sl, #0
100022f2:	d110      	bne.n	10002316 <drawCircle+0x36e>
100022f4:	b97f      	cbnz	r7, 10002316 <drawCircle+0x36e>
100022f6:	b221      	sxth	r1, r4
100022f8:	b21b      	sxth	r3, r3
100022fa:	fb11 3305 	smlabb	r3, r1, r5, r3
100022fe:	105f      	asrs	r7, r3, #1
10002300:	5dd1      	ldrb	r1, [r2, r7]
10002302:	07db      	lsls	r3, r3, #31
10002304:	bf4b      	itete	mi
10002306:	9b02      	ldrmi	r3, [sp, #8]
10002308:	9b00      	ldrpl	r3, [sp, #0]
1000230a:	f001 010f 	andmi.w	r1, r1, #15
1000230e:	f021 010f 	bicpl.w	r1, r1, #15
10002312:	4319      	orrs	r1, r3
10002314:	55d1      	strb	r1, [r2, r7]
10002316:	9b06      	ldr	r3, [sp, #24]
10002318:	9901      	ldr	r1, [sp, #4]
1000231a:	3c01      	subs	r4, #1
1000231c:	f10e 0e01 	add.w	lr, lr, #1
10002320:	f10c 3cff 	add.w	ip, ip, #4294967295	@ 0xffffffff
10002324:	3001      	adds	r0, #1
10002326:	428b      	cmp	r3, r1
10002328:	b2a4      	uxth	r4, r4
1000232a:	fa1f fe8e 	uxth.w	lr, lr
1000232e:	fa1f fc8c 	uxth.w	ip, ip
10002332:	b280      	uxth	r0, r0
10002334:	dd18      	ble.n	10002368 <drawCircle+0x3c0>
10002336:	b29b      	uxth	r3, r3
10002338:	e6c4      	b.n	100020c4 <drawCircle+0x11c>
1000233a:	f005 050f 	and.w	r5, r5, #15
1000233e:	ea45 150c 	orr.w	r5, r5, ip, lsl #4
10002342:	55e5      	strb	r5, [r4, r7]
10002344:	4665      	mov	r5, ip
10002346:	9a03      	ldr	r2, [sp, #12]
10002348:	012d      	lsls	r5, r5, #4
1000234a:	1ad2      	subs	r2, r2, r3
1000234c:	b292      	uxth	r2, r2
1000234e:	f5b2 7ff0 	cmp.w	r2, #480	@ 0x1e0
10002352:	f4bf ae69 	bcs.w	10002028 <drawCircle+0x80>
10002356:	fb12 0206 	smlabb	r2, r2, r6, r0
1000235a:	1052      	asrs	r2, r2, #1
1000235c:	5ca0      	ldrb	r0, [r4, r2]
1000235e:	f000 000f 	and.w	r0, r0, #15
10002362:	4328      	orrs	r0, r5
10002364:	54a0      	strb	r0, [r4, r2]
10002366:	e65f      	b.n	10002028 <drawCircle+0x80>
10002368:	b009      	add	sp, #36	@ 0x24
1000236a:	e8bd 8ff0 	ldmia.w	sp!, {r4, r5, r6, r7, r8, r9, sl, fp, pc}
1000236e:	9a03      	ldr	r2, [sp, #12]
10002370:	1ad2      	subs	r2, r2, r3
10002372:	b292      	uxth	r2, r2
10002374:	f5b2 7ff0 	cmp.w	r2, #480	@ 0x1e0
10002378:	f4bf ae56 	bcs.w	10002028 <drawCircle+0x80>
1000237c:	2c00      	cmp	r4, #0
1000237e:	f47f ae53 	bne.w	10002028 <drawCircle+0x80>
10002382:	f44f 7420 	mov.w	r4, #640	@ 0x280
10002386:	fb12 0504 	smlabb	r5, r2, r4, r0
1000238a:	4c0a      	ldr	r4, [pc, #40]	@ (100023b4 <drawCircle+0x40c>)
1000238c:	106a      	asrs	r2, r5, #1
1000238e:	07ef      	lsls	r7, r5, #31
10002390:	5ca0      	ldrb	r0, [r4, r2]
10002392:	f57f ae44 	bpl.w	1000201e <drawCircle+0x76>
10002396:	9d00      	ldr	r5, [sp, #0]
10002398:	012d      	lsls	r5, r5, #4
1000239a:	e7e0      	b.n	1000235e <drawCircle+0x3b6>
1000239c:	9e00      	ldr	r6, [sp, #0]
1000239e:	f022 020f 	bic.w	r2, r2, #15
100023a2:	4332      	orrs	r2, r6
100023a4:	552a      	strb	r2, [r5, r4]
100023a6:	e65c      	b.n	10002062 <drawCircle+0xba>
100023a8:	9c00      	ldr	r4, [sp, #0]
100023aa:	f022 020f 	bic.w	r2, r2, #15
100023ae:	4322      	orrs	r2, r4
100023b0:	5442      	strb	r2, [r0, r1]
100023b2:	e66d      	b.n	10002090 <drawCircle+0xe8>
100023b4:	20001528 	.word	0x20001528

100023b8 <fillCircle>:
100023b8:	e92d 4ff0 	stmdb	sp!, {r4, r5, r6, r7, r8, r9, sl, fp, lr}
100023bc:	b297      	uxth	r7, r2
100023be:	b289      	uxth	r1, r1
100023c0:	007c      	lsls	r4, r7, #1
100023c2:	469b      	mov	fp, r3
100023c4:	b2a4      	uxth	r4, r4
100023c6:	1bcb      	subs	r3, r1, r7
100023c8:	b21b      	sxth	r3, r3
100023ca:	1c65      	adds	r5, r4, #1
100023cc:	fa03 f585 	sxtah	r5, r3, r5
100023d0:	b08b      	sub	sp, #44	@ 0x2c
100023d2:	429d      	cmp	r5, r3
100023d4:	9204      	str	r2, [sp, #16]
100023d6:	9108      	str	r1, [sp, #32]
100023d8:	dd2e      	ble.n	10002438 <fillCircle+0x80>
100023da:	fa1f fc80 	uxth.w	ip, r0
100023de:	f5bc 7f20 	cmp.w	ip, #640	@ 0x280
100023e2:	bf34      	ite	cc
100023e4:	f04f 0c00 	movcc.w	ip, #0
100023e8:	f04f 0c01 	movcs.w	ip, #1
100023ec:	f240 1edf 	movw	lr, #479	@ 0x1df
100023f0:	4661      	mov	r1, ip
100023f2:	4ea3      	ldr	r6, [pc, #652]	@ (10002680 <fillCircle+0x2c8>)
100023f4:	ea4f 180b 	mov.w	r8, fp, lsl #4
100023f8:	eb03 0283 	add.w	r2, r3, r3, lsl #2
100023fc:	b29b      	uxth	r3, r3
100023fe:	eb00 12c2 	add.w	r2, r0, r2, lsl #7
10002402:	4573      	cmp	r3, lr
10002404:	ea4f 0962 	mov.w	r9, r2, asr #1
10002408:	d812      	bhi.n	10002430 <fillCircle+0x78>
1000240a:	b989      	cbnz	r1, 10002430 <fillCircle+0x78>
1000240c:	f816 c009 	ldrb.w	ip, [r6, r9]
10002410:	f012 0f01 	tst.w	r2, #1
10002414:	f00c 020f 	and.w	r2, ip, #15
10002418:	bf08      	it	eq
1000241a:	f02c 0c0f 	biceq.w	ip, ip, #15
1000241e:	ea42 0208 	orr.w	r2, r2, r8
10002422:	bf0a      	itet	eq
10002424:	ea4b 0c0c 	orreq.w	ip, fp, ip
10002428:	f806 2009 	strbne.w	r2, [r6, r9]
1000242c:	f806 c009 	strbeq.w	ip, [r6, r9]
10002430:	3301      	adds	r3, #1
10002432:	b21b      	sxth	r3, r3
10002434:	429d      	cmp	r5, r3
10002436:	dcdf      	bgt.n	100023f8 <fillCircle+0x40>
10002438:	4264      	negs	r4, r4
1000243a:	b223      	sxth	r3, r4
1000243c:	9307      	str	r3, [sp, #28]
1000243e:	f1c7 0301 	rsb	r3, r7, #1
10002442:	b21b      	sxth	r3, r3
10002444:	9303      	str	r3, [sp, #12]
10002446:	9b04      	ldr	r3, [sp, #16]
10002448:	2b00      	cmp	r3, #0
1000244a:	f340 8100 	ble.w	1000264e <fillCircle+0x296>
1000244e:	2303      	movs	r3, #3
10002450:	b282      	uxth	r2, r0
10002452:	9301      	str	r3, [sp, #4]
10002454:	1c53      	adds	r3, r2, #1
10002456:	fa1f f983 	uxth.w	r9, r3
1000245a:	1e53      	subs	r3, r2, #1
1000245c:	fa1f fe83 	uxth.w	lr, r3
10002460:	f240 1cdf 	movw	ip, #479	@ 0x1df
10002464:	46f0      	mov	r8, lr
10002466:	9b08      	ldr	r3, [sp, #32]
10002468:	4c85      	ldr	r4, [pc, #532]	@ (10002680 <fillCircle+0x2c8>)
1000246a:	4413      	add	r3, r2
1000246c:	9202      	str	r2, [sp, #8]
1000246e:	9309      	str	r3, [sp, #36]	@ 0x24
10002470:	ea4f 160b 	mov.w	r6, fp, lsl #4
10002474:	9a03      	ldr	r2, [sp, #12]
10002476:	9700      	str	r7, [sp, #0]
10002478:	2a00      	cmp	r2, #0
1000247a:	b293      	uxth	r3, r2
1000247c:	db0b      	blt.n	10002496 <fillCircle+0xde>
1000247e:	9907      	ldr	r1, [sp, #28]
10002480:	1e7a      	subs	r2, r7, #1
10002482:	3102      	adds	r1, #2
10002484:	fa13 f381 	uxtah	r3, r3, r1
10002488:	b209      	sxth	r1, r1
1000248a:	9107      	str	r1, [sp, #28]
1000248c:	b291      	uxth	r1, r2
1000248e:	b212      	sxth	r2, r2
10002490:	b29b      	uxth	r3, r3
10002492:	9100      	str	r1, [sp, #0]
10002494:	9204      	str	r2, [sp, #16]
10002496:	9a01      	ldr	r2, [sp, #4]
10002498:	4413      	add	r3, r2
1000249a:	b21b      	sxth	r3, r3
1000249c:	9a08      	ldr	r2, [sp, #32]
1000249e:	9303      	str	r3, [sp, #12]
100024a0:	9b00      	ldr	r3, [sp, #0]
100024a2:	1ad2      	subs	r2, r2, r3
100024a4:	005f      	lsls	r7, r3, #1
100024a6:	b212      	sxth	r2, r2
100024a8:	3701      	adds	r7, #1
100024aa:	fa02 f787 	sxtah	r7, r2, r7
100024ae:	42ba      	cmp	r2, r7
100024b0:	f280 80d0 	bge.w	10002654 <fillCircle+0x29c>
100024b4:	f240 237f 	movw	r3, #639	@ 0x27f
100024b8:	4599      	cmp	r9, r3
100024ba:	bf94      	ite	ls
100024bc:	f04f 0e00 	movls.w	lr, #0
100024c0:	f04f 0e01 	movhi.w	lr, #1
100024c4:	4611      	mov	r1, r2
100024c6:	4613      	mov	r3, r2
100024c8:	4670      	mov	r0, lr
100024ca:	eb01 0181 	add.w	r1, r1, r1, lsl #2
100024ce:	b29b      	uxth	r3, r3
100024d0:	eb09 11c1 	add.w	r1, r9, r1, lsl #7
100024d4:	4563      	cmp	r3, ip
100024d6:	ea4f 0e61 	mov.w	lr, r1, asr #1
100024da:	d812      	bhi.n	10002502 <fillCircle+0x14a>
100024dc:	b988      	cbnz	r0, 10002502 <fillCircle+0x14a>
100024de:	f814 500e 	ldrb.w	r5, [r4, lr]
100024e2:	f011 0f01 	tst.w	r1, #1
100024e6:	f005 010f 	and.w	r1, r5, #15
100024ea:	bf08      	it	eq
100024ec:	f025 050f 	biceq.w	r5, r5, #15
100024f0:	ea41 0106 	orr.w	r1, r1, r6
100024f4:	bf0a      	itet	eq
100024f6:	ea4b 0505 	orreq.w	r5, fp, r5
100024fa:	f804 100e 	strbne.w	r1, [r4, lr]
100024fe:	f804 500e 	strbeq.w	r5, [r4, lr]
10002502:	3301      	adds	r3, #1
10002504:	b21b      	sxth	r3, r3
10002506:	429f      	cmp	r7, r3
10002508:	4619      	mov	r1, r3
1000250a:	dcde      	bgt.n	100024ca <fillCircle+0x112>
1000250c:	9902      	ldr	r1, [sp, #8]
1000250e:	9b09      	ldr	r3, [sp, #36]	@ 0x24
10002510:	9800      	ldr	r0, [sp, #0]
10002512:	eba3 0309 	sub.w	r3, r3, r9
10002516:	eb01 0a00 	add.w	sl, r1, r0
1000251a:	9901      	ldr	r1, [sp, #4]
1000251c:	b21b      	sxth	r3, r3
1000251e:	fa03 fe81 	sxtah	lr, r3, r1
10002522:	4573      	cmp	r3, lr
10002524:	fa1f fa8a 	uxth.w	sl, sl
10002528:	da2b      	bge.n	10002582 <fillCircle+0x1ca>
1000252a:	f240 217f 	movw	r1, #639	@ 0x27f
1000252e:	458a      	cmp	sl, r1
10002530:	bf94      	ite	ls
10002532:	2500      	movls	r5, #0
10002534:	2501      	movhi	r5, #1
10002536:	4618      	mov	r0, r3
10002538:	4619      	mov	r1, r3
1000253a:	e9cd 3205 	strd	r3, r2, [sp, #20]
1000253e:	eb00 0080 	add.w	r0, r0, r0, lsl #2
10002542:	b289      	uxth	r1, r1
10002544:	eb0a 10c0 	add.w	r0, sl, r0, lsl #7
10002548:	4561      	cmp	r1, ip
1000254a:	ea4f 0260 	mov.w	r2, r0, asr #1
1000254e:	d80f      	bhi.n	10002570 <fillCircle+0x1b8>
10002550:	b975      	cbnz	r5, 10002570 <fillCircle+0x1b8>
10002552:	5ca3      	ldrb	r3, [r4, r2]
10002554:	f010 0f01 	tst.w	r0, #1
10002558:	f003 000f 	and.w	r0, r3, #15
1000255c:	bf08      	it	eq
1000255e:	f023 030f 	biceq.w	r3, r3, #15
10002562:	ea40 0006 	orr.w	r0, r0, r6
10002566:	bf0a      	itet	eq
10002568:	ea4b 0303 	orreq.w	r3, fp, r3
1000256c:	54a0      	strbne	r0, [r4, r2]
1000256e:	54a3      	strbeq	r3, [r4, r2]
10002570:	3101      	adds	r1, #1
10002572:	b209      	sxth	r1, r1
10002574:	458e      	cmp	lr, r1
10002576:	4608      	mov	r0, r1
10002578:	dce1      	bgt.n	1000253e <fillCircle+0x186>
1000257a:	e9dd 3205 	ldrd	r3, r2, [sp, #20]
1000257e:	42ba      	cmp	r2, r7
10002580:	da79      	bge.n	10002676 <fillCircle+0x2be>
10002582:	f240 217f 	movw	r1, #639	@ 0x27f
10002586:	4588      	cmp	r8, r1
10002588:	bf94      	ite	ls
1000258a:	2500      	movls	r5, #0
1000258c:	2501      	movhi	r5, #1
1000258e:	eb02 0182 	add.w	r1, r2, r2, lsl #2
10002592:	b292      	uxth	r2, r2
10002594:	eb08 11c1 	add.w	r1, r8, r1, lsl #7
10002598:	4562      	cmp	r2, ip
1000259a:	ea4f 0a61 	mov.w	sl, r1, asr #1
1000259e:	d812      	bhi.n	100025c6 <fillCircle+0x20e>
100025a0:	b98d      	cbnz	r5, 100025c6 <fillCircle+0x20e>
100025a2:	f814 000a 	ldrb.w	r0, [r4, sl]
100025a6:	f011 0f01 	tst.w	r1, #1
100025aa:	f000 010f 	and.w	r1, r0, #15
100025ae:	bf08      	it	eq
100025b0:	f020 000f 	biceq.w	r0, r0, #15
100025b4:	ea41 0106 	orr.w	r1, r1, r6
100025b8:	bf0a      	itet	eq
100025ba:	ea4b 0000 	orreq.w	r0, fp, r0
100025be:	f804 100a 	strbne.w	r1, [r4, sl]
100025c2:	f804 000a 	strbeq.w	r0, [r4, sl]
100025c6:	3201      	adds	r2, #1
100025c8:	b212      	sxth	r2, r2
100025ca:	4297      	cmp	r7, r2
100025cc:	dcdf      	bgt.n	1000258e <fillCircle+0x1d6>
100025ce:	9a02      	ldr	r2, [sp, #8]
100025d0:	9900      	ldr	r1, [sp, #0]
100025d2:	459e      	cmp	lr, r3
100025d4:	eba2 0001 	sub.w	r0, r2, r1
100025d8:	b280      	uxth	r0, r0
100025da:	dd22      	ble.n	10002622 <fillCircle+0x26a>
100025dc:	f240 227f 	movw	r2, #639	@ 0x27f
100025e0:	4290      	cmp	r0, r2
100025e2:	bf94      	ite	ls
100025e4:	2500      	movls	r5, #0
100025e6:	2501      	movhi	r5, #1
100025e8:	eb03 0283 	add.w	r2, r3, r3, lsl #2
100025ec:	b29b      	uxth	r3, r3
100025ee:	eb00 12c2 	add.w	r2, r0, r2, lsl #7
100025f2:	4563      	cmp	r3, ip
100025f4:	ea4f 0762 	mov.w	r7, r2, asr #1
100025f8:	d80f      	bhi.n	1000261a <fillCircle+0x262>
100025fa:	b975      	cbnz	r5, 1000261a <fillCircle+0x262>
100025fc:	5de1      	ldrb	r1, [r4, r7]
100025fe:	f012 0f01 	tst.w	r2, #1
10002602:	f001 020f 	and.w	r2, r1, #15
10002606:	bf08      	it	eq
10002608:	f021 010f 	biceq.w	r1, r1, #15
1000260c:	ea42 0206 	orr.w	r2, r2, r6
10002610:	bf0a      	itet	eq
10002612:	ea4b 0101 	orreq.w	r1, fp, r1
10002616:	55e2      	strbne	r2, [r4, r7]
10002618:	55e1      	strbeq	r1, [r4, r7]
1000261a:	3301      	adds	r3, #1
1000261c:	b21b      	sxth	r3, r3
1000261e:	459e      	cmp	lr, r3
10002620:	dce2      	bgt.n	100025e8 <fillCircle+0x230>
10002622:	9a01      	ldr	r2, [sp, #4]
10002624:	f108 33ff 	add.w	r3, r8, #4294967295	@ 0xffffffff
10002628:	f109 0901 	add.w	r9, r9, #1
1000262c:	fa1f f883 	uxth.w	r8, r3
10002630:	9b02      	ldr	r3, [sp, #8]
10002632:	fa1f f989 	uxth.w	r9, r9
10002636:	3202      	adds	r2, #2
10002638:	b292      	uxth	r2, r2
1000263a:	eba9 0303 	sub.w	r3, r9, r3
1000263e:	9201      	str	r2, [sp, #4]
10002640:	3b01      	subs	r3, #1
10002642:	9a04      	ldr	r2, [sp, #16]
10002644:	b21b      	sxth	r3, r3
10002646:	429a      	cmp	r2, r3
10002648:	dd01      	ble.n	1000264e <fillCircle+0x296>
1000264a:	b297      	uxth	r7, r2
1000264c:	e712      	b.n	10002474 <fillCircle+0xbc>
1000264e:	b00b      	add	sp, #44	@ 0x2c
10002650:	e8bd 8ff0 	ldmia.w	sp!, {r4, r5, r6, r7, r8, r9, sl, fp, pc}
10002654:	4618      	mov	r0, r3
10002656:	9902      	ldr	r1, [sp, #8]
10002658:	9b09      	ldr	r3, [sp, #36]	@ 0x24
1000265a:	eb01 0a00 	add.w	sl, r1, r0
1000265e:	eba3 0309 	sub.w	r3, r3, r9
10002662:	9901      	ldr	r1, [sp, #4]
10002664:	b21b      	sxth	r3, r3
10002666:	fa03 fe81 	sxtah	lr, r3, r1
1000266a:	459e      	cmp	lr, r3
1000266c:	fa1f fa8a 	uxth.w	sl, sl
10002670:	f73f af5b 	bgt.w	1000252a <fillCircle+0x172>
10002674:	e7d5      	b.n	10002622 <fillCircle+0x26a>
10002676:	9a02      	ldr	r2, [sp, #8]
10002678:	9900      	ldr	r1, [sp, #0]
1000267a:	1a50      	subs	r0, r2, r1
1000267c:	b280      	uxth	r0, r0
1000267e:	e7ad      	b.n	100025dc <fillCircle+0x224>
10002680:	20001528 	.word	0x20001528

10002684 <drawRoundRect>:
10002684:	e92d 4ff0 	stmdb	sp!, {r4, r5, r6, r7, r8, r9, sl, fp, lr}
10002688:	b08d      	sub	sp, #52	@ 0x34
1000268a:	f9bd 4058 	ldrsh.w	r4, [sp, #88]	@ 0x58
1000268e:	f89d 505c 	ldrb.w	r5, [sp, #92]	@ 0x5c
10002692:	9405      	str	r4, [sp, #20]
10002694:	4614      	mov	r4, r2
10002696:	9a05      	ldr	r2, [sp, #20]
10002698:	9501      	str	r5, [sp, #4]
1000269a:	eb02 0900 	add.w	r9, r2, r0
1000269e:	f5b9 7f20 	cmp.w	r9, #640	@ 0x280
100026a2:	4606      	mov	r6, r0
100026a4:	460d      	mov	r5, r1
100026a6:	461f      	mov	r7, r3
100026a8:	da16      	bge.n	100026d8 <drawRoundRect+0x54>
100026aa:	eb03 0801 	add.w	r8, r3, r1
100026ae:	f5b1 7ff0 	cmp.w	r1, #480	@ 0x1e0
100026b2:	f108 38ff 	add.w	r8, r8, #4294967295	@ 0xffffffff
100026b6:	eba4 0a42 	sub.w	sl, r4, r2, lsl #1
100026ba:	da04      	bge.n	100026c6 <drawRoundRect+0x42>
100026bc:	4652      	mov	r2, sl
100026be:	4648      	mov	r0, r9
100026c0:	9b01      	ldr	r3, [sp, #4]
100026c2:	f7fe fe65 	bl	10001390 <drawHLine.part.0>
100026c6:	f5b8 7ff0 	cmp.w	r8, #480	@ 0x1e0
100026ca:	da05      	bge.n	100026d8 <drawRoundRect+0x54>
100026cc:	4652      	mov	r2, sl
100026ce:	4641      	mov	r1, r8
100026d0:	4648      	mov	r0, r9
100026d2:	9b01      	ldr	r3, [sp, #4]
100026d4:	f7fe fe5c 	bl	10001390 <drawHLine.part.0>
100026d8:	f8bd 2014 	ldrh.w	r2, [sp, #20]
100026dc:	b2a9      	uxth	r1, r5
100026de:	0053      	lsls	r3, r2, #1
100026e0:	188d      	adds	r5, r1, r2
100026e2:	b2b8      	uxth	r0, r7
100026e4:	fa1f fb83 	uxth.w	fp, r3
100026e8:	900a      	str	r0, [sp, #40]	@ 0x28
100026ea:	b22b      	sxth	r3, r5
100026ec:	eba0 000b 	sub.w	r0, r0, fp
100026f0:	fa1f fa86 	uxth.w	sl, r6
100026f4:	fa03 f080 	sxtah	r0, r3, r0
100026f8:	4454      	add	r4, sl
100026fa:	9207      	str	r2, [sp, #28]
100026fc:	4283      	cmp	r3, r0
100026fe:	b2a2      	uxth	r2, r4
10002700:	9109      	str	r1, [sp, #36]	@ 0x24
10002702:	b2ad      	uxth	r5, r5
10002704:	9206      	str	r2, [sp, #24]
10002706:	da6e      	bge.n	100027e6 <drawRoundRect+0x162>
10002708:	f5ba 7f20 	cmp.w	sl, #640	@ 0x280
1000270c:	bf34      	ite	cc
1000270e:	f04f 0800 	movcc.w	r8, #0
10002712:	f04f 0801 	movcs.w	r8, #1
10002716:	9c01      	ldr	r4, [sp, #4]
10002718:	4619      	mov	r1, r3
1000271a:	ea4f 1904 	mov.w	r9, r4, lsl #4
1000271e:	4644      	mov	r4, r8
10002720:	461a      	mov	r2, r3
10002722:	4698      	mov	r8, r3
10002724:	f240 1edf 	movw	lr, #479	@ 0x1df
10002728:	4623      	mov	r3, r4
1000272a:	f8df c004 	ldr.w	ip, [pc, #4]	@ 10002730 <drawRoundRect+0xac>
1000272e:	e008      	b.n	10002742 <drawRoundRect+0xbe>
10002730:	20001528 	.word	0x20001528
10002734:	f80c 1007 	strb.w	r1, [ip, r7]
10002738:	3201      	adds	r2, #1
1000273a:	b212      	sxth	r2, r2
1000273c:	4290      	cmp	r0, r2
1000273e:	4611      	mov	r1, r2
10002740:	dd1e      	ble.n	10002780 <drawRoundRect+0xfc>
10002742:	eb01 0181 	add.w	r1, r1, r1, lsl #2
10002746:	b292      	uxth	r2, r2
10002748:	eb06 11c1 	add.w	r1, r6, r1, lsl #7
1000274c:	4572      	cmp	r2, lr
1000274e:	ea4f 0761 	mov.w	r7, r1, asr #1
10002752:	d8f1      	bhi.n	10002738 <drawRoundRect+0xb4>
10002754:	2b00      	cmp	r3, #0
10002756:	d1ef      	bne.n	10002738 <drawRoundRect+0xb4>
10002758:	f81c 4007 	ldrb.w	r4, [ip, r7]
1000275c:	f011 0f01 	tst.w	r1, #1
10002760:	f004 010f 	and.w	r1, r4, #15
10002764:	ea41 0109 	orr.w	r1, r1, r9
10002768:	d1e4      	bne.n	10002734 <drawRoundRect+0xb0>
1000276a:	9901      	ldr	r1, [sp, #4]
1000276c:	3201      	adds	r2, #1
1000276e:	b212      	sxth	r2, r2
10002770:	f024 040f 	bic.w	r4, r4, #15
10002774:	430c      	orrs	r4, r1
10002776:	4290      	cmp	r0, r2
10002778:	4611      	mov	r1, r2
1000277a:	f80c 4007 	strb.w	r4, [ip, r7]
1000277e:	dce0      	bgt.n	10002742 <drawRoundRect+0xbe>
10002780:	9a06      	ldr	r2, [sp, #24]
10002782:	4643      	mov	r3, r8
10002784:	1e54      	subs	r4, r2, #1
10002786:	b2a4      	uxth	r4, r4
10002788:	f5b4 7f20 	cmp.w	r4, #640	@ 0x280
1000278c:	bf34      	ite	cc
1000278e:	f04f 0c00 	movcc.w	ip, #0
10002792:	f04f 0c01 	movcs.w	ip, #1
10002796:	9a01      	ldr	r2, [sp, #4]
10002798:	4661      	mov	r1, ip
1000279a:	f240 17df 	movw	r7, #479	@ 0x1df
1000279e:	4694      	mov	ip, r2
100027a0:	4eaf      	ldr	r6, [pc, #700]	@ (10002a60 <drawRoundRect+0x3dc>)
100027a2:	ea4f 1e02 	mov.w	lr, r2, lsl #4
100027a6:	eb03 0283 	add.w	r2, r3, r3, lsl #2
100027aa:	b29b      	uxth	r3, r3
100027ac:	eb04 12c2 	add.w	r2, r4, r2, lsl #7
100027b0:	42bb      	cmp	r3, r7
100027b2:	ea4f 0962 	mov.w	r9, r2, asr #1
100027b6:	d812      	bhi.n	100027de <drawRoundRect+0x15a>
100027b8:	b989      	cbnz	r1, 100027de <drawRoundRect+0x15a>
100027ba:	f816 8009 	ldrb.w	r8, [r6, r9]
100027be:	f012 0f01 	tst.w	r2, #1
100027c2:	f008 020f 	and.w	r2, r8, #15
100027c6:	bf08      	it	eq
100027c8:	f028 080f 	biceq.w	r8, r8, #15
100027cc:	ea42 020e 	orr.w	r2, r2, lr
100027d0:	bf0a      	itet	eq
100027d2:	ea4c 0808 	orreq.w	r8, ip, r8
100027d6:	f806 2009 	strbne.w	r2, [r6, r9]
100027da:	f806 8009 	strbeq.w	r8, [r6, r9]
100027de:	3301      	adds	r3, #1
100027e0:	b21b      	sxth	r3, r3
100027e2:	4298      	cmp	r0, r3
100027e4:	dcdf      	bgt.n	100027a6 <drawRoundRect+0x122>
100027e6:	9907      	ldr	r1, [sp, #28]
100027e8:	f1cb 0300 	rsb	r3, fp, #0
100027ec:	b21b      	sxth	r3, r3
100027ee:	9303      	str	r3, [sp, #12]
100027f0:	f1c1 0301 	rsb	r3, r1, #1
100027f4:	eb01 020a 	add.w	r2, r1, sl
100027f8:	b219      	sxth	r1, r3
100027fa:	9b05      	ldr	r3, [sp, #20]
100027fc:	b292      	uxth	r2, r2
100027fe:	2b00      	cmp	r3, #0
10002800:	9208      	str	r2, [sp, #32]
10002802:	f340 8191 	ble.w	10002b28 <drawRoundRect+0x4a4>
10002806:	461e      	mov	r6, r3
10002808:	2400      	movs	r4, #0
1000280a:	460b      	mov	r3, r1
1000280c:	f240 287f 	movw	r8, #639	@ 0x27f
10002810:	f240 1adf 	movw	sl, #479	@ 0x1df
10002814:	f44f 7b20 	mov.w	fp, #640	@ 0x280
10002818:	f8dd c00c 	ldr.w	ip, [sp, #12]
1000281c:	9a01      	ldr	r2, [sp, #4]
1000281e:	f8cd c008 	str.w	ip, [sp, #8]
10002822:	0112      	lsls	r2, r2, #4
10002824:	f8df e238 	ldr.w	lr, [pc, #568]	@ 10002a60 <drawRoundRect+0x3dc>
10002828:	f8dd c020 	ldr.w	ip, [sp, #32]
1000282c:	9204      	str	r2, [sp, #16]
1000282e:	910b      	str	r1, [sp, #44]	@ 0x2c
10002830:	2b00      	cmp	r3, #0
10002832:	b2b2      	uxth	r2, r6
10002834:	b298      	uxth	r0, r3
10002836:	db09      	blt.n	1000284c <drawRoundRect+0x1c8>
10002838:	9b02      	ldr	r3, [sp, #8]
1000283a:	1e56      	subs	r6, r2, #1
1000283c:	3302      	adds	r3, #2
1000283e:	fa10 f083 	uxtah	r0, r0, r3
10002842:	b21b      	sxth	r3, r3
10002844:	b2b2      	uxth	r2, r6
10002846:	9302      	str	r3, [sp, #8]
10002848:	b280      	uxth	r0, r0
1000284a:	b236      	sxth	r6, r6
1000284c:	3401      	adds	r4, #1
1000284e:	b2a1      	uxth	r1, r4
10002850:	eb00 0041 	add.w	r0, r0, r1, lsl #1
10002854:	ebac 0702 	sub.w	r7, ip, r2
10002858:	3001      	adds	r0, #1
1000285a:	b2bf      	uxth	r7, r7
1000285c:	b203      	sxth	r3, r0
1000285e:	4547      	cmp	r7, r8
10002860:	eba5 0001 	sub.w	r0, r5, r1
10002864:	b224      	sxth	r4, r4
10002866:	b280      	uxth	r0, r0
10002868:	d812      	bhi.n	10002890 <drawRoundRect+0x20c>
1000286a:	4550      	cmp	r0, sl
1000286c:	d810      	bhi.n	10002890 <drawRoundRect+0x20c>
1000286e:	fb10 700b 	smlabb	r0, r0, fp, r7
10002872:	ea4f 0960 	mov.w	r9, r0, asr #1
10002876:	f81e 7009 	ldrb.w	r7, [lr, r9]
1000287a:	07c0      	lsls	r0, r0, #31
1000287c:	bf4b      	itete	mi
1000287e:	9804      	ldrmi	r0, [sp, #16]
10002880:	9801      	ldrpl	r0, [sp, #4]
10002882:	f007 070f 	andmi.w	r7, r7, #15
10002886:	f027 070f 	bicpl.w	r7, r7, #15
1000288a:	4307      	orrs	r7, r0
1000288c:	f80e 7009 	strb.w	r7, [lr, r9]
10002890:	ebac 0101 	sub.w	r1, ip, r1
10002894:	b289      	uxth	r1, r1
10002896:	1aaa      	subs	r2, r5, r2
10002898:	4541      	cmp	r1, r8
1000289a:	b292      	uxth	r2, r2
1000289c:	d811      	bhi.n	100028c2 <drawRoundRect+0x23e>
1000289e:	4552      	cmp	r2, sl
100028a0:	d80f      	bhi.n	100028c2 <drawRoundRect+0x23e>
100028a2:	fb12 120b 	smlabb	r2, r2, fp, r1
100028a6:	1050      	asrs	r0, r2, #1
100028a8:	f81e 1000 	ldrb.w	r1, [lr, r0]
100028ac:	07d7      	lsls	r7, r2, #31
100028ae:	bf4b      	itete	mi
100028b0:	9a04      	ldrmi	r2, [sp, #16]
100028b2:	9a01      	ldrpl	r2, [sp, #4]
100028b4:	f001 010f 	andmi.w	r1, r1, #15
100028b8:	f021 010f 	bicpl.w	r1, r1, #15
100028bc:	4311      	orrs	r1, r2
100028be:	f80e 1000 	strb.w	r1, [lr, r0]
100028c2:	42b4      	cmp	r4, r6
100028c4:	dbb4      	blt.n	10002830 <drawRoundRect+0x1ac>
100028c6:	e9dd 3206 	ldrd	r3, r2, [sp, #24]
100028ca:	990b      	ldr	r1, [sp, #44]	@ 0x2c
100028cc:	1a98      	subs	r0, r3, r2
100028ce:	9f03      	ldr	r7, [sp, #12]
100028d0:	b280      	uxth	r0, r0
100028d2:	4604      	mov	r4, r0
100028d4:	460b      	mov	r3, r1
100028d6:	f04f 0e00 	mov.w	lr, #0
100028da:	f240 297f 	movw	r9, #639	@ 0x27f
100028de:	f240 1bdf 	movw	fp, #479	@ 0x1df
100028e2:	46bc      	mov	ip, r7
100028e4:	1e42      	subs	r2, r0, #1
100028e6:	b292      	uxth	r2, r2
100028e8:	9202      	str	r2, [sp, #8]
100028ea:	9a01      	ldr	r2, [sp, #4]
100028ec:	9e05      	ldr	r6, [sp, #20]
100028ee:	0112      	lsls	r2, r2, #4
100028f0:	f8df 816c 	ldr.w	r8, [pc, #364]	@ 10002a60 <drawRoundRect+0x3dc>
100028f4:	9204      	str	r2, [sp, #16]
100028f6:	9106      	str	r1, [sp, #24]
100028f8:	900b      	str	r0, [sp, #44]	@ 0x2c
100028fa:	2b00      	cmp	r3, #0
100028fc:	b2b1      	uxth	r1, r6
100028fe:	b298      	uxth	r0, r3
10002900:	db09      	blt.n	10002916 <drawRoundRect+0x292>
10002902:	f10c 0c02 	add.w	ip, ip, #2
10002906:	1e4e      	subs	r6, r1, #1
10002908:	fa10 f08c 	uxtah	r0, r0, ip
1000290c:	b2b1      	uxth	r1, r6
1000290e:	fa0f fc8c 	sxth.w	ip, ip
10002912:	b280      	uxth	r0, r0
10002914:	b236      	sxth	r6, r6
10002916:	f10e 0e01 	add.w	lr, lr, #1
1000291a:	fa1f f28e 	uxth.w	r2, lr
1000291e:	eb00 0042 	add.w	r0, r0, r2, lsl #1
10002922:	3001      	adds	r0, #1
10002924:	b203      	sxth	r3, r0
10002926:	454c      	cmp	r4, r9
10002928:	eba5 0001 	sub.w	r0, r5, r1
1000292c:	fa0f fe8e 	sxth.w	lr, lr
10002930:	b280      	uxth	r0, r0
10002932:	d814      	bhi.n	1000295e <drawRoundRect+0x2da>
10002934:	4558      	cmp	r0, fp
10002936:	d812      	bhi.n	1000295e <drawRoundRect+0x2da>
10002938:	f44f 7720 	mov.w	r7, #640	@ 0x280
1000293c:	fb10 4007 	smlabb	r0, r0, r7, r4
10002940:	ea4f 0a60 	mov.w	sl, r0, asr #1
10002944:	f818 700a 	ldrb.w	r7, [r8, sl]
10002948:	07c0      	lsls	r0, r0, #31
1000294a:	bf4b      	itete	mi
1000294c:	9804      	ldrmi	r0, [sp, #16]
1000294e:	9801      	ldrpl	r0, [sp, #4]
10002950:	f007 070f 	andmi.w	r7, r7, #15
10002954:	f027 070f 	bicpl.w	r7, r7, #15
10002958:	4307      	orrs	r7, r0
1000295a:	f808 700a 	strb.w	r7, [r8, sl]
1000295e:	9802      	ldr	r0, [sp, #8]
10002960:	1aaa      	subs	r2, r5, r2
10002962:	4401      	add	r1, r0
10002964:	b289      	uxth	r1, r1
10002966:	4549      	cmp	r1, r9
10002968:	b292      	uxth	r2, r2
1000296a:	d813      	bhi.n	10002994 <drawRoundRect+0x310>
1000296c:	455a      	cmp	r2, fp
1000296e:	d811      	bhi.n	10002994 <drawRoundRect+0x310>
10002970:	f44f 7020 	mov.w	r0, #640	@ 0x280
10002974:	fb12 1200 	smlabb	r2, r2, r0, r1
10002978:	1050      	asrs	r0, r2, #1
1000297a:	f818 1000 	ldrb.w	r1, [r8, r0]
1000297e:	07d7      	lsls	r7, r2, #31
10002980:	bf4b      	itete	mi
10002982:	9a04      	ldrmi	r2, [sp, #16]
10002984:	9a01      	ldrpl	r2, [sp, #4]
10002986:	f001 010f 	andmi.w	r1, r1, #15
1000298a:	f021 010f 	bicpl.w	r1, r1, #15
1000298e:	4311      	orrs	r1, r2
10002990:	f808 1000 	strb.w	r1, [r8, r0]
10002994:	3401      	adds	r4, #1
10002996:	45b6      	cmp	lr, r6
10002998:	b2a4      	uxth	r4, r4
1000299a:	dbae      	blt.n	100028fa <drawRoundRect+0x276>
1000299c:	e9dd 300a 	ldrd	r3, r0, [sp, #40]	@ 0x28
100029a0:	9e09      	ldr	r6, [sp, #36]	@ 0x24
100029a2:	3b01      	subs	r3, #1
100029a4:	441e      	add	r6, r3
100029a6:	9b07      	ldr	r3, [sp, #28]
100029a8:	9906      	ldr	r1, [sp, #24]
100029aa:	1af6      	subs	r6, r6, r3
100029ac:	9b03      	ldr	r3, [sp, #12]
100029ae:	2500      	movs	r5, #0
100029b0:	9304      	str	r3, [sp, #16]
100029b2:	f240 287f 	movw	r8, #639	@ 0x27f
100029b6:	460b      	mov	r3, r1
100029b8:	f240 1adf 	movw	sl, #479	@ 0x1df
100029bc:	f44f 7b20 	mov.w	fp, #640	@ 0x280
100029c0:	9a01      	ldr	r2, [sp, #4]
100029c2:	9f05      	ldr	r7, [sp, #20]
100029c4:	0112      	lsls	r2, r2, #4
100029c6:	f8df e098 	ldr.w	lr, [pc, #152]	@ 10002a60 <drawRoundRect+0x3dc>
100029ca:	b2b6      	uxth	r6, r6
100029cc:	9206      	str	r2, [sp, #24]
100029ce:	9109      	str	r1, [sp, #36]	@ 0x24
100029d0:	2b00      	cmp	r3, #0
100029d2:	b2b9      	uxth	r1, r7
100029d4:	b29c      	uxth	r4, r3
100029d6:	db09      	blt.n	100029ec <drawRoundRect+0x368>
100029d8:	9b04      	ldr	r3, [sp, #16]
100029da:	1e4f      	subs	r7, r1, #1
100029dc:	3302      	adds	r3, #2
100029de:	fa14 f483 	uxtah	r4, r4, r3
100029e2:	b21b      	sxth	r3, r3
100029e4:	b2b9      	uxth	r1, r7
100029e6:	9304      	str	r3, [sp, #16]
100029e8:	b2a4      	uxth	r4, r4
100029ea:	b23f      	sxth	r7, r7
100029ec:	3501      	adds	r5, #1
100029ee:	b2aa      	uxth	r2, r5
100029f0:	eb04 0442 	add.w	r4, r4, r2, lsl #1
100029f4:	3401      	adds	r4, #1
100029f6:	b223      	sxth	r3, r4
100029f8:	4540      	cmp	r0, r8
100029fa:	eb06 0401 	add.w	r4, r6, r1
100029fe:	b22d      	sxth	r5, r5
10002a00:	b2a4      	uxth	r4, r4
10002a02:	d813      	bhi.n	10002a2c <drawRoundRect+0x3a8>
10002a04:	4554      	cmp	r4, sl
10002a06:	d811      	bhi.n	10002a2c <drawRoundRect+0x3a8>
10002a08:	fb14 040b 	smlabb	r4, r4, fp, r0
10002a0c:	ea4f 0964 	mov.w	r9, r4, asr #1
10002a10:	f81e c009 	ldrb.w	ip, [lr, r9]
10002a14:	07e4      	lsls	r4, r4, #31
10002a16:	bf4b      	itete	mi
10002a18:	9c06      	ldrmi	r4, [sp, #24]
10002a1a:	9c01      	ldrpl	r4, [sp, #4]
10002a1c:	f00c 0c0f 	andmi.w	ip, ip, #15
10002a20:	f02c 0c0f 	bicpl.w	ip, ip, #15
10002a24:	ea44 0c0c 	orr.w	ip, r4, ip
10002a28:	f80e c009 	strb.w	ip, [lr, r9]
10002a2c:	9c02      	ldr	r4, [sp, #8]
10002a2e:	4432      	add	r2, r6
10002a30:	4421      	add	r1, r4
10002a32:	b289      	uxth	r1, r1
10002a34:	4541      	cmp	r1, r8
10002a36:	b292      	uxth	r2, r2
10002a38:	d814      	bhi.n	10002a64 <drawRoundRect+0x3e0>
10002a3a:	4552      	cmp	r2, sl
10002a3c:	d812      	bhi.n	10002a64 <drawRoundRect+0x3e0>
10002a3e:	fb12 120b 	smlabb	r2, r2, fp, r1
10002a42:	1054      	asrs	r4, r2, #1
10002a44:	f81e 1004 	ldrb.w	r1, [lr, r4]
10002a48:	07d2      	lsls	r2, r2, #31
10002a4a:	bf4b      	itete	mi
10002a4c:	9a06      	ldrmi	r2, [sp, #24]
10002a4e:	9a01      	ldrpl	r2, [sp, #4]
10002a50:	f001 010f 	andmi.w	r1, r1, #15
10002a54:	f021 010f 	bicpl.w	r1, r1, #15
10002a58:	4311      	orrs	r1, r2
10002a5a:	f80e 1004 	strb.w	r1, [lr, r4]
10002a5e:	e001      	b.n	10002a64 <drawRoundRect+0x3e0>
10002a60:	20001528 	.word	0x20001528
10002a64:	3001      	adds	r0, #1
10002a66:	42bd      	cmp	r5, r7
10002a68:	b280      	uxth	r0, r0
10002a6a:	dbb1      	blt.n	100029d0 <drawRoundRect+0x34c>
10002a6c:	9b01      	ldr	r3, [sp, #4]
10002a6e:	2400      	movs	r4, #0
10002a70:	ea4f 1a03 	mov.w	sl, r3, lsl #4
10002a74:	f8cd a008 	str.w	sl, [sp, #8]
10002a78:	f240 2c7f 	movw	ip, #639	@ 0x27f
10002a7c:	f240 18df 	movw	r8, #479	@ 0x1df
10002a80:	f44f 7920 	mov.w	r9, #640	@ 0x280
10002a84:	9909      	ldr	r1, [sp, #36]	@ 0x24
10002a86:	4f2a      	ldr	r7, [pc, #168]	@ (10002b30 <drawRoundRect+0x4ac>)
10002a88:	9d05      	ldr	r5, [sp, #20]
10002a8a:	9b07      	ldr	r3, [sp, #28]
10002a8c:	f8dd a020 	ldr.w	sl, [sp, #32]
10002a90:	e000      	b.n	10002a94 <drawRoundRect+0x410>
10002a92:	b2ab      	uxth	r3, r5
10002a94:	2900      	cmp	r1, #0
10002a96:	b288      	uxth	r0, r1
10002a98:	db09      	blt.n	10002aae <drawRoundRect+0x42a>
10002a9a:	9a03      	ldr	r2, [sp, #12]
10002a9c:	1e5d      	subs	r5, r3, #1
10002a9e:	3202      	adds	r2, #2
10002aa0:	b213      	sxth	r3, r2
10002aa2:	fa10 f082 	uxtah	r0, r0, r2
10002aa6:	9303      	str	r3, [sp, #12]
10002aa8:	b280      	uxth	r0, r0
10002aaa:	b2ab      	uxth	r3, r5
10002aac:	b22d      	sxth	r5, r5
10002aae:	3401      	adds	r4, #1
10002ab0:	b2a2      	uxth	r2, r4
10002ab2:	eb00 0042 	add.w	r0, r0, r2, lsl #1
10002ab6:	ebaa 0e03 	sub.w	lr, sl, r3
10002aba:	3001      	adds	r0, #1
10002abc:	fa1f fe8e 	uxth.w	lr, lr
10002ac0:	b201      	sxth	r1, r0
10002ac2:	45e6      	cmp	lr, ip
10002ac4:	eb06 0002 	add.w	r0, r6, r2
10002ac8:	b224      	sxth	r4, r4
10002aca:	b280      	uxth	r0, r0
10002acc:	d813      	bhi.n	10002af6 <drawRoundRect+0x472>
10002ace:	4540      	cmp	r0, r8
10002ad0:	d811      	bhi.n	10002af6 <drawRoundRect+0x472>
10002ad2:	fb10 e009 	smlabb	r0, r0, r9, lr
10002ad6:	ea4f 0b60 	mov.w	fp, r0, asr #1
10002ada:	f817 e00b 	ldrb.w	lr, [r7, fp]
10002ade:	07c0      	lsls	r0, r0, #31
10002ae0:	bf4b      	itete	mi
10002ae2:	9802      	ldrmi	r0, [sp, #8]
10002ae4:	9801      	ldrpl	r0, [sp, #4]
10002ae6:	f00e 0e0f 	andmi.w	lr, lr, #15
10002aea:	f02e 0e0f 	bicpl.w	lr, lr, #15
10002aee:	ea40 0e0e 	orr.w	lr, r0, lr
10002af2:	f807 e00b 	strb.w	lr, [r7, fp]
10002af6:	ebaa 0202 	sub.w	r2, sl, r2
10002afa:	b292      	uxth	r2, r2
10002afc:	4433      	add	r3, r6
10002afe:	4562      	cmp	r2, ip
10002b00:	b29b      	uxth	r3, r3
10002b02:	d80f      	bhi.n	10002b24 <drawRoundRect+0x4a0>
10002b04:	4543      	cmp	r3, r8
10002b06:	d80d      	bhi.n	10002b24 <drawRoundRect+0x4a0>
10002b08:	fb13 2309 	smlabb	r3, r3, r9, r2
10002b0c:	1058      	asrs	r0, r3, #1
10002b0e:	5c3a      	ldrb	r2, [r7, r0]
10002b10:	07db      	lsls	r3, r3, #31
10002b12:	bf4b      	itete	mi
10002b14:	9b02      	ldrmi	r3, [sp, #8]
10002b16:	9b01      	ldrpl	r3, [sp, #4]
10002b18:	f002 020f 	andmi.w	r2, r2, #15
10002b1c:	f022 020f 	bicpl.w	r2, r2, #15
10002b20:	431a      	orrs	r2, r3
10002b22:	543a      	strb	r2, [r7, r0]
10002b24:	42ac      	cmp	r4, r5
10002b26:	dbb4      	blt.n	10002a92 <drawRoundRect+0x40e>
10002b28:	b00d      	add	sp, #52	@ 0x34
10002b2a:	e8bd 8ff0 	ldmia.w	sp!, {r4, r5, r6, r7, r8, r9, sl, fp, pc}
10002b2e:	bf00      	nop
10002b30:	20001528 	.word	0x20001528

10002b34 <fillRoundRect>:
10002b34:	e92d 4ff0 	stmdb	sp!, {r4, r5, r6, r7, r8, r9, sl, fp, lr}
10002b38:	460d      	mov	r5, r1
10002b3a:	461e      	mov	r6, r3
10002b3c:	b08f      	sub	sp, #60	@ 0x3c
10002b3e:	f9bd 4060 	ldrsh.w	r4, [sp, #96]	@ 0x60
10002b42:	b281      	uxth	r1, r0
10002b44:	fa1f f984 	uxth.w	r9, r4
10002b48:	eb01 0309 	add.w	r3, r1, r9
10002b4c:	1970      	adds	r0, r6, r5
10002b4e:	940b      	str	r4, [sp, #44]	@ 0x2c
10002b50:	ea4f 0a49 	mov.w	sl, r9, lsl #1
10002b54:	b294      	uxth	r4, r2
10002b56:	f5b0 7ff0 	cmp.w	r0, #480	@ 0x1e0
10002b5a:	b29a      	uxth	r2, r3
10002b5c:	462f      	mov	r7, r5
10002b5e:	f89d 8064 	ldrb.w	r8, [sp, #100]	@ 0x64
10002b62:	fa1f fa8a 	uxth.w	sl, sl
10002b66:	9204      	str	r2, [sp, #16]
10002b68:	b21b      	sxth	r3, r3
10002b6a:	fa1f fb85 	uxth.w	fp, r5
10002b6e:	f340 817d 	ble.w	10002e6c <fillRoundRect+0x338>
10002b72:	f5cb 72ef 	rsb	r2, fp, #478	@ 0x1de
10002b76:	3201      	adds	r2, #1
10002b78:	b212      	sxth	r2, r2
10002b7a:	1950      	adds	r0, r2, r5
10002b7c:	2a00      	cmp	r2, #0
10002b7e:	dd06      	ble.n	10002b8e <fillRoundRect+0x5a>
10002b80:	f5b3 7f20 	cmp.w	r3, #640	@ 0x280
10002b84:	da03      	bge.n	10002b8e <fillRoundRect+0x5a>
10002b86:	f5b5 7ff0 	cmp.w	r5, #480	@ 0x1e0
10002b8a:	f2c0 8171 	blt.w	10002e70 <fillRoundRect+0x33c>
10002b8e:	1e73      	subs	r3, r6, #1
10002b90:	eba3 030a 	sub.w	r3, r3, sl
10002b94:	b29b      	uxth	r3, r3
10002b96:	f1ca 0a00 	rsb	sl, sl, #0
10002b9a:	9303      	str	r3, [sp, #12]
10002b9c:	fa0f f38a 	sxth.w	r3, sl
10002ba0:	1e62      	subs	r2, r4, #1
10002ba2:	9309      	str	r3, [sp, #36]	@ 0x24
10002ba4:	f1c9 0301 	rsb	r3, r9, #1
10002ba8:	b21b      	sxth	r3, r3
10002baa:	440a      	add	r2, r1
10002bac:	eba2 0209 	sub.w	r2, r2, r9
10002bb0:	930c      	str	r3, [sp, #48]	@ 0x30
10002bb2:	9b0b      	ldr	r3, [sp, #44]	@ 0x2c
10002bb4:	b292      	uxth	r2, r2
10002bb6:	44cb      	add	fp, r9
10002bb8:	9205      	str	r2, [sp, #20]
10002bba:	2b00      	cmp	r3, #0
10002bbc:	fa1f f28b 	uxth.w	r2, fp
10002bc0:	9201      	str	r2, [sp, #4]
10002bc2:	f340 8150 	ble.w	10002e66 <fillRoundRect+0x332>
10002bc6:	2000      	movs	r0, #0
10002bc8:	f04f 0a03 	mov.w	sl, #3
10002bcc:	f240 16df 	movw	r6, #479	@ 0x1df
10002bd0:	4619      	mov	r1, r3
10002bd2:	9b09      	ldr	r3, [sp, #36]	@ 0x24
10002bd4:	f8dd b030 	ldr.w	fp, [sp, #48]	@ 0x30
10002bd8:	930a      	str	r3, [sp, #40]	@ 0x28
10002bda:	9b03      	ldr	r3, [sp, #12]
10002bdc:	4cb2      	ldr	r4, [pc, #712]	@ (10002ea8 <fillRoundRect+0x374>)
10002bde:	3301      	adds	r3, #1
10002be0:	b29b      	uxth	r3, r3
10002be2:	9306      	str	r3, [sp, #24]
10002be4:	ea4f 1e08 	mov.w	lr, r8, lsl #4
10002be8:	9002      	str	r0, [sp, #8]
10002bea:	f8cd 9034 	str.w	r9, [sp, #52]	@ 0x34
10002bee:	f1bb 0f00 	cmp.w	fp, #0
10002bf2:	b28d      	uxth	r5, r1
10002bf4:	fa1f f38b 	uxth.w	r3, fp
10002bf8:	db09      	blt.n	10002c0e <fillRoundRect+0xda>
10002bfa:	990a      	ldr	r1, [sp, #40]	@ 0x28
10002bfc:	1e6a      	subs	r2, r5, #1
10002bfe:	3102      	adds	r1, #2
10002c00:	fa13 f381 	uxtah	r3, r3, r1
10002c04:	b209      	sxth	r1, r1
10002c06:	910a      	str	r1, [sp, #40]	@ 0x28
10002c08:	b29b      	uxth	r3, r3
10002c0a:	b295      	uxth	r5, r2
10002c0c:	b211      	sxth	r1, r2
10002c0e:	9802      	ldr	r0, [sp, #8]
10002c10:	4453      	add	r3, sl
10002c12:	fa0f fb83 	sxth.w	fp, r3
10002c16:	9b01      	ldr	r3, [sp, #4]
10002c18:	3001      	adds	r0, #1
10002c1a:	1b5a      	subs	r2, r3, r5
10002c1c:	b283      	uxth	r3, r0
10002c1e:	b200      	sxth	r0, r0
10002c20:	9002      	str	r0, [sp, #8]
10002c22:	9806      	ldr	r0, [sp, #24]
10002c24:	b212      	sxth	r2, r2
10002c26:	eb00 0745 	add.w	r7, r0, r5, lsl #1
10002c2a:	9805      	ldr	r0, [sp, #20]
10002c2c:	fa02 f787 	sxtah	r7, r2, r7
10002c30:	eb00 0c03 	add.w	ip, r0, r3
10002c34:	42ba      	cmp	r2, r7
10002c36:	fa1f fc8c 	uxth.w	ip, ip
10002c3a:	da2f      	bge.n	10002c9c <fillRoundRect+0x168>
10002c3c:	f240 207f 	movw	r0, #639	@ 0x27f
10002c40:	4584      	cmp	ip, r0
10002c42:	bf94      	ite	ls
10002c44:	f04f 0900 	movls.w	r9, #0
10002c48:	f04f 0901 	movhi.w	r9, #1
10002c4c:	e9cd b107 	strd	fp, r1, [sp, #28]
10002c50:	4619      	mov	r1, r3
10002c52:	464b      	mov	r3, r9
10002c54:	4689      	mov	r9, r1
10002c56:	eb02 0182 	add.w	r1, r2, r2, lsl #2
10002c5a:	b292      	uxth	r2, r2
10002c5c:	eb0c 11c1 	add.w	r1, ip, r1, lsl #7
10002c60:	42b2      	cmp	r2, r6
10002c62:	ea4f 0b61 	mov.w	fp, r1, asr #1
10002c66:	d812      	bhi.n	10002c8e <fillRoundRect+0x15a>
10002c68:	b98b      	cbnz	r3, 10002c8e <fillRoundRect+0x15a>
10002c6a:	f814 000b 	ldrb.w	r0, [r4, fp]
10002c6e:	f011 0f01 	tst.w	r1, #1
10002c72:	f000 010f 	and.w	r1, r0, #15
10002c76:	bf08      	it	eq
10002c78:	f020 000f 	biceq.w	r0, r0, #15
10002c7c:	ea41 010e 	orr.w	r1, r1, lr
10002c80:	bf0a      	itet	eq
10002c82:	ea48 0000 	orreq.w	r0, r8, r0
10002c86:	f804 100b 	strbne.w	r1, [r4, fp]
10002c8a:	f804 000b 	strbeq.w	r0, [r4, fp]
10002c8e:	3201      	adds	r2, #1
10002c90:	b212      	sxth	r2, r2
10002c92:	4297      	cmp	r7, r2
10002c94:	dcdf      	bgt.n	10002c56 <fillRoundRect+0x122>
10002c96:	e9dd b107 	ldrd	fp, r1, [sp, #28]
10002c9a:	464b      	mov	r3, r9
10002c9c:	9a01      	ldr	r2, [sp, #4]
10002c9e:	1ad3      	subs	r3, r2, r3
10002ca0:	9a05      	ldr	r2, [sp, #20]
10002ca2:	b21b      	sxth	r3, r3
10002ca4:	4415      	add	r5, r2
10002ca6:	9a03      	ldr	r2, [sp, #12]
10002ca8:	b2ad      	uxth	r5, r5
10002caa:	eb02 0c0a 	add.w	ip, r2, sl
10002cae:	fa03 fc8c 	sxtah	ip, r3, ip
10002cb2:	4563      	cmp	r3, ip
10002cb4:	da28      	bge.n	10002d08 <fillRoundRect+0x1d4>
10002cb6:	f240 227f 	movw	r2, #639	@ 0x27f
10002cba:	4295      	cmp	r5, r2
10002cbc:	bf94      	ite	ls
10002cbe:	f04f 0900 	movls.w	r9, #0
10002cc2:	f04f 0901 	movhi.w	r9, #1
10002cc6:	464a      	mov	r2, r9
10002cc8:	4689      	mov	r9, r1
10002cca:	4611      	mov	r1, r2
10002ccc:	eb03 0283 	add.w	r2, r3, r3, lsl #2
10002cd0:	b29b      	uxth	r3, r3
10002cd2:	eb05 12c2 	add.w	r2, r5, r2, lsl #7
10002cd6:	42b3      	cmp	r3, r6
10002cd8:	ea4f 0762 	mov.w	r7, r2, asr #1
10002cdc:	d80f      	bhi.n	10002cfe <fillRoundRect+0x1ca>
10002cde:	b971      	cbnz	r1, 10002cfe <fillRoundRect+0x1ca>
10002ce0:	5de0      	ldrb	r0, [r4, r7]
10002ce2:	f012 0f01 	tst.w	r2, #1
10002ce6:	f000 020f 	and.w	r2, r0, #15
10002cea:	bf08      	it	eq
10002cec:	f020 000f 	biceq.w	r0, r0, #15
10002cf0:	ea42 020e 	orr.w	r2, r2, lr
10002cf4:	bf0a      	itet	eq
10002cf6:	ea48 0000 	orreq.w	r0, r8, r0
10002cfa:	55e2      	strbne	r2, [r4, r7]
10002cfc:	55e0      	strbeq	r0, [r4, r7]
10002cfe:	3301      	adds	r3, #1
10002d00:	b21b      	sxth	r3, r3
10002d02:	459c      	cmp	ip, r3
10002d04:	dce2      	bgt.n	10002ccc <fillRoundRect+0x198>
10002d06:	4649      	mov	r1, r9
10002d08:	9b02      	ldr	r3, [sp, #8]
10002d0a:	f10a 0a02 	add.w	sl, sl, #2
10002d0e:	428b      	cmp	r3, r1
10002d10:	fa1f fa8a 	uxth.w	sl, sl
10002d14:	f6ff af6b 	blt.w	10002bee <fillRoundRect+0xba>
10002d18:	e9dd 060b 	ldrd	r0, r6, [sp, #44]	@ 0x2c
10002d1c:	f04f 0b00 	mov.w	fp, #0
10002d20:	f04f 0a03 	mov.w	sl, #3
10002d24:	f240 15df 	movw	r5, #479	@ 0x1df
10002d28:	f8dd 9034 	ldr.w	r9, [sp, #52]	@ 0x34
10002d2c:	4c5e      	ldr	r4, [pc, #376]	@ (10002ea8 <fillRoundRect+0x374>)
10002d2e:	ea4f 1308 	mov.w	r3, r8, lsl #4
10002d32:	f8cd b008 	str.w	fp, [sp, #8]
10002d36:	2e00      	cmp	r6, #0
10002d38:	b2b2      	uxth	r2, r6
10002d3a:	db0b      	blt.n	10002d54 <fillRoundRect+0x220>
10002d3c:	9809      	ldr	r0, [sp, #36]	@ 0x24
10002d3e:	f109 31ff 	add.w	r1, r9, #4294967295	@ 0xffffffff
10002d42:	3002      	adds	r0, #2
10002d44:	fa12 f280 	uxtah	r2, r2, r0
10002d48:	b200      	sxth	r0, r0
10002d4a:	9009      	str	r0, [sp, #36]	@ 0x24
10002d4c:	b292      	uxth	r2, r2
10002d4e:	fa1f f981 	uxth.w	r9, r1
10002d52:	b208      	sxth	r0, r1
10002d54:	9f02      	ldr	r7, [sp, #8]
10002d56:	4452      	add	r2, sl
10002d58:	b216      	sxth	r6, r2
10002d5a:	9a01      	ldr	r2, [sp, #4]
10002d5c:	3701      	adds	r7, #1
10002d5e:	eba2 0109 	sub.w	r1, r2, r9
10002d62:	b2ba      	uxth	r2, r7
10002d64:	b23f      	sxth	r7, r7
10002d66:	9702      	str	r7, [sp, #8]
10002d68:	9f06      	ldr	r7, [sp, #24]
10002d6a:	b209      	sxth	r1, r1
10002d6c:	eb07 0c49 	add.w	ip, r7, r9, lsl #1
10002d70:	9f04      	ldr	r7, [sp, #16]
10002d72:	fa01 fc8c 	sxtah	ip, r1, ip
10002d76:	eba7 0e02 	sub.w	lr, r7, r2
10002d7a:	458c      	cmp	ip, r1
10002d7c:	fa1f fe8e 	uxth.w	lr, lr
10002d80:	dd2c      	ble.n	10002ddc <fillRoundRect+0x2a8>
10002d82:	f240 277f 	movw	r7, #639	@ 0x27f
10002d86:	45be      	cmp	lr, r7
10002d88:	bf94      	ite	ls
10002d8a:	f04f 0b00 	movls.w	fp, #0
10002d8e:	f04f 0b01 	movhi.w	fp, #1
10002d92:	9207      	str	r2, [sp, #28]
10002d94:	461a      	mov	r2, r3
10002d96:	465b      	mov	r3, fp
10002d98:	4693      	mov	fp, r2
10002d9a:	9605      	str	r6, [sp, #20]
10002d9c:	eb01 0281 	add.w	r2, r1, r1, lsl #2
10002da0:	b289      	uxth	r1, r1
10002da2:	eb0e 12c2 	add.w	r2, lr, r2, lsl #7
10002da6:	42a9      	cmp	r1, r5
10002da8:	ea4f 0762 	mov.w	r7, r2, asr #1
10002dac:	d80f      	bhi.n	10002dce <fillRoundRect+0x29a>
10002dae:	b973      	cbnz	r3, 10002dce <fillRoundRect+0x29a>
10002db0:	5de6      	ldrb	r6, [r4, r7]
10002db2:	f012 0f01 	tst.w	r2, #1
10002db6:	f006 020f 	and.w	r2, r6, #15
10002dba:	bf08      	it	eq
10002dbc:	f026 060f 	biceq.w	r6, r6, #15
10002dc0:	ea42 020b 	orr.w	r2, r2, fp
10002dc4:	bf0a      	itet	eq
10002dc6:	ea48 0606 	orreq.w	r6, r8, r6
10002dca:	55e2      	strbne	r2, [r4, r7]
10002dcc:	55e6      	strbeq	r6, [r4, r7]
10002dce:	3101      	adds	r1, #1
10002dd0:	b209      	sxth	r1, r1
10002dd2:	458c      	cmp	ip, r1
10002dd4:	dce2      	bgt.n	10002d9c <fillRoundRect+0x268>
10002dd6:	465b      	mov	r3, fp
10002dd8:	9e05      	ldr	r6, [sp, #20]
10002dda:	9a07      	ldr	r2, [sp, #28]
10002ddc:	9901      	ldr	r1, [sp, #4]
10002dde:	1a8a      	subs	r2, r1, r2
10002de0:	9904      	ldr	r1, [sp, #16]
10002de2:	b212      	sxth	r2, r2
10002de4:	eba1 0909 	sub.w	r9, r1, r9
10002de8:	9903      	ldr	r1, [sp, #12]
10002dea:	fa1f f989 	uxth.w	r9, r9
10002dee:	eb01 0e0a 	add.w	lr, r1, sl
10002df2:	fa02 fe8e 	sxtah	lr, r2, lr
10002df6:	4572      	cmp	r2, lr
10002df8:	da2b      	bge.n	10002e52 <fillRoundRect+0x31e>
10002dfa:	f240 217f 	movw	r1, #639	@ 0x27f
10002dfe:	4589      	cmp	r9, r1
10002e00:	bf94      	ite	ls
10002e02:	f04f 0b00 	movls.w	fp, #0
10002e06:	f04f 0b01 	movhi.w	fp, #1
10002e0a:	4619      	mov	r1, r3
10002e0c:	465b      	mov	r3, fp
10002e0e:	468b      	mov	fp, r1
10002e10:	eb02 0182 	add.w	r1, r2, r2, lsl #2
10002e14:	b292      	uxth	r2, r2
10002e16:	eb09 11c1 	add.w	r1, r9, r1, lsl #7
10002e1a:	42aa      	cmp	r2, r5
10002e1c:	ea4f 0c61 	mov.w	ip, r1, asr #1
10002e20:	d812      	bhi.n	10002e48 <fillRoundRect+0x314>
10002e22:	b98b      	cbnz	r3, 10002e48 <fillRoundRect+0x314>
10002e24:	f814 700c 	ldrb.w	r7, [r4, ip]
10002e28:	f011 0f01 	tst.w	r1, #1
10002e2c:	f007 010f 	and.w	r1, r7, #15
10002e30:	bf08      	it	eq
10002e32:	f027 070f 	biceq.w	r7, r7, #15
10002e36:	ea41 010b 	orr.w	r1, r1, fp
10002e3a:	bf0a      	itet	eq
10002e3c:	ea48 0707 	orreq.w	r7, r8, r7
10002e40:	f804 100c 	strbne.w	r1, [r4, ip]
10002e44:	f804 700c 	strbeq.w	r7, [r4, ip]
10002e48:	3201      	adds	r2, #1
10002e4a:	b212      	sxth	r2, r2
10002e4c:	4596      	cmp	lr, r2
10002e4e:	dcdf      	bgt.n	10002e10 <fillRoundRect+0x2dc>
10002e50:	465b      	mov	r3, fp
10002e52:	9a02      	ldr	r2, [sp, #8]
10002e54:	f10a 0a02 	add.w	sl, sl, #2
10002e58:	4282      	cmp	r2, r0
10002e5a:	fa1f fa8a 	uxth.w	sl, sl
10002e5e:	da02      	bge.n	10002e66 <fillRoundRect+0x332>
10002e60:	fa1f f980 	uxth.w	r9, r0
10002e64:	e767      	b.n	10002d36 <fillRoundRect+0x202>
10002e66:	b00f      	add	sp, #60	@ 0x3c
10002e68:	e8bd 8ff0 	ldmia.w	sp!, {r4, r5, r6, r7, r8, r9, sl, fp, pc}
10002e6c:	4632      	mov	r2, r6
10002e6e:	e685      	b.n	10002b7c <fillRoundRect+0x48>
10002e70:	f240 12df 	movw	r2, #479	@ 0x1df
10002e74:	3801      	subs	r0, #1
10002e76:	4290      	cmp	r0, r2
10002e78:	bfa8      	it	ge
10002e7a:	4610      	movge	r0, r2
10002e7c:	eba4 050a 	sub.w	r5, r4, sl
10002e80:	e9cd 1401 	strd	r1, r4, [sp, #4]
10002e84:	9603      	str	r6, [sp, #12]
10002e86:	461c      	mov	r4, r3
10002e88:	463e      	mov	r6, r7
10002e8a:	4607      	mov	r7, r0
10002e8c:	b22d      	sxth	r5, r5
10002e8e:	4631      	mov	r1, r6
10002e90:	4643      	mov	r3, r8
10002e92:	462a      	mov	r2, r5
10002e94:	4620      	mov	r0, r4
10002e96:	3601      	adds	r6, #1
10002e98:	f7fe fa7a 	bl	10001390 <drawHLine.part.0>
10002e9c:	42b7      	cmp	r7, r6
10002e9e:	daf6      	bge.n	10002e8e <fillRoundRect+0x35a>
10002ea0:	e9dd 1401 	ldrd	r1, r4, [sp, #4]
10002ea4:	9e03      	ldr	r6, [sp, #12]
10002ea6:	e672      	b.n	10002b8e <fillRoundRect+0x5a>
10002ea8:	20001528 	.word	0x20001528

10002eac <fillRect>:
10002eac:	e92d 4ff0 	stmdb	sp!, {r4, r5, r6, r7, r8, r9, sl, fp, lr}
10002eb0:	185f      	adds	r7, r3, r1
10002eb2:	b085      	sub	sp, #20
10002eb4:	f5b7 7ff0 	cmp.w	r7, #480	@ 0x1e0
10002eb8:	4606      	mov	r6, r0
10002eba:	460d      	mov	r5, r1
10002ebc:	f89d c038 	ldrb.w	ip, [sp, #56]	@ 0x38
10002ec0:	dd04      	ble.n	10002ecc <fillRect+0x20>
10002ec2:	f5c1 73ef 	rsb	r3, r1, #478	@ 0x1de
10002ec6:	3301      	adds	r3, #1
10002ec8:	b21b      	sxth	r3, r3
10002eca:	185f      	adds	r7, r3, r1
10002ecc:	2b00      	cmp	r3, #0
10002ece:	dd13      	ble.n	10002ef8 <fillRect+0x4c>
10002ed0:	f5b6 7f20 	cmp.w	r6, #640	@ 0x280
10002ed4:	da10      	bge.n	10002ef8 <fillRect+0x4c>
10002ed6:	f240 207f 	movw	r0, #639	@ 0x27f
10002eda:	1994      	adds	r4, r2, r6
10002edc:	1b83      	subs	r3, r0, r6
10002ede:	f5b4 7f20 	cmp.w	r4, #640	@ 0x280
10002ee2:	bfd8      	it	le
10002ee4:	4613      	movle	r3, r2
10002ee6:	07f2      	lsls	r2, r6, #31
10002ee8:	fa1f f986 	uxth.w	r9, r6
10002eec:	f103 3aff 	add.w	sl, r3, #4294967295	@ 0xffffffff
10002ef0:	d405      	bmi.n	10002efe <fillRect+0x52>
10002ef2:	f5b1 7ff0 	cmp.w	r1, #480	@ 0x1e0
10002ef6:	db67      	blt.n	10002fc8 <fillRect+0x11c>
10002ef8:	b005      	add	sp, #20
10002efa:	e8bd 8ff0 	ldmia.w	sp!, {r4, r5, r6, r7, r8, r9, sl, fp, pc}
10002efe:	f5b1 7ff0 	cmp.w	r1, #480	@ 0x1e0
10002f02:	daf9      	bge.n	10002ef8 <fillRect+0x4c>
10002f04:	f1a3 0802 	sub.w	r8, r3, #2
10002f08:	f240 13df 	movw	r3, #479	@ 0x1df
10002f0c:	3f01      	subs	r7, #1
10002f0e:	429f      	cmp	r7, r3
10002f10:	bfa8      	it	ge
10002f12:	461f      	movge	r7, r3
10002f14:	f44f 7320 	mov.w	r3, #640	@ 0x280
10002f18:	4581      	cmp	r9, r0
10002f1a:	eb09 0e0a 	add.w	lr, r9, sl
10002f1e:	bf94      	ite	ls
10002f20:	f04f 0900 	movls.w	r9, #0
10002f24:	f04f 0901 	movhi.w	r9, #1
10002f28:	fa1f fb8e 	uxth.w	fp, lr
10002f2c:	4583      	cmp	fp, r0
10002f2e:	fb11 6403 	smlabb	r4, r1, r3, r6
10002f32:	bf94      	ite	ls
10002f34:	2300      	movls	r3, #0
10002f36:	2301      	movhi	r3, #1
10002f38:	f01a 0f01 	tst.w	sl, #1
10002f3c:	bf08      	it	eq
10002f3e:	46d0      	moveq	r8, sl
10002f40:	f106 0b01 	add.w	fp, r6, #1
10002f44:	9602      	str	r6, [sp, #8]
10002f46:	464e      	mov	r6, r9
10002f48:	46e1      	mov	r9, ip
10002f4a:	9300      	str	r3, [sp, #0]
10002f4c:	ea4c 130c 	orr.w	r3, ip, ip, lsl #4
10002f50:	f00a 0a01 	and.w	sl, sl, #1
10002f54:	9301      	str	r3, [sp, #4]
10002f56:	ea4f 0868 	mov.w	r8, r8, asr #1
10002f5a:	f8cd e00c 	str.w	lr, [sp, #12]
10002f5e:	0fe9      	lsrs	r1, r5, #31
10002f60:	b95e      	cbnz	r6, 10002f7a <fillRect+0xce>
10002f62:	b951      	cbnz	r1, 10002f7a <fillRect+0xce>
10002f64:	4b45      	ldr	r3, [pc, #276]	@ (1000307c <fillRect+0x1d0>)
10002f66:	ea4f 0c64 	mov.w	ip, r4, asr #1
10002f6a:	f813 000c 	ldrb.w	r0, [r3, ip]
10002f6e:	f000 000f 	and.w	r0, r0, #15
10002f72:	ea40 1009 	orr.w	r0, r0, r9, lsl #4
10002f76:	f803 000c 	strb.w	r0, [r3, ip]
10002f7a:	f1ba 0f00 	cmp.w	sl, #0
10002f7e:	d00f      	beq.n	10002fa0 <fillRect+0xf4>
10002f80:	9b00      	ldr	r3, [sp, #0]
10002f82:	b96b      	cbnz	r3, 10002fa0 <fillRect+0xf4>
10002f84:	b961      	cbnz	r1, 10002fa0 <fillRect+0xf4>
10002f86:	9b02      	ldr	r3, [sp, #8]
10002f88:	f8bd 100c 	ldrh.w	r1, [sp, #12]
10002f8c:	1ac9      	subs	r1, r1, r3
10002f8e:	4421      	add	r1, r4
10002f90:	4b3a      	ldr	r3, [pc, #232]	@ (1000307c <fillRect+0x1d0>)
10002f92:	1049      	asrs	r1, r1, #1
10002f94:	5c58      	ldrb	r0, [r3, r1]
10002f96:	f020 000f 	bic.w	r0, r0, #15
10002f9a:	ea49 0000 	orr.w	r0, r9, r0
10002f9e:	5458      	strb	r0, [r3, r1]
10002fa0:	f1b8 0f00 	cmp.w	r8, #0
10002fa4:	dd0a      	ble.n	10002fbc <fillRect+0x110>
10002fa6:	eb05 0185 	add.w	r1, r5, r5, lsl #2
10002faa:	4834      	ldr	r0, [pc, #208]	@ (1000307c <fillRect+0x1d0>)
10002fac:	0189      	lsls	r1, r1, #6
10002fae:	eb01 016b 	add.w	r1, r1, fp, asr #1
10002fb2:	4408      	add	r0, r1
10002fb4:	4642      	mov	r2, r8
10002fb6:	9901      	ldr	r1, [sp, #4]
10002fb8:	f004 fe4e 	bl	10007c58 <memset>
10002fbc:	3501      	adds	r5, #1
10002fbe:	42bd      	cmp	r5, r7
10002fc0:	f504 7420 	add.w	r4, r4, #640	@ 0x280
10002fc4:	ddcb      	ble.n	10002f5e <fillRect+0xb2>
10002fc6:	e797      	b.n	10002ef8 <fillRect+0x4c>
10002fc8:	f240 12df 	movw	r2, #479	@ 0x1df
10002fcc:	f109 34ff 	add.w	r4, r9, #4294967295	@ 0xffffffff
10002fd0:	441c      	add	r4, r3
10002fd2:	b2a4      	uxth	r4, r4
10002fd4:	4284      	cmp	r4, r0
10002fd6:	f107 37ff 	add.w	r7, r7, #4294967295	@ 0xffffffff
10002fda:	bf94      	ite	ls
10002fdc:	2000      	movls	r0, #0
10002fde:	2001      	movhi	r0, #1
10002fe0:	4297      	cmp	r7, r2
10002fe2:	bfa8      	it	ge
10002fe4:	4617      	movge	r7, r2
10002fe6:	f44f 7b20 	mov.w	fp, #640	@ 0x280
10002fea:	f013 0f01 	tst.w	r3, #1
10002fee:	bf08      	it	eq
10002ff0:	469a      	moveq	sl, r3
10002ff2:	fb11 4b0b 	smlabb	fp, r1, fp, r4
10002ff6:	f013 0401 	ands.w	r4, r3, #1
10002ffa:	ea4f 086a 	mov.w	r8, sl, asr #1
10002ffe:	d128      	bne.n	10003052 <fillRect+0x1a6>
10003000:	f1b8 0f00 	cmp.w	r8, #0
10003004:	dc05      	bgt.n	10003012 <fillRect+0x166>
10003006:	3501      	adds	r5, #1
10003008:	42af      	cmp	r7, r5
1000300a:	f50b 7b20 	add.w	fp, fp, #640	@ 0x280
1000300e:	daf7      	bge.n	10003000 <fillRect+0x154>
10003010:	e772      	b.n	10002ef8 <fillRect+0x4c>
10003012:	ea4f 0966 	mov.w	r9, r6, asr #1
10003016:	9602      	str	r6, [sp, #8]
10003018:	465e      	mov	r6, fp
1000301a:	46e3      	mov	fp, ip
1000301c:	ea4c 130c 	orr.w	r3, ip, ip, lsl #4
10003020:	e9cd 3000 	strd	r3, r0, [sp]
10003024:	f8df a054 	ldr.w	sl, [pc, #84]	@ 1000307c <fillRect+0x1d0>
10003028:	eb05 0085 	add.w	r0, r5, r5, lsl #2
1000302c:	eb09 1080 	add.w	r0, r9, r0, lsl #6
10003030:	4642      	mov	r2, r8
10003032:	9900      	ldr	r1, [sp, #0]
10003034:	4450      	add	r0, sl
10003036:	3501      	adds	r5, #1
10003038:	f004 fe0e 	bl	10007c58 <memset>
1000303c:	42bd      	cmp	r5, r7
1000303e:	f506 7620 	add.w	r6, r6, #640	@ 0x280
10003042:	f73f af59 	bgt.w	10002ef8 <fillRect+0x4c>
10003046:	2c00      	cmp	r4, #0
10003048:	d0ee      	beq.n	10003028 <fillRect+0x17c>
1000304a:	46dc      	mov	ip, fp
1000304c:	9801      	ldr	r0, [sp, #4]
1000304e:	46b3      	mov	fp, r6
10003050:	9e02      	ldr	r6, [sp, #8]
10003052:	2d00      	cmp	r5, #0
10003054:	db09      	blt.n	1000306a <fillRect+0x1be>
10003056:	b940      	cbnz	r0, 1000306a <fillRect+0x1be>
10003058:	4908      	ldr	r1, [pc, #32]	@ (1000307c <fillRect+0x1d0>)
1000305a:	ea4f 026b 	mov.w	r2, fp, asr #1
1000305e:	5c8b      	ldrb	r3, [r1, r2]
10003060:	f023 030f 	bic.w	r3, r3, #15
10003064:	ea4c 0303 	orr.w	r3, ip, r3
10003068:	548b      	strb	r3, [r1, r2]
1000306a:	f1b8 0f00 	cmp.w	r8, #0
1000306e:	dcd0      	bgt.n	10003012 <fillRect+0x166>
10003070:	3501      	adds	r5, #1
10003072:	42af      	cmp	r7, r5
10003074:	f50b 7b20 	add.w	fp, fp, #640	@ 0x280
10003078:	daeb      	bge.n	10003052 <fillRect+0x1a6>
1000307a:	e73d      	b.n	10002ef8 <fillRect+0x4c>
1000307c:	20001528 	.word	0x20001528

10003080 <setCursor>:
10003080:	4a02      	ldr	r2, [pc, #8]	@ (1000308c <setCursor+0xc>)
10003082:	4b03      	ldr	r3, [pc, #12]	@ (10003090 <setCursor+0x10>)
10003084:	8010      	strh	r0, [r2, #0]
10003086:	8019      	strh	r1, [r3, #0]
10003088:	4770      	bx	lr
1000308a:	bf00      	nop
1000308c:	20026d2a 	.word	0x20026d2a
10003090:	20026d2c 	.word	0x20026d2c

10003094 <setTextSize>:
10003094:	2801      	cmp	r0, #1
10003096:	bf38      	it	cc
10003098:	2001      	movcc	r0, #1
1000309a:	4b01      	ldr	r3, [pc, #4]	@ (100030a0 <setTextSize+0xc>)
1000309c:	8018      	strh	r0, [r3, #0]
1000309e:	4770      	bx	lr
100030a0:	20026d30 	.word	0x20026d30

100030a4 <setTextColor>:
100030a4:	4a02      	ldr	r2, [pc, #8]	@ (100030b0 <setTextColor+0xc>)
100030a6:	4b03      	ldr	r3, [pc, #12]	@ (100030b4 <setTextColor+0x10>)
100030a8:	7010      	strb	r0, [r2, #0]
100030aa:	7018      	strb	r0, [r3, #0]
100030ac:	4770      	bx	lr
100030ae:	bf00      	nop
100030b0:	20026d34 	.word	0x20026d34
100030b4:	20026d35 	.word	0x20026d35

100030b8 <setTextColor2>:
100030b8:	4a02      	ldr	r2, [pc, #8]	@ (100030c4 <setTextColor2+0xc>)
100030ba:	4b03      	ldr	r3, [pc, #12]	@ (100030c8 <setTextColor2+0x10>)
100030bc:	7010      	strb	r0, [r2, #0]
100030be:	7019      	strb	r1, [r3, #0]
100030c0:	4770      	bx	lr
100030c2:	bf00      	nop
100030c4:	20026d35 	.word	0x20026d35
100030c8:	20026d34 	.word	0x20026d34

100030cc <writeString>:
100030cc:	7802      	ldrb	r2, [r0, #0]
100030ce:	2a00      	cmp	r2, #0
100030d0:	d05e      	beq.n	10003190 <writeString+0xc4>
100030d2:	e92d 41f0 	stmdb	sp!, {r4, r5, r6, r7, r8, lr}
100030d6:	4604      	mov	r4, r0
100030d8:	4d2e      	ldr	r5, [pc, #184]	@ (10003194 <writeString+0xc8>)
100030da:	4f2f      	ldr	r7, [pc, #188]	@ (10003198 <writeString+0xcc>)
100030dc:	4e2f      	ldr	r6, [pc, #188]	@ (1000319c <writeString+0xd0>)
100030de:	b082      	sub	sp, #8
100030e0:	e00c      	b.n	100030fc <writeString+0x30>
100030e2:	2a0d      	cmp	r2, #13
100030e4:	d007      	beq.n	100030f6 <writeString+0x2a>
100030e6:	2a09      	cmp	r2, #9
100030e8:	882b      	ldrh	r3, [r5, #0]
100030ea:	d117      	bne.n	1000311c <writeString+0x50>
100030ec:	f5b3 7f1f 	cmp.w	r3, #636	@ 0x27c
100030f0:	d201      	bcs.n	100030f6 <writeString+0x2a>
100030f2:	3304      	adds	r3, #4
100030f4:	802b      	strh	r3, [r5, #0]
100030f6:	f814 2f01 	ldrb.w	r2, [r4, #1]!
100030fa:	b162      	cbz	r2, 10003116 <writeString+0x4a>
100030fc:	2a0a      	cmp	r2, #10
100030fe:	d1f0      	bne.n	100030e2 <writeString+0x16>
10003100:	2200      	movs	r2, #0
10003102:	8833      	ldrh	r3, [r6, #0]
10003104:	8839      	ldrh	r1, [r7, #0]
10003106:	802a      	strh	r2, [r5, #0]
10003108:	eb03 03c1 	add.w	r3, r3, r1, lsl #3
1000310c:	8033      	strh	r3, [r6, #0]
1000310e:	f814 2f01 	ldrb.w	r2, [r4, #1]!
10003112:	2a00      	cmp	r2, #0
10003114:	d1f2      	bne.n	100030fc <writeString+0x30>
10003116:	b002      	add	sp, #8
10003118:	e8bd 81f0 	ldmia.w	sp!, {r4, r5, r6, r7, r8, pc}
1000311c:	b218      	sxth	r0, r3
1000311e:	f5b0 7f20 	cmp.w	r0, #640	@ 0x280
10003122:	f8b7 c000 	ldrh.w	ip, [r7]
10003126:	da1e      	bge.n	10003166 <writeString+0x9a>
10003128:	f9b6 1000 	ldrsh.w	r1, [r6]
1000312c:	f5b1 7ff0 	cmp.w	r1, #480	@ 0x1e0
10003130:	da19      	bge.n	10003166 <writeString+0x9a>
10003132:	f04f 0e06 	mov.w	lr, #6
10003136:	fa5f f88c 	uxtb.w	r8, ip
1000313a:	fb18 0e0e 	smlabb	lr, r8, lr, r0
1000313e:	f1be 0f00 	cmp.w	lr, #0
10003142:	dd10      	ble.n	10003166 <writeString+0x9a>
10003144:	eb01 0ec8 	add.w	lr, r1, r8, lsl #3
10003148:	f1be 0f00 	cmp.w	lr, #0
1000314c:	dd0b      	ble.n	10003166 <writeString+0x9a>
1000314e:	4b14      	ldr	r3, [pc, #80]	@ (100031a0 <writeString+0xd4>)
10003150:	f8cd 8004 	str.w	r8, [sp, #4]
10003154:	781b      	ldrb	r3, [r3, #0]
10003156:	9300      	str	r3, [sp, #0]
10003158:	4b12      	ldr	r3, [pc, #72]	@ (100031a4 <writeString+0xd8>)
1000315a:	781b      	ldrb	r3, [r3, #0]
1000315c:	f7fe f984 	bl	10001468 <drawChar.part.0>
10003160:	f8b7 c000 	ldrh.w	ip, [r7]
10003164:	882b      	ldrh	r3, [r5, #0]
10003166:	eb0c 014c 	add.w	r1, ip, ip, lsl #1
1000316a:	ebac 028c 	sub.w	r2, ip, ip, lsl #2
1000316e:	eb03 0341 	add.w	r3, r3, r1, lsl #1
10003172:	0052      	lsls	r2, r2, #1
10003174:	b29b      	uxth	r3, r3
10003176:	f502 7220 	add.w	r2, r2, #640	@ 0x280
1000317a:	4293      	cmp	r3, r2
1000317c:	802b      	strh	r3, [r5, #0]
1000317e:	ddba      	ble.n	100030f6 <writeString+0x2a>
10003180:	2300      	movs	r3, #0
10003182:	4a06      	ldr	r2, [pc, #24]	@ (1000319c <writeString+0xd0>)
10003184:	802b      	strh	r3, [r5, #0]
10003186:	8813      	ldrh	r3, [r2, #0]
10003188:	eb03 03cc 	add.w	r3, r3, ip, lsl #3
1000318c:	8013      	strh	r3, [r2, #0]
1000318e:	e7b2      	b.n	100030f6 <writeString+0x2a>
10003190:	4770      	bx	lr
10003192:	bf00      	nop
10003194:	20026d2a 	.word	0x20026d2a
10003198:	20026d30 	.word	0x20026d30
1000319c:	20026d2c 	.word	0x20026d2c
100031a0:	20026d34 	.word	0x20026d34
100031a4:	20026d35 	.word	0x20026d35

100031a8 <drawCharBig>:
100031a8:	e92d 4ff0 	stmdb	sp!, {r4, r5, r6, r7, r8, r9, sl, fp, lr}
100031ac:	b091      	sub	sp, #68	@ 0x44
100031ae:	f89d 9068 	ldrb.w	r9, [sp, #104]	@ 0x68
100031b2:	9303      	str	r3, [sp, #12]
100031b4:	4599      	cmp	r9, r3
100031b6:	fa1f fc81 	uxth.w	ip, r1
100031ba:	ea4f 1202 	mov.w	r2, r2, lsl #4
100031be:	d06c      	beq.n	1000329a <drawCharBig+0xf2>
100031c0:	4b60      	ldr	r3, [pc, #384]	@ (10003344 <drawCharBig+0x19c>)
100031c2:	f240 267f 	movw	r6, #639	@ 0x27f
100031c6:	eb02 0803 	add.w	r8, r2, r3
100031ca:	f10c 030f 	add.w	r3, ip, #15
100031ce:	b299      	uxth	r1, r3
100031d0:	460d      	mov	r5, r1
100031d2:	ea4f 1309 	mov.w	r3, r9, lsl #4
100031d6:	fa1f fb80 	uxth.w	fp, r0
100031da:	9304      	str	r3, [sp, #16]
100031dc:	9b03      	ldr	r3, [sp, #12]
100031de:	f10b 0408 	add.w	r4, fp, #8
100031e2:	f8df e164 	ldr.w	lr, [pc, #356]	@ 10003348 <drawCharBig+0x1a0>
100031e6:	b2a4      	uxth	r4, r4
100031e8:	ea4f 1a03 	mov.w	sl, r3, lsl #4
100031ec:	f818 2f01 	ldrb.w	r2, [r8, #1]!
100031f0:	f5bc 7ff0 	cmp.w	ip, #480	@ 0x1e0
100031f4:	eb0c 008c 	add.w	r0, ip, ip, lsl #2
100031f8:	bf34      	ite	cc
100031fa:	2700      	movcc	r7, #0
100031fc:	2701      	movcs	r7, #1
100031fe:	465b      	mov	r3, fp
10003200:	e9cd 8c00 	strd	r8, ip, [sp]
10003204:	01c0      	lsls	r0, r0, #7
10003206:	9502      	str	r5, [sp, #8]
10003208:	e017      	b.n	1000323a <drawCharBig+0x92>
1000320a:	42b3      	cmp	r3, r6
1000320c:	d80f      	bhi.n	1000322e <drawCharBig+0x86>
1000320e:	b977      	cbnz	r7, 1000322e <drawCharBig+0x86>
10003210:	eb03 0800 	add.w	r8, r3, r0
10003214:	ea4f 0c68 	mov.w	ip, r8, asr #1
10003218:	f018 0f01 	tst.w	r8, #1
1000321c:	f81e 100c 	ldrb.w	r1, [lr, ip]
10003220:	d028      	beq.n	10003274 <drawCharBig+0xcc>
10003222:	9d04      	ldr	r5, [sp, #16]
10003224:	f001 010f 	and.w	r1, r1, #15
10003228:	4329      	orrs	r1, r5
1000322a:	f80e 100c 	strb.w	r1, [lr, ip]
1000322e:	3301      	adds	r3, #1
10003230:	b29b      	uxth	r3, r3
10003232:	0052      	lsls	r2, r2, #1
10003234:	429c      	cmp	r4, r3
10003236:	b2d2      	uxtb	r2, r2
10003238:	d023      	beq.n	10003282 <drawCharBig+0xda>
1000323a:	0611      	lsls	r1, r2, #24
1000323c:	d5e5      	bpl.n	1000320a <drawCharBig+0x62>
1000323e:	42b3      	cmp	r3, r6
10003240:	d8f5      	bhi.n	1000322e <drawCharBig+0x86>
10003242:	2f00      	cmp	r7, #0
10003244:	d1f3      	bne.n	1000322e <drawCharBig+0x86>
10003246:	eb03 0800 	add.w	r8, r3, r0
1000324a:	ea4f 0c68 	mov.w	ip, r8, asr #1
1000324e:	f018 0f01 	tst.w	r8, #1
10003252:	f81e 100c 	ldrb.w	r1, [lr, ip]
10003256:	d006      	beq.n	10003266 <drawCharBig+0xbe>
10003258:	f001 010f 	and.w	r1, r1, #15
1000325c:	ea41 010a 	orr.w	r1, r1, sl
10003260:	f80e 100c 	strb.w	r1, [lr, ip]
10003264:	e7e3      	b.n	1000322e <drawCharBig+0x86>
10003266:	9d03      	ldr	r5, [sp, #12]
10003268:	f021 010f 	bic.w	r1, r1, #15
1000326c:	4329      	orrs	r1, r5
1000326e:	f80e 100c 	strb.w	r1, [lr, ip]
10003272:	e7dc      	b.n	1000322e <drawCharBig+0x86>
10003274:	f021 010f 	bic.w	r1, r1, #15
10003278:	ea49 0101 	orr.w	r1, r9, r1
1000327c:	f80e 100c 	strb.w	r1, [lr, ip]
10003280:	e7d5      	b.n	1000322e <drawCharBig+0x86>
10003282:	9d02      	ldr	r5, [sp, #8]
10003284:	e9dd 8c00 	ldrd	r8, ip, [sp]
10003288:	f10c 0c01 	add.w	ip, ip, #1
1000328c:	fa1f fc8c 	uxth.w	ip, ip
10003290:	45ac      	cmp	ip, r5
10003292:	d1ab      	bne.n	100031ec <drawCharBig+0x44>
10003294:	b011      	add	sp, #68	@ 0x44
10003296:	e8bd 8ff0 	ldmia.w	sp!, {r4, r5, r6, r7, r8, r9, sl, fp, pc}
1000329a:	f240 237f 	movw	r3, #639	@ 0x27f
1000329e:	4c29      	ldr	r4, [pc, #164]	@ (10003344 <drawCharBig+0x19c>)
100032a0:	b286      	uxth	r6, r0
100032a2:	4414      	add	r4, r2
100032a4:	1c72      	adds	r2, r6, #1
100032a6:	b290      	uxth	r0, r2
100032a8:	429e      	cmp	r6, r3
100032aa:	bf94      	ite	ls
100032ac:	f04f 0b00 	movls.w	fp, #0
100032b0:	f04f 0b01 	movhi.w	fp, #1
100032b4:	4298      	cmp	r0, r3
100032b6:	900d      	str	r0, [sp, #52]	@ 0x34
100032b8:	bf94      	ite	ls
100032ba:	2000      	movls	r0, #0
100032bc:	2001      	movhi	r0, #1
100032be:	1cb2      	adds	r2, r6, #2
100032c0:	b295      	uxth	r5, r2
100032c2:	429d      	cmp	r5, r3
100032c4:	9002      	str	r0, [sp, #8]
100032c6:	bf94      	ite	ls
100032c8:	2000      	movls	r0, #0
100032ca:	2001      	movhi	r0, #1
100032cc:	1cf2      	adds	r2, r6, #3
100032ce:	b292      	uxth	r2, r2
100032d0:	9205      	str	r2, [sp, #20]
100032d2:	1d32      	adds	r2, r6, #4
100032d4:	b291      	uxth	r1, r2
100032d6:	1d72      	adds	r2, r6, #5
100032d8:	9107      	str	r1, [sp, #28]
100032da:	b291      	uxth	r1, r2
100032dc:	1db2      	adds	r2, r6, #6
100032de:	9109      	str	r1, [sp, #36]	@ 0x24
100032e0:	b291      	uxth	r1, r2
100032e2:	1df2      	adds	r2, r6, #7
100032e4:	910b      	str	r1, [sp, #44]	@ 0x2c
100032e6:	b291      	uxth	r1, r2
100032e8:	9a03      	ldr	r2, [sp, #12]
100032ea:	9004      	str	r0, [sp, #16]
100032ec:	ea4f 1e02 	mov.w	lr, r2, lsl #4
100032f0:	9a05      	ldr	r2, [sp, #20]
100032f2:	9101      	str	r1, [sp, #4]
100032f4:	429a      	cmp	r2, r3
100032f6:	bf94      	ite	ls
100032f8:	2000      	movls	r0, #0
100032fa:	2001      	movhi	r0, #1
100032fc:	9a07      	ldr	r2, [sp, #28]
100032fe:	9006      	str	r0, [sp, #24]
10003300:	429a      	cmp	r2, r3
10003302:	bf94      	ite	ls
10003304:	2000      	movls	r0, #0
10003306:	2001      	movhi	r0, #1
10003308:	9a09      	ldr	r2, [sp, #36]	@ 0x24
1000330a:	9008      	str	r0, [sp, #32]
1000330c:	429a      	cmp	r2, r3
1000330e:	bf94      	ite	ls
10003310:	2000      	movls	r0, #0
10003312:	2001      	movhi	r0, #1
10003314:	9a0b      	ldr	r2, [sp, #44]	@ 0x2c
10003316:	900a      	str	r0, [sp, #40]	@ 0x28
10003318:	429a      	cmp	r2, r3
1000331a:	9a01      	ldr	r2, [sp, #4]
1000331c:	bf94      	ite	ls
1000331e:	2000      	movls	r0, #0
10003320:	2001      	movhi	r0, #1
10003322:	429a      	cmp	r2, r3
10003324:	bf94      	ite	ls
10003326:	2300      	movls	r3, #0
10003328:	2301      	movhi	r3, #1
1000332a:	f10c 070f 	add.w	r7, ip, #15
1000332e:	960f      	str	r6, [sp, #60]	@ 0x3c
10003330:	f240 18df 	movw	r8, #479	@ 0x1df
10003334:	4904      	ldr	r1, [pc, #16]	@ (10003348 <drawCharBig+0x1a0>)
10003336:	9e03      	ldr	r6, [sp, #12]
10003338:	b2bf      	uxth	r7, r7
1000333a:	950e      	str	r5, [sp, #56]	@ 0x38
1000333c:	900c      	str	r0, [sp, #48]	@ 0x30
1000333e:	9300      	str	r3, [sp, #0]
10003340:	e01c      	b.n	1000337c <drawCharBig+0x1d4>
10003342:	bf00      	nop
10003344:	1000d3d7 	.word	0x1000d3d7
10003348:	20001528 	.word	0x20001528
1000334c:	065d      	lsls	r5, r3, #25
1000334e:	d43b      	bmi.n	100033c8 <drawCharBig+0x220>
10003350:	069d      	lsls	r5, r3, #26
10003352:	d453      	bmi.n	100033fc <drawCharBig+0x254>
10003354:	06dd      	lsls	r5, r3, #27
10003356:	d46b      	bmi.n	10003430 <drawCharBig+0x288>
10003358:	071d      	lsls	r5, r3, #28
1000335a:	f100 8084 	bmi.w	10003466 <drawCharBig+0x2be>
1000335e:	075d      	lsls	r5, r3, #29
10003360:	f100 809e 	bmi.w	100034a0 <drawCharBig+0x2f8>
10003364:	079d      	lsls	r5, r3, #30
10003366:	f100 80b8 	bmi.w	100034da <drawCharBig+0x332>
1000336a:	07db      	lsls	r3, r3, #31
1000336c:	f100 80d2 	bmi.w	10003514 <drawCharBig+0x36c>
10003370:	f10c 0c01 	add.w	ip, ip, #1
10003374:	fa1f fc8c 	uxth.w	ip, ip
10003378:	4567      	cmp	r7, ip
1000337a:	d08b      	beq.n	10003294 <drawCharBig+0xec>
1000337c:	f814 3f01 	ldrb.w	r3, [r4, #1]!
10003380:	45c4      	cmp	ip, r8
10003382:	bf94      	ite	ls
10003384:	2000      	movls	r0, #0
10003386:	2001      	movhi	r0, #1
10003388:	eb0c 028c 	add.w	r2, ip, ip, lsl #2
1000338c:	061d      	lsls	r5, r3, #24
1000338e:	ea4f 12c2 	mov.w	r2, r2, lsl #7
10003392:	d5db      	bpl.n	1000334c <drawCharBig+0x1a4>
10003394:	f1bb 0f00 	cmp.w	fp, #0
10003398:	d1d8      	bne.n	1000334c <drawCharBig+0x1a4>
1000339a:	2800      	cmp	r0, #0
1000339c:	d1d6      	bne.n	1000334c <drawCharBig+0x1a4>
1000339e:	9d0f      	ldr	r5, [sp, #60]	@ 0x3c
100033a0:	eb05 0a02 	add.w	sl, r5, r2
100033a4:	ea4f 096a 	mov.w	r9, sl, asr #1
100033a8:	f811 5009 	ldrb.w	r5, [r1, r9]
100033ac:	f01a 0f01 	tst.w	sl, #1
100033b0:	bf15      	itete	ne
100033b2:	f005 050f 	andne.w	r5, r5, #15
100033b6:	f025 050f 	biceq.w	r5, r5, #15
100033ba:	ea45 050e 	orrne.w	r5, r5, lr
100033be:	4335      	orreq	r5, r6
100033c0:	f801 5009 	strb.w	r5, [r1, r9]
100033c4:	065d      	lsls	r5, r3, #25
100033c6:	d5c3      	bpl.n	10003350 <drawCharBig+0x1a8>
100033c8:	2800      	cmp	r0, #0
100033ca:	d1c1      	bne.n	10003350 <drawCharBig+0x1a8>
100033cc:	9d02      	ldr	r5, [sp, #8]
100033ce:	2d00      	cmp	r5, #0
100033d0:	d1be      	bne.n	10003350 <drawCharBig+0x1a8>
100033d2:	9d0d      	ldr	r5, [sp, #52]	@ 0x34
100033d4:	eb05 0a02 	add.w	sl, r5, r2
100033d8:	ea4f 096a 	mov.w	r9, sl, asr #1
100033dc:	f811 5009 	ldrb.w	r5, [r1, r9]
100033e0:	f01a 0f01 	tst.w	sl, #1
100033e4:	bf15      	itete	ne
100033e6:	f005 050f 	andne.w	r5, r5, #15
100033ea:	f025 050f 	biceq.w	r5, r5, #15
100033ee:	ea45 050e 	orrne.w	r5, r5, lr
100033f2:	4335      	orreq	r5, r6
100033f4:	f801 5009 	strb.w	r5, [r1, r9]
100033f8:	069d      	lsls	r5, r3, #26
100033fa:	d5ab      	bpl.n	10003354 <drawCharBig+0x1ac>
100033fc:	2800      	cmp	r0, #0
100033fe:	d1a9      	bne.n	10003354 <drawCharBig+0x1ac>
10003400:	9d04      	ldr	r5, [sp, #16]
10003402:	2d00      	cmp	r5, #0
10003404:	d1a6      	bne.n	10003354 <drawCharBig+0x1ac>
10003406:	9d0e      	ldr	r5, [sp, #56]	@ 0x38
10003408:	eb05 0a02 	add.w	sl, r5, r2
1000340c:	ea4f 096a 	mov.w	r9, sl, asr #1
10003410:	f811 5009 	ldrb.w	r5, [r1, r9]
10003414:	f01a 0f01 	tst.w	sl, #1
10003418:	bf15      	itete	ne
1000341a:	f005 050f 	andne.w	r5, r5, #15
1000341e:	f025 050f 	biceq.w	r5, r5, #15
10003422:	ea45 050e 	orrne.w	r5, r5, lr
10003426:	4335      	orreq	r5, r6
10003428:	f801 5009 	strb.w	r5, [r1, r9]
1000342c:	06dd      	lsls	r5, r3, #27
1000342e:	d593      	bpl.n	10003358 <drawCharBig+0x1b0>
10003430:	2800      	cmp	r0, #0
10003432:	d191      	bne.n	10003358 <drawCharBig+0x1b0>
10003434:	9d06      	ldr	r5, [sp, #24]
10003436:	2d00      	cmp	r5, #0
10003438:	d18e      	bne.n	10003358 <drawCharBig+0x1b0>
1000343a:	9d05      	ldr	r5, [sp, #20]
1000343c:	eb05 0a02 	add.w	sl, r5, r2
10003440:	ea4f 096a 	mov.w	r9, sl, asr #1
10003444:	f811 5009 	ldrb.w	r5, [r1, r9]
10003448:	f01a 0f01 	tst.w	sl, #1
1000344c:	bf15      	itete	ne
1000344e:	f005 050f 	andne.w	r5, r5, #15
10003452:	f025 050f 	biceq.w	r5, r5, #15
10003456:	ea45 050e 	orrne.w	r5, r5, lr
1000345a:	4335      	orreq	r5, r6
1000345c:	f801 5009 	strb.w	r5, [r1, r9]
10003460:	071d      	lsls	r5, r3, #28
10003462:	f57f af7c 	bpl.w	1000335e <drawCharBig+0x1b6>
10003466:	2800      	cmp	r0, #0
10003468:	f47f af79 	bne.w	1000335e <drawCharBig+0x1b6>
1000346c:	9d08      	ldr	r5, [sp, #32]
1000346e:	2d00      	cmp	r5, #0
10003470:	f47f af75 	bne.w	1000335e <drawCharBig+0x1b6>
10003474:	9d07      	ldr	r5, [sp, #28]
10003476:	eb05 0a02 	add.w	sl, r5, r2
1000347a:	ea4f 096a 	mov.w	r9, sl, asr #1
1000347e:	f811 5009 	ldrb.w	r5, [r1, r9]
10003482:	f01a 0f01 	tst.w	sl, #1
10003486:	bf15      	itete	ne
10003488:	f005 050f 	andne.w	r5, r5, #15
1000348c:	f025 050f 	biceq.w	r5, r5, #15
10003490:	ea45 050e 	orrne.w	r5, r5, lr
10003494:	4335      	orreq	r5, r6
10003496:	f801 5009 	strb.w	r5, [r1, r9]
1000349a:	075d      	lsls	r5, r3, #29
1000349c:	f57f af62 	bpl.w	10003364 <drawCharBig+0x1bc>
100034a0:	2800      	cmp	r0, #0
100034a2:	f47f af5f 	bne.w	10003364 <drawCharBig+0x1bc>
100034a6:	9d0a      	ldr	r5, [sp, #40]	@ 0x28
100034a8:	2d00      	cmp	r5, #0
100034aa:	f47f af5b 	bne.w	10003364 <drawCharBig+0x1bc>
100034ae:	9d09      	ldr	r5, [sp, #36]	@ 0x24
100034b0:	eb05 0a02 	add.w	sl, r5, r2
100034b4:	ea4f 096a 	mov.w	r9, sl, asr #1
100034b8:	f811 5009 	ldrb.w	r5, [r1, r9]
100034bc:	f01a 0f01 	tst.w	sl, #1
100034c0:	bf15      	itete	ne
100034c2:	f005 050f 	andne.w	r5, r5, #15
100034c6:	f025 050f 	biceq.w	r5, r5, #15
100034ca:	ea45 050e 	orrne.w	r5, r5, lr
100034ce:	4335      	orreq	r5, r6
100034d0:	f801 5009 	strb.w	r5, [r1, r9]
100034d4:	079d      	lsls	r5, r3, #30
100034d6:	f57f af48 	bpl.w	1000336a <drawCharBig+0x1c2>
100034da:	2800      	cmp	r0, #0
100034dc:	f47f af45 	bne.w	1000336a <drawCharBig+0x1c2>
100034e0:	9d0c      	ldr	r5, [sp, #48]	@ 0x30
100034e2:	2d00      	cmp	r5, #0
100034e4:	f47f af41 	bne.w	1000336a <drawCharBig+0x1c2>
100034e8:	9d0b      	ldr	r5, [sp, #44]	@ 0x2c
100034ea:	eb05 0a02 	add.w	sl, r5, r2
100034ee:	ea4f 096a 	mov.w	r9, sl, asr #1
100034f2:	f811 5009 	ldrb.w	r5, [r1, r9]
100034f6:	f01a 0f01 	tst.w	sl, #1
100034fa:	bf15      	itete	ne
100034fc:	f005 050f 	andne.w	r5, r5, #15
10003500:	f025 050f 	biceq.w	r5, r5, #15
10003504:	ea45 050e 	orrne.w	r5, r5, lr
10003508:	4335      	orreq	r5, r6
1000350a:	07db      	lsls	r3, r3, #31
1000350c:	f801 5009 	strb.w	r5, [r1, r9]
10003510:	f57f af2e 	bpl.w	10003370 <drawCharBig+0x1c8>
10003514:	9b00      	ldr	r3, [sp, #0]
10003516:	2b00      	cmp	r3, #0
10003518:	f47f af2a 	bne.w	10003370 <drawCharBig+0x1c8>
1000351c:	2800      	cmp	r0, #0
1000351e:	f47f af27 	bne.w	10003370 <drawCharBig+0x1c8>
10003522:	9b01      	ldr	r3, [sp, #4]
10003524:	441a      	add	r2, r3
10003526:	1050      	asrs	r0, r2, #1
10003528:	5c0b      	ldrb	r3, [r1, r0]
1000352a:	07d5      	lsls	r5, r2, #31
1000352c:	bf55      	itete	pl
1000352e:	f023 030f 	bicpl.w	r3, r3, #15
10003532:	f003 030f 	andmi.w	r3, r3, #15
10003536:	4333      	orrpl	r3, r6
10003538:	ea43 030e 	orrmi.w	r3, r3, lr
1000353c:	540b      	strb	r3, [r1, r0]
1000353e:	e717      	b.n	10003370 <drawCharBig+0x1c8>

10003540 <writeStringBig>:
10003540:	7802      	ldrb	r2, [r0, #0]
10003542:	b1fa      	cbz	r2, 10003584 <writeStringBig+0x44>
10003544:	e92d 41f0 	stmdb	sp!, {r4, r5, r6, r7, r8, lr}
10003548:	4d0f      	ldr	r5, [pc, #60]	@ (10003588 <writeStringBig+0x48>)
1000354a:	4604      	mov	r4, r0
1000354c:	f8df 8044 	ldr.w	r8, [pc, #68]	@ 10003594 <writeStringBig+0x54>
10003550:	8828      	ldrh	r0, [r5, #0]
10003552:	4f0e      	ldr	r7, [pc, #56]	@ (1000358c <writeStringBig+0x4c>)
10003554:	4e0e      	ldr	r6, [pc, #56]	@ (10003590 <writeStringBig+0x50>)
10003556:	b082      	sub	sp, #8
10003558:	f896 c000 	ldrb.w	ip, [r6]
1000355c:	f898 3000 	ldrb.w	r3, [r8]
10003560:	f9b7 1000 	ldrsh.w	r1, [r7]
10003564:	b200      	sxth	r0, r0
10003566:	f8cd c000 	str.w	ip, [sp]
1000356a:	f7ff fe1d 	bl	100031a8 <drawCharBig>
1000356e:	8828      	ldrh	r0, [r5, #0]
10003570:	3008      	adds	r0, #8
10003572:	b280      	uxth	r0, r0
10003574:	8028      	strh	r0, [r5, #0]
10003576:	f814 2f01 	ldrb.w	r2, [r4, #1]!
1000357a:	2a00      	cmp	r2, #0
1000357c:	d1ec      	bne.n	10003558 <writeStringBig+0x18>
1000357e:	b002      	add	sp, #8
10003580:	e8bd 81f0 	ldmia.w	sp!, {r4, r5, r6, r7, r8, pc}
10003584:	4770      	bx	lr
10003586:	bf00      	nop
10003588:	20026d2a 	.word	0x20026d2a
1000358c:	20026d2c 	.word	0x20026d2c
10003590:	20026d34 	.word	0x20026d34
10003594:	20026d35 	.word	0x20026d35

10003598 <writeStringBold>:
10003598:	e92d 4ff0 	stmdb	sp!, {r4, r5, r6, r7, r8, r9, sl, fp, lr}
1000359c:	f8df 8128 	ldr.w	r8, [pc, #296]	@ 100036c8 <writeStringBold+0x130>
100035a0:	f890 9000 	ldrb.w	r9, [r0]
100035a4:	f898 b000 	ldrb.w	fp, [r8]
100035a8:	b085      	sub	sp, #20
100035aa:	f1b9 0f00 	cmp.w	r9, #0
100035ae:	d07d      	beq.n	100036ac <writeStringBold+0x114>
100035b0:	4e41      	ldr	r6, [pc, #260]	@ (100036b8 <writeStringBold+0x120>)
100035b2:	4b42      	ldr	r3, [pc, #264]	@ (100036bc <writeStringBold+0x124>)
100035b4:	4605      	mov	r5, r0
100035b6:	46da      	mov	sl, fp
100035b8:	f8b6 c000 	ldrh.w	ip, [r6]
100035bc:	881c      	ldrh	r4, [r3, #0]
100035be:	4f40      	ldr	r7, [pc, #256]	@ (100036c0 <writeStringBold+0x128>)
100035c0:	f8cd b00c 	str.w	fp, [sp, #12]
100035c4:	e056      	b.n	10003674 <writeStringBold+0xdc>
100035c6:	f5b1 7ff0 	cmp.w	r1, #480	@ 0x1e0
100035ca:	da45      	bge.n	10003658 <writeStringBold+0xc0>
100035cc:	fa5f fe84 	uxtb.w	lr, r4
100035d0:	eb0e 0e4e 	add.w	lr, lr, lr, lsl #1
100035d4:	eb00 0b4e 	add.w	fp, r0, lr, lsl #1
100035d8:	4b3a      	ldr	r3, [pc, #232]	@ (100036c4 <writeStringBold+0x12c>)
100035da:	f1bb 0f00 	cmp.w	fp, #0
100035de:	781b      	ldrb	r3, [r3, #0]
100035e0:	ea4f 0e4e 	mov.w	lr, lr, lsl #1
100035e4:	b2e2      	uxtb	r2, r4
100035e6:	dd56      	ble.n	10003696 <writeStringBold+0xfe>
100035e8:	f04f 0b08 	mov.w	fp, #8
100035ec:	fb12 1b0b 	smlabb	fp, r2, fp, r1
100035f0:	f1bb 0f00 	cmp.w	fp, #0
100035f4:	dd4f      	ble.n	10003696 <writeStringBold+0xfe>
100035f6:	e9cd a200 	strd	sl, r2, [sp]
100035fa:	464a      	mov	r2, r9
100035fc:	f7fd ff34 	bl	10001468 <drawChar.part.0>
10003600:	f8b6 c000 	ldrh.w	ip, [r6]
10003604:	4a2d      	ldr	r2, [pc, #180]	@ (100036bc <writeStringBold+0x124>)
10003606:	f10c 0001 	add.w	r0, ip, #1
1000360a:	b200      	sxth	r0, r0
1000360c:	f5b0 7f20 	cmp.w	r0, #640	@ 0x280
10003610:	8814      	ldrh	r4, [r2, #0]
10003612:	da21      	bge.n	10003658 <writeStringBold+0xc0>
10003614:	f9b7 1000 	ldrsh.w	r1, [r7]
10003618:	f5b1 7ff0 	cmp.w	r1, #480	@ 0x1e0
1000361c:	da1c      	bge.n	10003658 <writeStringBold+0xc0>
1000361e:	4b29      	ldr	r3, [pc, #164]	@ (100036c4 <writeStringBold+0x12c>)
10003620:	fa5f fe84 	uxtb.w	lr, r4
10003624:	eb0e 0e4e 	add.w	lr, lr, lr, lsl #1
10003628:	781b      	ldrb	r3, [r3, #0]
1000362a:	ea4f 0e4e 	mov.w	lr, lr, lsl #1
1000362e:	b2e2      	uxtb	r2, r4
10003630:	4486      	add	lr, r0
10003632:	f1be 0f00 	cmp.w	lr, #0
10003636:	dd0f      	ble.n	10003658 <writeStringBold+0xc0>
10003638:	f04f 0e08 	mov.w	lr, #8
1000363c:	fb12 1e0e 	smlabb	lr, r2, lr, r1
10003640:	f1be 0f00 	cmp.w	lr, #0
10003644:	dd08      	ble.n	10003658 <writeStringBold+0xc0>
10003646:	9201      	str	r2, [sp, #4]
10003648:	9300      	str	r3, [sp, #0]
1000364a:	464a      	mov	r2, r9
1000364c:	f7fd ff0c 	bl	10001468 <drawChar.part.0>
10003650:	4b1a      	ldr	r3, [pc, #104]	@ (100036bc <writeStringBold+0x124>)
10003652:	f8b6 c000 	ldrh.w	ip, [r6]
10003656:	881c      	ldrh	r4, [r3, #0]
10003658:	ebc4 03c4 	rsb	r3, r4, r4, lsl #3
1000365c:	4463      	add	r3, ip
1000365e:	fa1f fc83 	uxth.w	ip, r3
10003662:	f8a6 c000 	strh.w	ip, [r6]
10003666:	f815 9f01 	ldrb.w	r9, [r5, #1]!
1000366a:	f1b9 0f00 	cmp.w	r9, #0
1000366e:	d01b      	beq.n	100036a8 <writeStringBold+0x110>
10003670:	f898 a000 	ldrb.w	sl, [r8]
10003674:	fa0f f08c 	sxth.w	r0, ip
10003678:	f5b0 7f20 	cmp.w	r0, #640	@ 0x280
1000367c:	f9b7 1000 	ldrsh.w	r1, [r7]
10003680:	dba1      	blt.n	100035c6 <writeStringBold+0x2e>
10003682:	f10c 0301 	add.w	r3, ip, #1
10003686:	b21b      	sxth	r3, r3
10003688:	f5b3 7f20 	cmp.w	r3, #640	@ 0x280
1000368c:	f647 73ff 	movw	r3, #32767	@ 0x7fff
10003690:	bfb8      	it	lt
10003692:	469c      	movlt	ip, r3
10003694:	e7e0      	b.n	10003658 <writeStringBold+0xc0>
10003696:	f10c 0001 	add.w	r0, ip, #1
1000369a:	b200      	sxth	r0, r0
1000369c:	f5b0 7f20 	cmp.w	r0, #640	@ 0x280
100036a0:	d1c6      	bne.n	10003630 <writeStringBold+0x98>
100036a2:	f240 2c7f 	movw	ip, #639	@ 0x27f
100036a6:	e7d7      	b.n	10003658 <writeStringBold+0xc0>
100036a8:	f8dd b00c 	ldr.w	fp, [sp, #12]
100036ac:	f888 b000 	strb.w	fp, [r8]
100036b0:	b005      	add	sp, #20
100036b2:	e8bd 8ff0 	ldmia.w	sp!, {r4, r5, r6, r7, r8, r9, sl, fp, pc}
100036b6:	bf00      	nop
100036b8:	20026d2a 	.word	0x20026d2a
100036bc:	20026d30 	.word	0x20026d30
100036c0:	20026d2c 	.word	0x20026d2c
100036c4:	20026d35 	.word	0x20026d35
100036c8:	20026d34 	.word	0x20026d34

100036cc <clearRect>:
100036cc:	b570      	push	{r4, r5, r6, lr}
100036ce:	4299      	cmp	r1, r3
100036d0:	f9bd 6010 	ldrsh.w	r6, [sp, #16]
100036d4:	da1d      	bge.n	10003712 <clearRect+0x46>
100036d6:	440b      	add	r3, r1
100036d8:	eb03 0483 	add.w	r4, r3, r3, lsl #2
100036dc:	f44f 73a0 	mov.w	r3, #320	@ 0x140
100036e0:	1a12      	subs	r2, r2, r0
100036e2:	1040      	asrs	r0, r0, #1
100036e4:	fb11 0303 	smlabb	r3, r1, r3, r0
100036e8:	1055      	asrs	r5, r2, #1
100036ea:	4a0a      	ldr	r2, [pc, #40]	@ (10003714 <clearRect+0x48>)
100036ec:	eb01 0c81 	add.w	ip, r1, r1, lsl #2
100036f0:	4410      	add	r0, r2
100036f2:	eb00 1484 	add.w	r4, r0, r4, lsl #6
100036f6:	ea46 1606 	orr.w	r6, r6, r6, lsl #4
100036fa:	eba4 148c 	sub.w	r4, r4, ip, lsl #6
100036fe:	4413      	add	r3, r2
10003700:	4618      	mov	r0, r3
10003702:	462a      	mov	r2, r5
10003704:	4631      	mov	r1, r6
10003706:	f004 faa7 	bl	10007c58 <memset>
1000370a:	f500 73a0 	add.w	r3, r0, #320	@ 0x140
1000370e:	42a3      	cmp	r3, r4
10003710:	d1f6      	bne.n	10003700 <clearRect+0x34>
10003712:	bd70      	pop	{r4, r5, r6, pc}
10003714:	20001528 	.word	0x20001528

10003718 <clearLowFrame>:
10003718:	eb00 0080 	add.w	r0, r0, r0, lsl #2
1000371c:	4b04      	ldr	r3, [pc, #16]	@ (10003730 <clearLowFrame+0x18>)
1000371e:	0182      	lsls	r2, r0, #6
10003720:	f5c2 3216 	rsb	r2, r2, #153600	@ 0x25800
10003724:	ea41 1101 	orr.w	r1, r1, r1, lsl #4
10003728:	eb03 1080 	add.w	r0, r3, r0, lsl #6
1000372c:	f004 ba94 	b.w	10007c58 <memset>
10003730:	20001528 	.word	0x20001528

10003734 <crosshair>:
10003734:	e92d 4ff0 	stmdb	sp!, {r4, r5, r6, r7, r8, r9, sl, fp, lr}
10003738:	fa1f fe80 	uxth.w	lr, r0
1000373c:	f5be 7f20 	cmp.w	lr, #640	@ 0x280
10003740:	bf34      	ite	cc
10003742:	2500      	movcc	r5, #0
10003744:	2501      	movcs	r5, #1
10003746:	fa1f fc81 	uxth.w	ip, r1
1000374a:	f5bc 7ff0 	cmp.w	ip, #480	@ 0x1e0
1000374e:	f10e 37ff 	add.w	r7, lr, #4294967295	@ 0xffffffff
10003752:	bf34      	ite	cc
10003754:	2600      	movcc	r6, #0
10003756:	2601      	movcs	r6, #1
10003758:	b2d2      	uxtb	r2, r2
1000375a:	b2bf      	uxth	r7, r7
1000375c:	2d00      	cmp	r5, #0
1000375e:	f040 8109 	bne.w	10003974 <crosshair+0x240>
10003762:	2e00      	cmp	r6, #0
10003764:	f040 8106 	bne.w	10003974 <crosshair+0x240>
10003768:	eb01 0481 	add.w	r4, r1, r1, lsl #2
1000376c:	eb00 1ac4 	add.w	sl, r0, r4, lsl #7
10003770:	4ba6      	ldr	r3, [pc, #664]	@ (10003a0c <crosshair+0x2d8>)
10003772:	ea4f 096a 	mov.w	r9, sl, asr #1
10003776:	f01a 0f01 	tst.w	sl, #1
1000377a:	f813 8009 	ldrb.w	r8, [r3, r9]
1000377e:	ea4f 14c4 	mov.w	r4, r4, lsl #7
10003782:	f000 80ce 	beq.w	10003922 <crosshair+0x1ee>
10003786:	f008 080f 	and.w	r8, r8, #15
1000378a:	ea48 1802 	orr.w	r8, r8, r2, lsl #4
1000378e:	443c      	add	r4, r7
10003790:	f803 8009 	strb.w	r8, [r3, r9]
10003794:	ea4f 0864 	mov.w	r8, r4, asr #1
10003798:	f813 4008 	ldrb.w	r4, [r3, r8]
1000379c:	f024 040f 	bic.w	r4, r4, #15
100037a0:	4314      	orrs	r4, r2
100037a2:	f803 4008 	strb.w	r4, [r3, r8]
100037a6:	f10e 0301 	add.w	r3, lr, #1
100037aa:	b29b      	uxth	r3, r3
100037ac:	f5b3 7f20 	cmp.w	r3, #640	@ 0x280
100037b0:	d213      	bcs.n	100037da <crosshair+0xa6>
100037b2:	b996      	cbnz	r6, 100037da <crosshair+0xa6>
100037b4:	f44f 7820 	mov.w	r8, #640	@ 0x280
100037b8:	fb11 3808 	smlabb	r8, r1, r8, r3
100037bc:	4b93      	ldr	r3, [pc, #588]	@ (10003a0c <crosshair+0x2d8>)
100037be:	ea4f 0768 	mov.w	r7, r8, asr #1
100037c2:	5ddc      	ldrb	r4, [r3, r7]
100037c4:	f018 0f01 	tst.w	r8, #1
100037c8:	bf15      	itete	ne
100037ca:	f004 040f 	andne.w	r4, r4, #15
100037ce:	f024 040f 	biceq.w	r4, r4, #15
100037d2:	ea44 1402 	orrne.w	r4, r4, r2, lsl #4
100037d6:	4314      	orreq	r4, r2
100037d8:	55dc      	strb	r4, [r3, r7]
100037da:	f10c 33ff 	add.w	r3, ip, #4294967295	@ 0xffffffff
100037de:	b29b      	uxth	r3, r3
100037e0:	f5b3 7ff0 	cmp.w	r3, #480	@ 0x1e0
100037e4:	d214      	bcs.n	10003810 <crosshair+0xdc>
100037e6:	b99d      	cbnz	r5, 10003810 <crosshair+0xdc>
100037e8:	f44f 7420 	mov.w	r4, #640	@ 0x280
100037ec:	fb13 0404 	smlabb	r4, r3, r4, r0
100037f0:	4b86      	ldr	r3, [pc, #536]	@ (10003a0c <crosshair+0x2d8>)
100037f2:	ea4f 0864 	mov.w	r8, r4, asr #1
100037f6:	f813 7008 	ldrb.w	r7, [r3, r8]
100037fa:	07e4      	lsls	r4, r4, #31
100037fc:	bf4b      	itete	mi
100037fe:	f007 070f 	andmi.w	r7, r7, #15
10003802:	f027 070f 	bicpl.w	r7, r7, #15
10003806:	ea47 1702 	orrmi.w	r7, r7, r2, lsl #4
1000380a:	4317      	orrpl	r7, r2
1000380c:	f803 7008 	strb.w	r7, [r3, r8]
10003810:	f10c 0301 	add.w	r3, ip, #1
10003814:	b21c      	sxth	r4, r3
10003816:	f3c3 37c0 	ubfx	r7, r3, #15, #1
1000381a:	f5b4 7ff0 	cmp.w	r4, #480	@ 0x1e0
1000381e:	bfa8      	it	ge
10003820:	f047 0701 	orrge.w	r7, r7, #1
10003824:	f1ae 0802 	sub.w	r8, lr, #2
10003828:	fa1f f888 	uxth.w	r8, r8
1000382c:	f5b8 7f20 	cmp.w	r8, #640	@ 0x280
10003830:	bf34      	ite	cc
10003832:	46b1      	movcc	r9, r6
10003834:	f046 0901 	orrcs.w	r9, r6, #1
10003838:	b29c      	uxth	r4, r3
1000383a:	2f00      	cmp	r7, #0
1000383c:	f040 808e 	bne.w	1000395c <crosshair+0x228>
10003840:	2d00      	cmp	r5, #0
10003842:	f040 808b 	bne.w	1000395c <crosshair+0x228>
10003846:	f44f 7720 	mov.w	r7, #640	@ 0x280
1000384a:	fb14 0407 	smlabb	r4, r4, r7, r0
1000384e:	4b6f      	ldr	r3, [pc, #444]	@ (10003a0c <crosshair+0x2d8>)
10003850:	ea4f 0b64 	mov.w	fp, r4, asr #1
10003854:	07e4      	lsls	r4, r4, #31
10003856:	f813 a00b 	ldrb.w	sl, [r3, fp]
1000385a:	f140 80b9 	bpl.w	100039d0 <crosshair+0x29c>
1000385e:	f00a 040f 	and.w	r4, sl, #15
10003862:	ea4f 1a02 	mov.w	sl, r2, lsl #4
10003866:	fa5f fa8a 	uxtb.w	sl, sl
1000386a:	ea4a 0404 	orr.w	r4, sl, r4
1000386e:	f803 400b 	strb.w	r4, [r3, fp]
10003872:	f1b9 0f00 	cmp.w	r9, #0
10003876:	d108      	bne.n	1000388a <crosshair+0x156>
10003878:	fb11 8407 	smlabb	r4, r1, r7, r8
1000387c:	1064      	asrs	r4, r4, #1
1000387e:	5d1f      	ldrb	r7, [r3, r4]
10003880:	f007 070f 	and.w	r7, r7, #15
10003884:	ea4a 0707 	orr.w	r7, sl, r7
10003888:	551f      	strb	r7, [r3, r4]
1000388a:	f10e 0e02 	add.w	lr, lr, #2
1000388e:	fa1f fe8e 	uxth.w	lr, lr
10003892:	f5be 7f20 	cmp.w	lr, #640	@ 0x280
10003896:	d211      	bcs.n	100038bc <crosshair+0x188>
10003898:	b986      	cbnz	r6, 100038bc <crosshair+0x188>
1000389a:	f44f 7420 	mov.w	r4, #640	@ 0x280
1000389e:	fb11 e404 	smlabb	r4, r1, r4, lr
100038a2:	4b5a      	ldr	r3, [pc, #360]	@ (10003a0c <crosshair+0x2d8>)
100038a4:	1066      	asrs	r6, r4, #1
100038a6:	5d99      	ldrb	r1, [r3, r6]
100038a8:	07e4      	lsls	r4, r4, #31
100038aa:	bf4b      	itete	mi
100038ac:	f001 010f 	andmi.w	r1, r1, #15
100038b0:	f021 010f 	bicpl.w	r1, r1, #15
100038b4:	ea41 1102 	orrmi.w	r1, r1, r2, lsl #4
100038b8:	4311      	orrpl	r1, r2
100038ba:	5599      	strb	r1, [r3, r6]
100038bc:	f240 13df 	movw	r3, #479	@ 0x1df
100038c0:	f1ac 0102 	sub.w	r1, ip, #2
100038c4:	f10c 0c02 	add.w	ip, ip, #2
100038c8:	fa0f f68c 	sxth.w	r6, ip
100038cc:	f3cc 34c0 	ubfx	r4, ip, #15, #1
100038d0:	429e      	cmp	r6, r3
100038d2:	bfc8      	it	gt
100038d4:	f044 0401 	orrgt.w	r4, r4, #1
100038d8:	b289      	uxth	r1, r1
100038da:	4299      	cmp	r1, r3
100038dc:	fa1f fc8c 	uxth.w	ip, ip
100038e0:	ea44 0405 	orr.w	r4, r4, r5
100038e4:	d830      	bhi.n	10003948 <crosshair+0x214>
100038e6:	bb7d      	cbnz	r5, 10003948 <crosshair+0x214>
100038e8:	f44f 7620 	mov.w	r6, #640	@ 0x280
100038ec:	fb11 0106 	smlabb	r1, r1, r6, r0
100038f0:	4b46      	ldr	r3, [pc, #280]	@ (10003a0c <crosshair+0x2d8>)
100038f2:	104f      	asrs	r7, r1, #1
100038f4:	07c9      	lsls	r1, r1, #31
100038f6:	5ddd      	ldrb	r5, [r3, r7]
100038f8:	d557      	bpl.n	100039aa <crosshair+0x276>
100038fa:	0112      	lsls	r2, r2, #4
100038fc:	b2d2      	uxtb	r2, r2
100038fe:	f005 050f 	and.w	r5, r5, #15
10003902:	4315      	orrs	r5, r2
10003904:	55dd      	strb	r5, [r3, r7]
10003906:	b954      	cbnz	r4, 1000391e <crosshair+0x1ea>
10003908:	fb1c 0c06 	smlabb	ip, ip, r6, r0
1000390c:	ea4f 0c6c 	mov.w	ip, ip, asr #1
10003910:	f813 100c 	ldrb.w	r1, [r3, ip]
10003914:	f001 010f 	and.w	r1, r1, #15
10003918:	430a      	orrs	r2, r1
1000391a:	f803 200c 	strb.w	r2, [r3, ip]
1000391e:	e8bd 8ff0 	ldmia.w	sp!, {r4, r5, r6, r7, r8, r9, sl, fp, pc}
10003922:	f028 080f 	bic.w	r8, r8, #15
10003926:	ea42 0808 	orr.w	r8, r2, r8
1000392a:	f5b7 7f20 	cmp.w	r7, #640	@ 0x280
1000392e:	f803 8009 	strb.w	r8, [r3, r9]
10003932:	f4bf af38 	bcs.w	100037a6 <crosshair+0x72>
10003936:	f44f 7920 	mov.w	r9, #640	@ 0x280
1000393a:	fb11 7909 	smlabb	r9, r1, r9, r7
1000393e:	ea4f 0969 	mov.w	r9, r9, asr #1
10003942:	f813 7009 	ldrb.w	r7, [r3, r9]
10003946:	e029      	b.n	1000399c <crosshair+0x268>
10003948:	2c00      	cmp	r4, #0
1000394a:	d1e8      	bne.n	1000391e <crosshair+0x1ea>
1000394c:	f44f 7320 	mov.w	r3, #640	@ 0x280
10003950:	fb1c 0c03 	smlabb	ip, ip, r3, r0
10003954:	07c3      	lsls	r3, r0, #31
10003956:	d44e      	bmi.n	100039f6 <crosshair+0x2c2>
10003958:	4b2c      	ldr	r3, [pc, #176]	@ (10003a0c <crosshair+0x2d8>)
1000395a:	e02e      	b.n	100039ba <crosshair+0x286>
1000395c:	f1b9 0f00 	cmp.w	r9, #0
10003960:	d193      	bne.n	1000388a <crosshair+0x156>
10003962:	f44f 7420 	mov.w	r4, #640	@ 0x280
10003966:	f018 0f01 	tst.w	r8, #1
1000396a:	fb11 8404 	smlabb	r4, r1, r4, r8
1000396e:	d146      	bne.n	100039fe <crosshair+0x2ca>
10003970:	4b26      	ldr	r3, [pc, #152]	@ (10003a0c <crosshair+0x2d8>)
10003972:	e039      	b.n	100039e8 <crosshair+0x2b4>
10003974:	f5b7 7f20 	cmp.w	r7, #640	@ 0x280
10003978:	f4bf af15 	bcs.w	100037a6 <crosshair+0x72>
1000397c:	2e00      	cmp	r6, #0
1000397e:	f47f af12 	bne.w	100037a6 <crosshair+0x72>
10003982:	f44f 7420 	mov.w	r4, #640	@ 0x280
10003986:	fb11 7404 	smlabb	r4, r1, r4, r7
1000398a:	4b20      	ldr	r3, [pc, #128]	@ (10003a0c <crosshair+0x2d8>)
1000398c:	ea4f 0864 	mov.w	r8, r4, asr #1
10003990:	07e4      	lsls	r4, r4, #31
10003992:	46c1      	mov	r9, r8
10003994:	f813 7008 	ldrb.w	r7, [r3, r8]
10003998:	f57f aefe 	bpl.w	10003798 <crosshair+0x64>
1000399c:	f007 040f 	and.w	r4, r7, #15
100039a0:	ea44 1402 	orr.w	r4, r4, r2, lsl #4
100039a4:	f803 4009 	strb.w	r4, [r3, r9]
100039a8:	e6fd      	b.n	100037a6 <crosshair+0x72>
100039aa:	f025 050f 	bic.w	r5, r5, #15
100039ae:	4315      	orrs	r5, r2
100039b0:	55dd      	strb	r5, [r3, r7]
100039b2:	2c00      	cmp	r4, #0
100039b4:	d1b3      	bne.n	1000391e <crosshair+0x1ea>
100039b6:	fb1c 0c06 	smlabb	ip, ip, r6, r0
100039ba:	ea4f 0c6c 	mov.w	ip, ip, asr #1
100039be:	f813 100c 	ldrb.w	r1, [r3, ip]
100039c2:	f021 010f 	bic.w	r1, r1, #15
100039c6:	430a      	orrs	r2, r1
100039c8:	f803 200c 	strb.w	r2, [r3, ip]
100039cc:	e8bd 8ff0 	ldmia.w	sp!, {r4, r5, r6, r7, r8, r9, sl, fp, pc}
100039d0:	f02a 0a0f 	bic.w	sl, sl, #15
100039d4:	ea42 0a0a 	orr.w	sl, r2, sl
100039d8:	f803 a00b 	strb.w	sl, [r3, fp]
100039dc:	f1b9 0f00 	cmp.w	r9, #0
100039e0:	f47f af53 	bne.w	1000388a <crosshair+0x156>
100039e4:	fb11 8407 	smlabb	r4, r1, r7, r8
100039e8:	1064      	asrs	r4, r4, #1
100039ea:	5d1f      	ldrb	r7, [r3, r4]
100039ec:	f027 070f 	bic.w	r7, r7, #15
100039f0:	4317      	orrs	r7, r2
100039f2:	551f      	strb	r7, [r3, r4]
100039f4:	e749      	b.n	1000388a <crosshair+0x156>
100039f6:	0112      	lsls	r2, r2, #4
100039f8:	4b04      	ldr	r3, [pc, #16]	@ (10003a0c <crosshair+0x2d8>)
100039fa:	b2d2      	uxtb	r2, r2
100039fc:	e786      	b.n	1000390c <crosshair+0x1d8>
100039fe:	ea4f 1a02 	mov.w	sl, r2, lsl #4
10003a02:	4b02      	ldr	r3, [pc, #8]	@ (10003a0c <crosshair+0x2d8>)
10003a04:	fa5f fa8a 	uxtb.w	sl, sl
10003a08:	e738      	b.n	1000387c <crosshair+0x148>
10003a0a:	bf00      	nop
10003a0c:	20001528 	.word	0x20001528

10003a10 <gpio_set_function>:
10003a10:	b410      	push	{r4}
10003a12:	f44f 7480 	mov.w	r4, #256	@ 0x100
10003a16:	4b0c      	ldr	r3, [pc, #48]	@ (10003a48 <gpio_set_function+0x38>)
10003a18:	f853 2020 	ldr.w	r2, [r3, r0, lsl #2]
10003a1c:	eb03 0380 	add.w	r3, r3, r0, lsl #2
10003a20:	00c0      	lsls	r0, r0, #3
10003a22:	f082 0240 	eor.w	r2, r2, #64	@ 0x40
10003a26:	f100 4080 	add.w	r0, r0, #1073741824	@ 0x40000000
10003a2a:	f503 5c80 	add.w	ip, r3, #4096	@ 0x1000
10003a2e:	f002 02c0 	and.w	r2, r2, #192	@ 0xc0
10003a32:	f500 3020 	add.w	r0, r0, #163840	@ 0x28000
10003a36:	f503 5340 	add.w	r3, r3, #12288	@ 0x3000
10003a3a:	f8cc 2000 	str.w	r2, [ip]
10003a3e:	6041      	str	r1, [r0, #4]
10003a40:	601c      	str	r4, [r3, #0]
10003a42:	f85d 4b04 	ldr.w	r4, [sp], #4
10003a46:	4770      	bx	lr
10003a48:	40038004 	.word	0x40038004

10003a4c <gpio_init>:
10003a4c:	b430      	push	{r4, r5}
10003a4e:	f04f 0300 	mov.w	r3, #0
10003a52:	ec43 0044 	gpioc_bit_oe_put r0, r3
10003a56:	ec43 0040 	gpioc_bit_out_put r0, r3
10003a5a:	2505      	movs	r5, #5
10003a5c:	f44f 7480 	mov.w	r4, #256	@ 0x100
10003a60:	4b0b      	ldr	r3, [pc, #44]	@ (10003a90 <gpio_init+0x44>)
10003a62:	00c2      	lsls	r2, r0, #3
10003a64:	f853 1020 	ldr.w	r1, [r3, r0, lsl #2]
10003a68:	eb03 0080 	add.w	r0, r3, r0, lsl #2
10003a6c:	f081 0140 	eor.w	r1, r1, #64	@ 0x40
10003a70:	f102 4380 	add.w	r3, r2, #1073741824	@ 0x40000000
10003a74:	f503 3320 	add.w	r3, r3, #163840	@ 0x28000
10003a78:	f001 02c0 	and.w	r2, r1, #192	@ 0xc0
10003a7c:	f500 5180 	add.w	r1, r0, #4096	@ 0x1000
10003a80:	f500 5040 	add.w	r0, r0, #12288	@ 0x3000
10003a84:	600a      	str	r2, [r1, #0]
10003a86:	605d      	str	r5, [r3, #4]
10003a88:	6004      	str	r4, [r0, #0]
10003a8a:	bc30      	pop	{r4, r5}
10003a8c:	4770      	bx	lr
10003a8e:	bf00      	nop
10003a90:	40038004 	.word	0x40038004

10003a94 <panic>:
10003a94:	b40f      	push	{r0, r1, r2, r3}
10003a96:	b500      	push	{lr}
10003a98:	b083      	sub	sp, #12
10003a9a:	9c04      	ldr	r4, [sp, #16]
10003a9c:	4807      	ldr	r0, [pc, #28]	@ (10003abc <panic+0x28>)
10003a9e:	f003 f8c3 	bl	10006c28 <__wrap_puts>
10003aa2:	b13c      	cbz	r4, 10003ab4 <panic+0x20>
10003aa4:	a905      	add	r1, sp, #20
10003aa6:	4620      	mov	r0, r4
10003aa8:	9101      	str	r1, [sp, #4]
10003aaa:	f002 ff17 	bl	100068dc <weak_raw_vprintf>
10003aae:	4804      	ldr	r0, [pc, #16]	@ (10003ac0 <panic+0x2c>)
10003ab0:	f003 f8ba 	bl	10006c28 <__wrap_puts>
10003ab4:	2001      	movs	r0, #1
10003ab6:	f002 ff29 	bl	1000690c <_exit>
10003aba:	bf00      	nop
10003abc:	1000d11c 	.word	0x1000d11c
10003ac0:	1000d12c 	.word	0x1000d12c

10003ac4 <hw_claim_lock>:
10003ac4:	f3ef 8010 	mrs	r0, PRIMASK
10003ac8:	b672      	cpsid	i
10003aca:	4b06      	ldr	r3, [pc, #24]	@ (10003ae4 <hw_claim_lock+0x20>)
10003acc:	e8d3 1fcf 	ldaexb	r1, [r3]
10003ad0:	2201      	movs	r2, #1
10003ad2:	2900      	cmp	r1, #0
10003ad4:	d1fa      	bne.n	10003acc <hw_claim_lock+0x8>
10003ad6:	e8c3 2f41 	strexb	r1, r2, [r3]
10003ada:	2900      	cmp	r1, #0
10003adc:	d1f6      	bne.n	10003acc <hw_claim_lock+0x8>
10003ade:	f3bf 8f5f 	dmb	sy
10003ae2:	4770      	bx	lr
10003ae4:	200010fb 	.word	0x200010fb

10003ae8 <hw_claim_unlock>:
10003ae8:	2300      	movs	r3, #0
10003aea:	4a03      	ldr	r2, [pc, #12]	@ (10003af8 <hw_claim_unlock+0x10>)
10003aec:	e8c2 3f8f 	stlb	r3, [r2]
10003af0:	f380 8810 	msr	PRIMASK, r0
10003af4:	4770      	bx	lr
10003af6:	bf00      	nop
10003af8:	200010fb 	.word	0x200010fb

10003afc <hw_claim_or_assert>:
10003afc:	b570      	push	{r4, r5, r6, lr}
10003afe:	4686      	mov	lr, r0
10003b00:	f3ef 8510 	mrs	r5, PRIMASK
10003b04:	b672      	cpsid	i
10003b06:	4c12      	ldr	r4, [pc, #72]	@ (10003b50 <hw_claim_or_assert+0x54>)
10003b08:	e8d4 6fcf 	ldaexb	r6, [r4]
10003b0c:	2001      	movs	r0, #1
10003b0e:	2e00      	cmp	r6, #0
10003b10:	d1fa      	bne.n	10003b08 <hw_claim_or_assert+0xc>
10003b12:	e8c4 0f46 	strexb	r6, r0, [r4]
10003b16:	2e00      	cmp	r6, #0
10003b18:	d1f6      	bne.n	10003b08 <hw_claim_or_assert+0xc>
10003b1a:	f3bf 8f5f 	dmb	sy
10003b1e:	f04f 0c01 	mov.w	ip, #1
10003b22:	08c8      	lsrs	r0, r1, #3
10003b24:	f001 0307 	and.w	r3, r1, #7
10003b28:	fa0c f303 	lsl.w	r3, ip, r3
10003b2c:	f81e c000 	ldrb.w	ip, [lr, r0]
10003b30:	ea1c 0603 	ands.w	r6, ip, r3
10003b34:	d108      	bne.n	10003b48 <hw_claim_or_assert+0x4c>
10003b36:	ea4c 0c03 	orr.w	ip, ip, r3
10003b3a:	f80e c000 	strb.w	ip, [lr, r0]
10003b3e:	e8c4 6f8f 	stlb	r6, [r4]
10003b42:	f385 8810 	msr	PRIMASK, r5
10003b46:	bd70      	pop	{r4, r5, r6, pc}
10003b48:	4610      	mov	r0, r2
10003b4a:	f7ff ffa3 	bl	10003a94 <panic>
10003b4e:	bf00      	nop
10003b50:	200010fb 	.word	0x200010fb

10003b54 <hw_claim_unused_from_range>:
10003b54:	b5f8      	push	{r3, r4, r5, r6, r7, lr}
10003b56:	f3ef 8710 	mrs	r7, PRIMASK
10003b5a:	b672      	cpsid	i
10003b5c:	4e1c      	ldr	r6, [pc, #112]	@ (10003bd0 <hw_claim_unused_from_range+0x7c>)
10003b5e:	e8d6 5fcf 	ldaexb	r5, [r6]
10003b62:	2401      	movs	r4, #1
10003b64:	2d00      	cmp	r5, #0
10003b66:	d1fa      	bne.n	10003b5e <hw_claim_unused_from_range+0xa>
10003b68:	e8c6 4f45 	strexb	r5, r4, [r6]
10003b6c:	2d00      	cmp	r5, #0
10003b6e:	d1f6      	bne.n	10003b5e <hw_claim_unused_from_range+0xa>
10003b70:	f3bf 8f5f 	dmb	sy
10003b74:	429a      	cmp	r2, r3
10003b76:	d81b      	bhi.n	10003bb0 <hw_claim_unused_from_range+0x5c>
10003b78:	2501      	movs	r5, #1
10003b7a:	e002      	b.n	10003b82 <hw_claim_unused_from_range+0x2e>
10003b7c:	3201      	adds	r2, #1
10003b7e:	4293      	cmp	r3, r2
10003b80:	d322      	bcc.n	10003bc8 <hw_claim_unused_from_range+0x74>
10003b82:	08d4      	lsrs	r4, r2, #3
10003b84:	f810 e004 	ldrb.w	lr, [r0, r4]
10003b88:	f002 0c07 	and.w	ip, r2, #7
10003b8c:	fa05 fc0c 	lsl.w	ip, r5, ip
10003b90:	ea1e 0f0c 	tst.w	lr, ip
10003b94:	d1f2      	bne.n	10003b7c <hw_claim_unused_from_range+0x28>
10003b96:	ea4e 0e0c 	orr.w	lr, lr, ip
10003b9a:	f800 e004 	strb.w	lr, [r0, r4]
10003b9e:	4610      	mov	r0, r2
10003ba0:	2300      	movs	r3, #0
10003ba2:	e8c6 3f8f 	stlb	r3, [r6]
10003ba6:	f387 8810 	msr	PRIMASK, r7
10003baa:	4298      	cmp	r0, r3
10003bac:	db07      	blt.n	10003bbe <hw_claim_unused_from_range+0x6a>
10003bae:	bdf8      	pop	{r3, r4, r5, r6, r7, pc}
10003bb0:	2300      	movs	r3, #0
10003bb2:	e8c6 3f8f 	stlb	r3, [r6]
10003bb6:	f387 8810 	msr	PRIMASK, r7
10003bba:	f04f 30ff 	mov.w	r0, #4294967295	@ 0xffffffff
10003bbe:	2900      	cmp	r1, #0
10003bc0:	d0f5      	beq.n	10003bae <hw_claim_unused_from_range+0x5a>
10003bc2:	9806      	ldr	r0, [sp, #24]
10003bc4:	f7ff ff66 	bl	10003a94 <panic>
10003bc8:	f04f 30ff 	mov.w	r0, #4294967295	@ 0xffffffff
10003bcc:	e7e8      	b.n	10003ba0 <hw_claim_unused_from_range+0x4c>
10003bce:	bf00      	nop
10003bd0:	200010fb 	.word	0x200010fb

10003bd4 <next_striped_spin_lock_num>:
10003bd4:	4a04      	ldr	r2, [pc, #16]	@ (10003be8 <next_striped_spin_lock_num+0x14>)
10003bd6:	7810      	ldrb	r0, [r2, #0]
10003bd8:	1c43      	adds	r3, r0, #1
10003bda:	b2db      	uxtb	r3, r3
10003bdc:	2b18      	cmp	r3, #24
10003bde:	bf28      	it	cs
10003be0:	2310      	movcs	r3, #16
10003be2:	7013      	strb	r3, [r2, #0]
10003be4:	4770      	bx	lr
10003be6:	bf00      	nop
10003be8:	20000644 	.word	0x20000644

10003bec <spinlock_set_extexclall>:
10003bec:	f04f 22e0 	mov.w	r2, #3758153728	@ 0xe000e000
10003bf0:	6893      	ldr	r3, [r2, #8]
10003bf2:	f043 5300 	orr.w	r3, r3, #536870912	@ 0x20000000
10003bf6:	6093      	str	r3, [r2, #8]
10003bf8:	4770      	bx	lr
10003bfa:	bf00      	nop

10003bfc <spin_locks_reset>:
10003bfc:	2100      	movs	r1, #0
10003bfe:	4b04      	ldr	r3, [pc, #16]	@ (10003c10 <spin_locks_reset+0x14>)
10003c00:	f103 0220 	add.w	r2, r3, #32
10003c04:	e8c3 1f8f 	stlb	r1, [r3]
10003c08:	3301      	adds	r3, #1
10003c0a:	4293      	cmp	r3, r2
10003c0c:	d1fa      	bne.n	10003c04 <spin_locks_reset+0x8>
10003c0e:	4770      	bx	lr
10003c10:	200010f0 	.word	0x200010f0

10003c14 <runtime_init_per_core_irq_priorities>:
10003c14:	f04f 23e0 	mov.w	r3, #3758153728	@ 0xe000e000
10003c18:	f04f 3280 	mov.w	r2, #2155905152	@ 0x80808080
10003c1c:	f8c3 2400 	str.w	r2, [r3, #1024]	@ 0x400
10003c20:	f8c3 2404 	str.w	r2, [r3, #1028]	@ 0x404
10003c24:	f8c3 2408 	str.w	r2, [r3, #1032]	@ 0x408
10003c28:	f8c3 240c 	str.w	r2, [r3, #1036]	@ 0x40c
10003c2c:	f8c3 2410 	str.w	r2, [r3, #1040]	@ 0x410
10003c30:	f8c3 2414 	str.w	r2, [r3, #1044]	@ 0x414
10003c34:	f8c3 2418 	str.w	r2, [r3, #1048]	@ 0x418
10003c38:	f8c3 241c 	str.w	r2, [r3, #1052]	@ 0x41c
10003c3c:	f8c3 2420 	str.w	r2, [r3, #1056]	@ 0x420
10003c40:	f8c3 2424 	str.w	r2, [r3, #1060]	@ 0x424
10003c44:	f8c3 2428 	str.w	r2, [r3, #1064]	@ 0x428
10003c48:	f8c3 242c 	str.w	r2, [r3, #1068]	@ 0x42c
10003c4c:	f8c3 2430 	str.w	r2, [r3, #1072]	@ 0x430
10003c50:	b662      	cpsie	i
10003c52:	4770      	bx	lr

10003c54 <irq_set_enabled>:
10003c54:	2301      	movs	r3, #1
10003c56:	f000 021f 	and.w	r2, r0, #31
10003c5a:	4093      	lsls	r3, r2
10003c5c:	0940      	lsrs	r0, r0, #5
10003c5e:	b141      	cbz	r1, 10003c72 <irq_set_enabled+0x1e>
10003c60:	0080      	lsls	r0, r0, #2
10003c62:	f100 4060 	add.w	r0, r0, #3758096384	@ 0xe0000000
10003c66:	f500 4061 	add.w	r0, r0, #57600	@ 0xe100
10003c6a:	f8c0 3180 	str.w	r3, [r0, #384]	@ 0x180
10003c6e:	6003      	str	r3, [r0, #0]
10003c70:	4770      	bx	lr
10003c72:	4a02      	ldr	r2, [pc, #8]	@ (10003c7c <irq_set_enabled+0x28>)
10003c74:	3020      	adds	r0, #32
10003c76:	f842 3020 	str.w	r3, [r2, r0, lsl #2]
10003c7a:	4770      	bx	lr
10003c7c:	e000e100 	.word	0xe000e100

10003c80 <irq_is_enabled>:
10003c80:	2301      	movs	r3, #1
10003c82:	4a06      	ldr	r2, [pc, #24]	@ (10003c9c <irq_is_enabled+0x1c>)
10003c84:	0941      	lsrs	r1, r0, #5
10003c86:	f852 2021 	ldr.w	r2, [r2, r1, lsl #2]
10003c8a:	f000 001f 	and.w	r0, r0, #31
10003c8e:	fa03 f000 	lsl.w	r0, r3, r0
10003c92:	4010      	ands	r0, r2
10003c94:	3800      	subs	r0, #0
10003c96:	bf18      	it	ne
10003c98:	2001      	movne	r0, #1
10003c9a:	4770      	bx	lr
10003c9c:	e000e100 	.word	0xe000e100

10003ca0 <irq_set_exclusive_handler>:
10003ca0:	b5f8      	push	{r3, r4, r5, r6, r7, lr}
10003ca2:	460d      	mov	r5, r1
10003ca4:	f3ef 8710 	mrs	r7, PRIMASK
10003ca8:	b672      	cpsid	i
10003caa:	4e12      	ldr	r6, [pc, #72]	@ (10003cf4 <irq_set_exclusive_handler+0x54>)
10003cac:	e8d6 2fcf 	ldaexb	r2, [r6]
10003cb0:	2301      	movs	r3, #1
10003cb2:	2a00      	cmp	r2, #0
10003cb4:	d1fa      	bne.n	10003cac <irq_set_exclusive_handler+0xc>
10003cb6:	e8c6 3f42 	strexb	r2, r3, [r6]
10003cba:	2a00      	cmp	r2, #0
10003cbc:	d1f6      	bne.n	10003cac <irq_set_exclusive_handler+0xc>
10003cbe:	f3bf 8f5f 	dmb	sy
10003cc2:	4b0d      	ldr	r3, [pc, #52]	@ (10003cf8 <irq_set_exclusive_handler+0x58>)
10003cc4:	f100 0410 	add.w	r4, r0, #16
10003cc8:	689b      	ldr	r3, [r3, #8]
10003cca:	4a0c      	ldr	r2, [pc, #48]	@ (10003cfc <irq_set_exclusive_handler+0x5c>)
10003ccc:	f853 3024 	ldr.w	r3, [r3, r4, lsl #2]
10003cd0:	4293      	cmp	r3, r2
10003cd2:	d003      	beq.n	10003cdc <irq_set_exclusive_handler+0x3c>
10003cd4:	4299      	cmp	r1, r3
10003cd6:	d001      	beq.n	10003cdc <irq_set_exclusive_handler+0x3c>
10003cd8:	f000 fe16 	bl	10004908 <hard_assertion_failure>
10003cdc:	4b06      	ldr	r3, [pc, #24]	@ (10003cf8 <irq_set_exclusive_handler+0x58>)
10003cde:	689b      	ldr	r3, [r3, #8]
10003ce0:	f843 5024 	str.w	r5, [r3, r4, lsl #2]
10003ce4:	f3bf 8f5f 	dmb	sy
10003ce8:	2300      	movs	r3, #0
10003cea:	e8c6 3f8f 	stlb	r3, [r6]
10003cee:	f387 8810 	msr	PRIMASK, r7
10003cf2:	bdf8      	pop	{r3, r4, r5, r6, r7, pc}
10003cf4:	200010f9 	.word	0x200010f9
10003cf8:	e000ed00 	.word	0xe000ed00
10003cfc:	10000111 	.word	0x10000111

10003d00 <lock_init>:
10003d00:	4b01      	ldr	r3, [pc, #4]	@ (10003d08 <lock_init+0x8>)
10003d02:	440b      	add	r3, r1
10003d04:	6003      	str	r3, [r0, #0]
10003d06:	4770      	bx	lr
10003d08:	200010f0 	.word	0x200010f0

10003d0c <runtime_init_mutex>:
10003d0c:	b570      	push	{r4, r5, r6, lr}
10003d0e:	4c10      	ldr	r4, [pc, #64]	@ (10003d50 <runtime_init_mutex+0x44>)
10003d10:	4d10      	ldr	r5, [pc, #64]	@ (10003d54 <runtime_init_mutex+0x48>)
10003d12:	42ac      	cmp	r4, r5
10003d14:	d20e      	bcs.n	10003d34 <runtime_init_mutex+0x28>
10003d16:	26ff      	movs	r6, #255	@ 0xff
10003d18:	6823      	ldr	r3, [r4, #0]
10003d1a:	b163      	cbz	r3, 10003d36 <runtime_init_mutex+0x2a>
10003d1c:	f7ff ff5a 	bl	10003bd4 <next_striped_spin_lock_num>
10003d20:	4601      	mov	r1, r0
10003d22:	4620      	mov	r0, r4
10003d24:	f7ff ffec 	bl	10003d00 <lock_init>
10003d28:	80a6      	strh	r6, [r4, #4]
10003d2a:	f3bf 8f5f 	dmb	sy
10003d2e:	3408      	adds	r4, #8
10003d30:	42ac      	cmp	r4, r5
10003d32:	d3f1      	bcc.n	10003d18 <runtime_init_mutex+0xc>
10003d34:	bd70      	pop	{r4, r5, r6, pc}
10003d36:	f7ff ff4d 	bl	10003bd4 <next_striped_spin_lock_num>
10003d3a:	4601      	mov	r1, r0
10003d3c:	4620      	mov	r0, r4
10003d3e:	f7ff ffdf 	bl	10003d00 <lock_init>
10003d42:	7126      	strb	r6, [r4, #4]
10003d44:	f3bf 8f5f 	dmb	sy
10003d48:	3408      	adds	r4, #8
10003d4a:	42ac      	cmp	r4, r5
10003d4c:	d3e4      	bcc.n	10003d18 <runtime_init_mutex+0xc>
10003d4e:	bd70      	pop	{r4, r5, r6, pc}
10003d50:	20000d24 	.word	0x20000d24
10003d54:	20000d34 	.word	0x20000d34

10003d58 <sleep_until_callback>:
10003d58:	4b0d      	ldr	r3, [pc, #52]	@ (10003d90 <sleep_until_callback+0x38>)
10003d5a:	681a      	ldr	r2, [r3, #0]
10003d5c:	f3ef 8110 	mrs	r1, PRIMASK
10003d60:	b672      	cpsid	i
10003d62:	e8d2 cfcf 	ldaexb	ip, [r2]
10003d66:	2001      	movs	r0, #1
10003d68:	f1bc 0f00 	cmp.w	ip, #0
10003d6c:	d1f9      	bne.n	10003d62 <sleep_until_callback+0xa>
10003d6e:	e8c2 0f4c 	strexb	ip, r0, [r2]
10003d72:	f1bc 0f00 	cmp.w	ip, #0
10003d76:	d1f4      	bne.n	10003d62 <sleep_until_callback+0xa>
10003d78:	f3bf 8f5f 	dmb	sy
10003d7c:	2200      	movs	r2, #0
10003d7e:	681b      	ldr	r3, [r3, #0]
10003d80:	e8c3 2f8f 	stlb	r2, [r3]
10003d84:	f381 8810 	msr	PRIMASK, r1
10003d88:	bf40      	sev
10003d8a:	2000      	movs	r0, #0
10003d8c:	2100      	movs	r1, #0
10003d8e:	4770      	bx	lr
10003d90:	2000151c 	.word	0x2000151c
10003d94:	00000000 	.word	0x00000000

10003d98 <alarm_pool_irq_handler>:
10003d98:	e92d 4ff0 	stmdb	sp!, {r4, r5, r6, r7, r8, r9, sl, fp, lr}
10003d9c:	ed2d 8b02 	vpush	{d8}
10003da0:	b085      	sub	sp, #20
10003da2:	f3ef 8305 	mrs	r3, IPSR
10003da6:	b2db      	uxtb	r3, r3
10003da8:	3b10      	subs	r3, #16
10003daa:	089a      	lsrs	r2, r3, #2
10003dac:	bf18      	it	ne
10003dae:	2201      	movne	r2, #1
10003db0:	f04f 0101 	mov.w	r1, #1
10003db4:	f003 0b03 	and.w	fp, r3, #3
10003db8:	bf18      	it	ne
10003dba:	4daf      	ldrne	r5, [pc, #700]	@ (10004078 <alarm_pool_irq_handler+0x2e0>)
10003dbc:	4baf      	ldr	r3, [pc, #700]	@ (1000407c <alarm_pool_irq_handler+0x2e4>)
10003dbe:	bf08      	it	eq
10003dc0:	4daf      	ldreq	r5, [pc, #700]	@ (10004080 <alarm_pool_irq_handler+0x2e8>)
10003dc2:	eb0b 0282 	add.w	r2, fp, r2, lsl #2
10003dc6:	f853 6022 	ldr.w	r6, [r3, r2, lsl #2]
10003dca:	fa01 f20b 	lsl.w	r2, r1, fp
10003dce:	f505 5341 	add.w	r3, r5, #12352	@ 0x3040
10003dd2:	ed9f 8ba7 	vldr	d8, [pc, #668]	@ 10004070 <alarm_pool_irq_handler+0x2d8>
10003dd6:	9201      	str	r2, [sp, #4]
10003dd8:	605a      	str	r2, [r3, #4]
10003dda:	e02f      	b.n	10003e3c <alarm_pool_irq_handler+0xa4>
10003ddc:	88b3      	ldrh	r3, [r6, #4]
10003dde:	041c      	lsls	r4, r3, #16
10003de0:	f140 8093 	bpl.w	10003f0a <alarm_pool_irq_handler+0x172>
10003de4:	79b3      	ldrb	r3, [r6, #6]
10003de6:	2b00      	cmp	r3, #0
10003de8:	f040 80dd 	bne.w	10003fa6 <alarm_pool_irq_handler+0x20e>
10003dec:	f9b6 2008 	ldrsh.w	r2, [r6, #8]
10003df0:	2a00      	cmp	r2, #0
10003df2:	f2c0 811e 	blt.w	10004032 <alarm_pool_irq_handler+0x29a>
10003df6:	6973      	ldr	r3, [r6, #20]
10003df8:	eb02 0242 	add.w	r2, r2, r2, lsl #1
10003dfc:	eb03 03c2 	add.w	r3, r3, r2, lsl #3
10003e00:	e9d3 4702 	ldrd	r4, r7, [r3, #8]
10003e04:	f1b7 3fff 	cmp.w	r7, #4294967295	@ 0xffffffff
10003e08:	bf08      	it	eq
10003e0a:	f1b4 3fff 	cmpeq.w	r4, #4294967295	@ 0xffffffff
10003e0e:	d00e      	beq.n	10003e2e <alarm_pool_irq_handler+0x96>
10003e10:	eb05 018b 	add.w	r1, r5, fp, lsl #2
10003e14:	6aab      	ldr	r3, [r5, #40]	@ 0x28
10003e16:	690a      	ldr	r2, [r1, #16]
10003e18:	1ad2      	subs	r2, r2, r3
10003e1a:	1ae3      	subs	r3, r4, r3
10003e1c:	4293      	cmp	r3, r2
10003e1e:	d305      	bcc.n	10003e2c <alarm_pool_irq_handler+0x94>
10003e20:	2301      	movs	r3, #1
10003e22:	6a2a      	ldr	r2, [r5, #32]
10003e24:	fa03 f30b 	lsl.w	r3, r3, fp
10003e28:	4213      	tst	r3, r2
10003e2a:	d100      	bne.n	10003e2e <alarm_pool_irq_handler+0x96>
10003e2c:	610c      	str	r4, [r1, #16]
10003e2e:	4628      	mov	r0, r5
10003e30:	f000 faca 	bl	100043c8 <timer_time_us_64>
10003e34:	42a0      	cmp	r0, r4
10003e36:	41b9      	sbcs	r1, r7
10003e38:	f2c0 80fb 	blt.w	10004032 <alarm_pool_irq_handler+0x29a>
10003e3c:	f9b6 3008 	ldrsh.w	r3, [r6, #8]
10003e40:	9a01      	ldr	r2, [sp, #4]
10003e42:	2b00      	cmp	r3, #0
10003e44:	9300      	str	r3, [sp, #0]
10003e46:	63ea      	str	r2, [r5, #60]	@ 0x3c
10003e48:	dbc8      	blt.n	10003ddc <alarm_pool_irq_handler+0x44>
10003e4a:	f8d6 8014 	ldr.w	r8, [r6, #20]
10003e4e:	eb03 0943 	add.w	r9, r3, r3, lsl #1
10003e52:	4628      	mov	r0, r5
10003e54:	eb08 07c9 	add.w	r7, r8, r9, lsl #3
10003e58:	e9d7 4a02 	ldrd	r4, sl, [r7, #8]
10003e5c:	f000 fab4 	bl	100043c8 <timer_time_us_64>
10003e60:	42a0      	cmp	r0, r4
10003e62:	eb71 010a 	sbcs.w	r1, r1, sl
10003e66:	dbb9      	blt.n	10003ddc <alarm_pool_irq_handler+0x44>
10003e68:	f1ba 0f00 	cmp.w	sl, #0
10003e6c:	f2c0 80c3 	blt.w	10003ff6 <alarm_pool_irq_handler+0x25e>
10003e70:	e9d7 3104 	ldrd	r3, r1, [r7, #16]
10003e74:	4a83      	ldr	r2, [pc, #524]	@ (10004084 <alarm_pool_irq_handler+0x2ec>)
10003e76:	4293      	cmp	r3, r2
10003e78:	f000 80ed 	beq.w	10004056 <alarm_pool_irq_handler+0x2be>
10003e7c:	887a      	ldrh	r2, [r7, #2]
10003e7e:	f9b6 0008 	ldrsh.w	r0, [r6, #8]
10003e82:	b292      	uxth	r2, r2
10003e84:	ea42 4000 	orr.w	r0, r2, r0, lsl #16
10003e88:	4798      	blx	r3
10003e8a:	4602      	mov	r2, r0
10003e8c:	460b      	mov	r3, r1
10003e8e:	ea52 0103 	orrs.w	r1, r2, r3
10003e92:	f000 80b0 	beq.w	10003ff6 <alarm_pool_irq_handler+0x25e>
10003e96:	2b00      	cmp	r3, #0
10003e98:	f280 80d1 	bge.w	1000403e <alarm_pool_irq_handler+0x2a6>
10003e9c:	ebb4 0e02 	subs.w	lr, r4, r2
10003ea0:	eb6a 0a03 	sbc.w	sl, sl, r3
10003ea4:	f938 3039 	ldrsh.w	r3, [r8, r9, lsl #3]
10003ea8:	e9c7 ea02 	strd	lr, sl, [r7, #8]
10003eac:	2b00      	cmp	r3, #0
10003eae:	db95      	blt.n	10003ddc <alarm_pool_irq_handler+0x44>
10003eb0:	6971      	ldr	r1, [r6, #20]
10003eb2:	eb03 0243 	add.w	r2, r3, r3, lsl #1
10003eb6:	eb01 02c2 	add.w	r2, r1, r2, lsl #3
10003eba:	e9d2 7002 	ldrd	r7, r0, [r2, #8]
10003ebe:	45be      	cmp	lr, r7
10003ec0:	eb7a 0c00 	sbcs.w	ip, sl, r0
10003ec4:	ea4f 0243 	mov.w	r2, r3, lsl #1
10003ec8:	db88      	blt.n	10003ddc <alarm_pool_irq_handler+0x44>
10003eca:	46b4      	mov	ip, r6
10003ecc:	f82c 3f08 	strh.w	r3, [ip, #8]!
10003ed0:	e006      	b.n	10003ee0 <alarm_pool_irq_handler+0x148>
10003ed2:	eb03 0043 	add.w	r0, r3, r3, lsl #1
10003ed6:	eb01 00c0 	add.w	r0, r1, r0, lsl #3
10003eda:	005a      	lsls	r2, r3, #1
10003edc:	e9d0 7002 	ldrd	r7, r0, [r0, #8]
10003ee0:	45be      	cmp	lr, r7
10003ee2:	441a      	add	r2, r3
10003ee4:	eb7a 0000 	sbcs.w	r0, sl, r0
10003ee8:	eb01 04c2 	add.w	r4, r1, r2, lsl #3
10003eec:	db04      	blt.n	10003ef8 <alarm_pool_irq_handler+0x160>
10003eee:	f931 3032 	ldrsh.w	r3, [r1, r2, lsl #3]
10003ef2:	46a4      	mov	ip, r4
10003ef4:	2b00      	cmp	r3, #0
10003ef6:	daec      	bge.n	10003ed2 <alarm_pool_irq_handler+0x13a>
10003ef8:	f828 3039 	strh.w	r3, [r8, r9, lsl #3]
10003efc:	9b00      	ldr	r3, [sp, #0]
10003efe:	f8ac 3000 	strh.w	r3, [ip]
10003f02:	88b3      	ldrh	r3, [r6, #4]
10003f04:	041c      	lsls	r4, r3, #16
10003f06:	f53f af6d 	bmi.w	10003de4 <alarm_pool_irq_handler+0x4c>
10003f0a:	6933      	ldr	r3, [r6, #16]
10003f0c:	f3ef 8210 	mrs	r2, PRIMASK
10003f10:	b672      	cpsid	i
10003f12:	e8d3 0fcf 	ldaexb	r0, [r3]
10003f16:	2101      	movs	r1, #1
10003f18:	2800      	cmp	r0, #0
10003f1a:	d1fa      	bne.n	10003f12 <alarm_pool_irq_handler+0x17a>
10003f1c:	e8c3 1f40 	strexb	r0, r1, [r3]
10003f20:	2800      	cmp	r0, #0
10003f22:	d1f6      	bne.n	10003f12 <alarm_pool_irq_handler+0x17a>
10003f24:	f3bf 8f5f 	dmb	sy
10003f28:	f64f 74ff 	movw	r4, #65535	@ 0xffff
10003f2c:	88b0      	ldrh	r0, [r6, #4]
10003f2e:	2300      	movs	r3, #0
10003f30:	6931      	ldr	r1, [r6, #16]
10003f32:	b200      	sxth	r0, r0
10003f34:	80b4      	strh	r4, [r6, #4]
10003f36:	e8c1 3f8f 	stlb	r3, [r1]
10003f3a:	f382 8810 	msr	PRIMASK, r2
10003f3e:	4298      	cmp	r0, r3
10003f40:	f6ff af50 	blt.w	10003de4 <alarm_pool_irq_handler+0x4c>
10003f44:	4607      	mov	r7, r0
10003f46:	46a9      	mov	r9, r5
10003f48:	6974      	ldr	r4, [r6, #20]
10003f4a:	f106 0808 	add.w	r8, r6, #8
10003f4e:	eb07 0e47 	add.w	lr, r7, r7, lsl #1
10003f52:	eb04 03ce 	add.w	r3, r4, lr, lsl #3
10003f56:	e9d3 5002 	ldrd	r5, r0, [r3, #8]
10003f5a:	f9b6 3008 	ldrsh.w	r3, [r6, #8]
10003f5e:	46c4      	mov	ip, r8
10003f60:	2b00      	cmp	r3, #0
10003f62:	db13      	blt.n	10003f8c <alarm_pool_irq_handler+0x1f4>
10003f64:	46b2      	mov	sl, r6
10003f66:	9700      	str	r7, [sp, #0]
10003f68:	e004      	b.n	10003f74 <alarm_pool_irq_handler+0x1dc>
10003f6a:	f934 3036 	ldrsh.w	r3, [r4, r6, lsl #3]
10003f6e:	4694      	mov	ip, r2
10003f70:	2b00      	cmp	r3, #0
10003f72:	db09      	blt.n	10003f88 <alarm_pool_irq_handler+0x1f0>
10003f74:	eb03 0643 	add.w	r6, r3, r3, lsl #1
10003f78:	eb04 02c6 	add.w	r2, r4, r6, lsl #3
10003f7c:	e9d2 7102 	ldrd	r7, r1, [r2, #8]
10003f80:	42bd      	cmp	r5, r7
10003f82:	eb70 0101 	sbcs.w	r1, r0, r1
10003f86:	daf0      	bge.n	10003f6a <alarm_pool_irq_handler+0x1d2>
10003f88:	4656      	mov	r6, sl
10003f8a:	9f00      	ldr	r7, [sp, #0]
10003f8c:	f8ac 7000 	strh.w	r7, [ip]
10003f90:	f934 703e 	ldrsh.w	r7, [r4, lr, lsl #3]
10003f94:	f824 303e 	strh.w	r3, [r4, lr, lsl #3]
10003f98:	2f00      	cmp	r7, #0
10003f9a:	dad8      	bge.n	10003f4e <alarm_pool_irq_handler+0x1b6>
10003f9c:	79b3      	ldrb	r3, [r6, #6]
10003f9e:	464d      	mov	r5, r9
10003fa0:	2b00      	cmp	r3, #0
10003fa2:	f43f af23 	beq.w	10003dec <alarm_pool_irq_handler+0x54>
10003fa6:	2300      	movs	r3, #0
10003fa8:	71b3      	strb	r3, [r6, #6]
10003faa:	f9b6 3008 	ldrsh.w	r3, [r6, #8]
10003fae:	f106 0808 	add.w	r8, r6, #8
10003fb2:	1c58      	adds	r0, r3, #1
10003fb4:	d03d      	beq.n	10004032 <alarm_pool_irq_handler+0x29a>
10003fb6:	461a      	mov	r2, r3
10003fb8:	6977      	ldr	r7, [r6, #20]
10003fba:	e003      	b.n	10003fc4 <alarm_pool_irq_handler+0x22c>
10003fbc:	4680      	mov	r8, r0
10003fbe:	1c59      	adds	r1, r3, #1
10003fc0:	f43f af16 	beq.w	10003df0 <alarm_pool_irq_handler+0x58>
10003fc4:	eb03 0143 	add.w	r1, r3, r3, lsl #1
10003fc8:	eb07 00c1 	add.w	r0, r7, r1, lsl #3
10003fcc:	f8b0 c002 	ldrh.w	ip, [r0, #2]
10003fd0:	461c      	mov	r4, r3
10003fd2:	f41c 4f00 	tst.w	ip, #32768	@ 0x8000
10003fd6:	469e      	mov	lr, r3
10003fd8:	f937 3031 	ldrsh.w	r3, [r7, r1, lsl #3]
10003fdc:	d0ee      	beq.n	10003fbc <alarm_pool_irq_handler+0x224>
10003fde:	4294      	cmp	r4, r2
10003fe0:	ed80 8b02 	vstr	d8, [r0, #8]
10003fe4:	d005      	beq.n	10003ff2 <alarm_pool_irq_handler+0x25a>
10003fe6:	f8a8 3000 	strh.w	r3, [r8]
10003fea:	8932      	ldrh	r2, [r6, #8]
10003fec:	f827 2031 	strh.w	r2, [r7, r1, lsl #3]
10003ff0:	8134      	strh	r4, [r6, #8]
10003ff2:	4672      	mov	r2, lr
10003ff4:	e7e3      	b.n	10003fbe <alarm_pool_irq_handler+0x226>
10003ff6:	f838 3039 	ldrh.w	r3, [r8, r9, lsl #3]
10003ffa:	8133      	strh	r3, [r6, #8]
10003ffc:	6933      	ldr	r3, [r6, #16]
10003ffe:	f3ef 8210 	mrs	r2, PRIMASK
10004002:	b672      	cpsid	i
10004004:	e8d3 0fcf 	ldaexb	r0, [r3]
10004008:	2101      	movs	r1, #1
1000400a:	2800      	cmp	r0, #0
1000400c:	d1fa      	bne.n	10004004 <alarm_pool_irq_handler+0x26c>
1000400e:	e8c3 1f40 	strexb	r0, r1, [r3]
10004012:	2800      	cmp	r0, #0
10004014:	d1f6      	bne.n	10004004 <alarm_pool_irq_handler+0x26c>
10004016:	f3bf 8f5f 	dmb	sy
1000401a:	8873      	ldrh	r3, [r6, #2]
1000401c:	6931      	ldr	r1, [r6, #16]
1000401e:	f828 3039 	strh.w	r3, [r8, r9, lsl #3]
10004022:	9b00      	ldr	r3, [sp, #0]
10004024:	8073      	strh	r3, [r6, #2]
10004026:	2300      	movs	r3, #0
10004028:	e8c1 3f8f 	stlb	r3, [r1]
1000402c:	f382 8810 	msr	PRIMASK, r2
10004030:	e6d4      	b.n	10003ddc <alarm_pool_irq_handler+0x44>
10004032:	bf40      	sev
10004034:	b005      	add	sp, #20
10004036:	ecbd 8b02 	vpop	{d8}
1000403a:	e8bd 8ff0 	ldmia.w	sp!, {r4, r5, r6, r7, r8, r9, sl, fp, pc}
1000403e:	4628      	mov	r0, r5
10004040:	e9cd 2302 	strd	r2, r3, [sp, #8]
10004044:	f000 f9c0 	bl	100043c8 <timer_time_us_64>
10004048:	9a02      	ldr	r2, [sp, #8]
1000404a:	9b03      	ldr	r3, [sp, #12]
1000404c:	eb10 0e02 	adds.w	lr, r0, r2
10004050:	eb43 0a01 	adc.w	sl, r3, r1
10004054:	e726      	b.n	10003ea4 <alarm_pool_irq_handler+0x10c>
10004056:	4608      	mov	r0, r1
10004058:	690b      	ldr	r3, [r1, #16]
1000405a:	9102      	str	r1, [sp, #8]
1000405c:	4798      	blx	r3
1000405e:	2800      	cmp	r0, #0
10004060:	d0c9      	beq.n	10003ff6 <alarm_pool_irq_handler+0x25e>
10004062:	9902      	ldr	r1, [sp, #8]
10004064:	e9d1 2300 	ldrd	r2, r3, [r1]
10004068:	e711      	b.n	10003e8e <alarm_pool_irq_handler+0xf6>
1000406a:	bf00      	nop
1000406c:	f3af 8000 	nop.w
10004070:	ffffffff 	.word	0xffffffff
10004074:	ffffffff 	.word	0xffffffff
10004078:	400b8000 	.word	0x400b8000
1000407c:	2000118c 	.word	0x2000118c
10004080:	400b0000 	.word	0x400b0000
10004084:	10003d99 	.word	0x10003d99

10004088 <runtime_init_default_alarm_pool>:
10004088:	e92d 4ff8 	stmdb	sp!, {r3, r4, r5, r6, r7, r8, r9, sl, fp, lr}
1000408c:	4c36      	ldr	r4, [pc, #216]	@ (10004168 <runtime_init_default_alarm_pool+0xe0>)
1000408e:	6925      	ldr	r5, [r4, #16]
10004090:	b12d      	cbz	r5, 1000409e <runtime_init_default_alarm_pool+0x16>
10004092:	e8bd 4ff8 	ldmia.w	sp!, {r3, r4, r5, r6, r7, r8, r9, sl, fp, lr}
10004096:	210a      	movs	r1, #10
10004098:	4834      	ldr	r0, [pc, #208]	@ (1000416c <runtime_init_default_alarm_pool+0xe4>)
1000409a:	f7ff be31 	b.w	10003d00 <lock_init>
1000409e:	f8df 80e4 	ldr.w	r8, [pc, #228]	@ 10004184 <runtime_init_default_alarm_pool+0xfc>
100040a2:	2103      	movs	r1, #3
100040a4:	4640      	mov	r0, r8
100040a6:	f000 f97d 	bl	100043a4 <timer_hardware_alarm_claim>
100040aa:	2603      	movs	r6, #3
100040ac:	f8c4 800c 	str.w	r8, [r4, #12]
100040b0:	f7ff fd90 	bl	10003bd4 <next_striped_spin_lock_num>
100040b4:	f04f 4c50 	mov.w	ip, #3489660928	@ 0xd0000000
100040b8:	4b2d      	ldr	r3, [pc, #180]	@ (10004170 <runtime_init_default_alarm_pool+0xe8>)
100040ba:	7026      	strb	r6, [r4, #0]
100040bc:	4403      	add	r3, r0
100040be:	6123      	str	r3, [r4, #16]
100040c0:	f8dc 3000 	ldr.w	r3, [ip]
100040c4:	210f      	movs	r1, #15
100040c6:	7063      	strb	r3, [r4, #1]
100040c8:	6963      	ldr	r3, [r4, #20]
100040ca:	8061      	strh	r1, [r4, #2]
100040cc:	831d      	strh	r5, [r3, #24]
100040ce:	f04f 0504 	mov.w	r5, #4
100040d2:	f8a3 5078 	strh.w	r5, [r3, #120]	@ 0x78
100040d6:	f04f 0505 	mov.w	r5, #5
100040da:	f8a3 5090 	strh.w	r5, [r3, #144]	@ 0x90
100040de:	f04f 0506 	mov.w	r5, #6
100040e2:	f8a3 50a8 	strh.w	r5, [r3, #168]	@ 0xa8
100040e6:	f04f 0507 	mov.w	r5, #7
100040ea:	210e      	movs	r1, #14
100040ec:	f64f 72ff 	movw	r2, #65535	@ 0xffff
100040f0:	2708      	movs	r7, #8
100040f2:	f04f 0e0a 	mov.w	lr, #10
100040f6:	f8a3 50c0 	strh.w	r5, [r3, #192]	@ 0xc0
100040fa:	f04f 0901 	mov.w	r9, #1
100040fe:	f04f 0c0c 	mov.w	ip, #12
10004102:	f04f 0b02 	mov.w	fp, #2
10004106:	f04f 0a09 	mov.w	sl, #9
1000410a:	200d      	movs	r0, #13
1000410c:	f04f 050b 	mov.w	r5, #11
10004110:	f8a3 1168 	strh.w	r1, [r3, #360]	@ 0x168
10004114:	4917      	ldr	r1, [pc, #92]	@ (10004174 <runtime_init_default_alarm_pool+0xec>)
10004116:	80a2      	strh	r2, [r4, #4]
10004118:	f8a3 e108 	strh.w	lr, [r3, #264]	@ 0x108
1000411c:	60a1      	str	r1, [r4, #8]
1000411e:	f8a3 b048 	strh.w	fp, [r3, #72]	@ 0x48
10004122:	f8a3 a0f0 	strh.w	sl, [r3, #240]	@ 0xf0
10004126:	f8a3 5120 	strh.w	r5, [r3, #288]	@ 0x120
1000412a:	f8a3 c138 	strh.w	ip, [r3, #312]	@ 0x138
1000412e:	f8a3 0150 	strh.w	r0, [r3, #336]	@ 0x150
10004132:	f8a3 9030 	strh.w	r9, [r3, #48]	@ 0x30
10004136:	f8a3 6060 	strh.w	r6, [r3, #96]	@ 0x60
1000413a:	f8a3 70d8 	strh.w	r7, [r3, #216]	@ 0xd8
1000413e:	801a      	strh	r2, [r3, #0]
10004140:	4b0d      	ldr	r3, [pc, #52]	@ (10004178 <runtime_init_default_alarm_pool+0xf0>)
10004142:	4630      	mov	r0, r6
10004144:	f8c8 7020 	str.w	r7, [r8, #32]
10004148:	490c      	ldr	r1, [pc, #48]	@ (1000417c <runtime_init_default_alarm_pool+0xf4>)
1000414a:	60dc      	str	r4, [r3, #12]
1000414c:	f7ff fda8 	bl	10003ca0 <irq_set_exclusive_handler>
10004150:	4649      	mov	r1, r9
10004152:	4630      	mov	r0, r6
10004154:	f7ff fd7e 	bl	10003c54 <irq_set_enabled>
10004158:	4b09      	ldr	r3, [pc, #36]	@ (10004180 <runtime_init_default_alarm_pool+0xf8>)
1000415a:	210a      	movs	r1, #10
1000415c:	641f      	str	r7, [r3, #64]	@ 0x40
1000415e:	4803      	ldr	r0, [pc, #12]	@ (1000416c <runtime_init_default_alarm_pool+0xe4>)
10004160:	e8bd 4ff8 	ldmia.w	sp!, {r3, r4, r5, r6, r7, r8, r9, sl, fp, lr}
10004164:	f7ff bdcc 	b.w	10003d00 <lock_init>
10004168:	20000648 	.word	0x20000648
1000416c:	2000151c 	.word	0x2000151c
10004170:	200010f0 	.word	0x200010f0
10004174:	0010ffff 	.word	0x0010ffff
10004178:	2000118c 	.word	0x2000118c
1000417c:	10003d99 	.word	0x10003d99
10004180:	400b2000 	.word	0x400b2000
10004184:	400b0000 	.word	0x400b0000

10004188 <alarm_pool_add_alarm_at_force_in_context>:
10004188:	4601      	mov	r1, r0
1000418a:	b5f0      	push	{r4, r5, r6, r7, lr}
1000418c:	6900      	ldr	r0, [r0, #16]
1000418e:	f3ef 8710 	mrs	r7, PRIMASK
10004192:	b672      	cpsid	i
10004194:	e8d0 5fcf 	ldaexb	r5, [r0]
10004198:	2401      	movs	r4, #1
1000419a:	2d00      	cmp	r5, #0
1000419c:	d1fa      	bne.n	10004194 <alarm_pool_add_alarm_at_force_in_context+0xc>
1000419e:	e8c0 4f45 	strexb	r5, r4, [r0]
100041a2:	2d00      	cmp	r5, #0
100041a4:	d1f6      	bne.n	10004194 <alarm_pool_add_alarm_at_force_in_context+0xc>
100041a6:	f3bf 8f5f 	dmb	sy
100041aa:	f9b1 e002 	ldrsh.w	lr, [r1, #2]
100041ae:	694c      	ldr	r4, [r1, #20]
100041b0:	eb0e 0c4e 	add.w	ip, lr, lr, lsl #1
100041b4:	f1be 0f00 	cmp.w	lr, #0
100041b8:	ea4f 05cc 	mov.w	r5, ip, lsl #3
100041bc:	6908      	ldr	r0, [r1, #16]
100041be:	eb04 0ccc 	add.w	ip, r4, ip, lsl #3
100041c2:	db3c      	blt.n	1000423e <alarm_pool_add_alarm_at_force_in_context+0xb6>
100041c4:	5b66      	ldrh	r6, [r4, r5]
100041c6:	804e      	strh	r6, [r1, #2]
100041c8:	2600      	movs	r6, #0
100041ca:	e8c0 6f8f 	stlb	r6, [r0]
100041ce:	f387 8810 	msr	PRIMASK, r7
100041d2:	f8bc 0002 	ldrh.w	r0, [ip, #2]
100041d6:	e9cc 2302 	strd	r2, r3, [ip, #8]
100041da:	3001      	adds	r0, #1
100041dc:	f3c0 000e 	ubfx	r0, r0, #0, #15
100041e0:	2801      	cmp	r0, #1
100041e2:	bf38      	it	cc
100041e4:	2001      	movcc	r0, #1
100041e6:	9b05      	ldr	r3, [sp, #20]
100041e8:	f8ac 0002 	strh.w	r0, [ip, #2]
100041ec:	f8cc 3010 	str.w	r3, [ip, #16]
100041f0:	9b06      	ldr	r3, [sp, #24]
100041f2:	ea40 400e 	orr.w	r0, r0, lr, lsl #16
100041f6:	f8cc 3014 	str.w	r3, [ip, #20]
100041fa:	690b      	ldr	r3, [r1, #16]
100041fc:	f3ef 8210 	mrs	r2, PRIMASK
10004200:	b672      	cpsid	i
10004202:	e8d3 cfcf 	ldaexb	ip, [r3]
10004206:	2701      	movs	r7, #1
10004208:	f1bc 0f00 	cmp.w	ip, #0
1000420c:	d1f9      	bne.n	10004202 <alarm_pool_add_alarm_at_force_in_context+0x7a>
1000420e:	e8c3 7f4c 	strexb	ip, r7, [r3]
10004212:	f1bc 0f00 	cmp.w	ip, #0
10004216:	d1f4      	bne.n	10004202 <alarm_pool_add_alarm_at_force_in_context+0x7a>
10004218:	f3bf 8f5f 	dmb	sy
1000421c:	888b      	ldrh	r3, [r1, #4]
1000421e:	5363      	strh	r3, [r4, r5]
10004220:	f8a1 e004 	strh.w	lr, [r1, #4]
10004224:	690b      	ldr	r3, [r1, #16]
10004226:	e8c3 6f8f 	stlb	r6, [r3]
1000422a:	f382 8810 	msr	PRIMASK, r2
1000422e:	2201      	movs	r2, #1
10004230:	68cb      	ldr	r3, [r1, #12]
10004232:	7809      	ldrb	r1, [r1, #0]
10004234:	f503 5301 	add.w	r3, r3, #8256	@ 0x2040
10004238:	408a      	lsls	r2, r1
1000423a:	605a      	str	r2, [r3, #4]
1000423c:	bdf0      	pop	{r4, r5, r6, r7, pc}
1000423e:	2300      	movs	r3, #0
10004240:	e8c0 3f8f 	stlb	r3, [r0]
10004244:	f387 8810 	msr	PRIMASK, r7
10004248:	f04f 30ff 	mov.w	r0, #4294967295	@ 0xffffffff
1000424c:	bdf0      	pop	{r4, r5, r6, r7, pc}
1000424e:	bf00      	nop

10004250 <alarm_pool_cancel_alarm>:
10004250:	4603      	mov	r3, r0
10004252:	8940      	ldrh	r0, [r0, #10]
10004254:	ebb0 4f21 	cmp.w	r0, r1, asr #16
10004258:	dd37      	ble.n	100042ca <alarm_pool_cancel_alarm+0x7a>
1000425a:	6958      	ldr	r0, [r3, #20]
1000425c:	140a      	asrs	r2, r1, #16
1000425e:	eb02 0242 	add.w	r2, r2, r2, lsl #1
10004262:	b510      	push	{r4, lr}
10004264:	eb00 00c2 	add.w	r0, r0, r2, lsl #3
10004268:	691c      	ldr	r4, [r3, #16]
1000426a:	f3ef 8c10 	mrs	ip, PRIMASK
1000426e:	b672      	cpsid	i
10004270:	e8d4 efcf 	ldaexb	lr, [r4]
10004274:	2201      	movs	r2, #1
10004276:	f1be 0f00 	cmp.w	lr, #0
1000427a:	d1f9      	bne.n	10004270 <alarm_pool_cancel_alarm+0x20>
1000427c:	e8c4 2f4e 	strexb	lr, r2, [r4]
10004280:	f1be 0f00 	cmp.w	lr, #0
10004284:	d1f4      	bne.n	10004270 <alarm_pool_cancel_alarm+0x20>
10004286:	f3bf 8f5f 	dmb	sy
1000428a:	8842      	ldrh	r2, [r0, #2]
1000428c:	b289      	uxth	r1, r1
1000428e:	b292      	uxth	r2, r2
10004290:	428a      	cmp	r2, r1
10004292:	d007      	beq.n	100042a4 <alarm_pool_cancel_alarm+0x54>
10004294:	2200      	movs	r2, #0
10004296:	691b      	ldr	r3, [r3, #16]
10004298:	e8c3 2f8f 	stlb	r2, [r3]
1000429c:	f38c 8810 	msr	PRIMASK, ip
100042a0:	2000      	movs	r0, #0
100042a2:	bd10      	pop	{r4, pc}
100042a4:	f442 4200 	orr.w	r2, r2, #32768	@ 0x8000
100042a8:	8042      	strh	r2, [r0, #2]
100042aa:	2101      	movs	r1, #1
100042ac:	2200      	movs	r2, #0
100042ae:	6918      	ldr	r0, [r3, #16]
100042b0:	7199      	strb	r1, [r3, #6]
100042b2:	e8c0 2f8f 	stlb	r2, [r0]
100042b6:	f38c 8810 	msr	PRIMASK, ip
100042ba:	781c      	ldrb	r4, [r3, #0]
100042bc:	68da      	ldr	r2, [r3, #12]
100042be:	4608      	mov	r0, r1
100042c0:	f502 5301 	add.w	r3, r2, #8256	@ 0x2040
100042c4:	40a1      	lsls	r1, r4
100042c6:	6059      	str	r1, [r3, #4]
100042c8:	bd10      	pop	{r4, pc}
100042ca:	2000      	movs	r0, #0
100042cc:	4770      	bx	lr
100042ce:	bf00      	nop

100042d0 <best_effort_wfe_or_timeout>:
100042d0:	e92d 43f0 	stmdb	sp!, {r4, r5, r6, r7, r8, r9, lr}
100042d4:	4606      	mov	r6, r0
100042d6:	460d      	mov	r5, r1
100042d8:	b083      	sub	sp, #12
100042da:	f3ef 8405 	mrs	r4, IPSR
100042de:	b2e4      	uxtb	r4, r4
100042e0:	b13c      	cbz	r4, 100042f2 <best_effort_wfe_or_timeout+0x22>
100042e2:	4b2d      	ldr	r3, [pc, #180]	@ (10004398 <best_effort_wfe_or_timeout+0xc8>)
100042e4:	6a5a      	ldr	r2, [r3, #36]	@ 0x24
100042e6:	42aa      	cmp	r2, r5
100042e8:	d21c      	bcs.n	10004324 <best_effort_wfe_or_timeout+0x54>
100042ea:	2000      	movs	r0, #0
100042ec:	b003      	add	sp, #12
100042ee:	e8bd 83f0 	ldmia.w	sp!, {r4, r5, r6, r7, r8, r9, pc}
100042f2:	4f2a      	ldr	r7, [pc, #168]	@ (1000439c <best_effort_wfe_or_timeout+0xcc>)
100042f4:	f8d7 900c 	ldr.w	r9, [r7, #12]
100042f8:	f897 8000 	ldrb.w	r8, [r7]
100042fc:	4648      	mov	r0, r9
100042fe:	f000 f863 	bl	100043c8 <timer_time_us_64>
10004302:	f108 0804 	add.w	r8, r8, #4
10004306:	f859 3028 	ldr.w	r3, [r9, r8, lsl #2]
1000430a:	1a1b      	subs	r3, r3, r0
1000430c:	1a30      	subs	r0, r6, r0
1000430e:	eb65 0101 	sbc.w	r1, r5, r1
10004312:	4298      	cmp	r0, r3
10004314:	f171 0100 	sbcs.w	r1, r1, #0
10004318:	db10      	blt.n	1000433c <best_effort_wfe_or_timeout+0x6c>
1000431a:	bf20      	wfe
1000431c:	4b1e      	ldr	r3, [pc, #120]	@ (10004398 <best_effort_wfe_or_timeout+0xc8>)
1000431e:	6a5a      	ldr	r2, [r3, #36]	@ 0x24
10004320:	42aa      	cmp	r2, r5
10004322:	d3e2      	bcc.n	100042ea <best_effort_wfe_or_timeout+0x1a>
10004324:	bf14      	ite	ne
10004326:	2401      	movne	r4, #1
10004328:	2400      	moveq	r4, #0
1000432a:	6a9b      	ldr	r3, [r3, #40]	@ 0x28
1000432c:	42b3      	cmp	r3, r6
1000432e:	bf34      	ite	cc
10004330:	4620      	movcc	r0, r4
10004332:	f044 0001 	orrcs.w	r0, r4, #1
10004336:	b003      	add	sp, #12
10004338:	e8bd 83f0 	ldmia.w	sp!, {r4, r5, r6, r7, r8, r9, pc}
1000433c:	f000 f84c 	bl	100043d8 <time_us_64>
10004340:	4286      	cmp	r6, r0
10004342:	eb65 0101 	sbc.w	r1, r5, r1
10004346:	2900      	cmp	r1, #0
10004348:	db14      	blt.n	10004374 <best_effort_wfe_or_timeout+0xa4>
1000434a:	4b15      	ldr	r3, [pc, #84]	@ (100043a0 <best_effort_wfe_or_timeout+0xd0>)
1000434c:	4638      	mov	r0, r7
1000434e:	e9cd 3400 	strd	r3, r4, [sp]
10004352:	4632      	mov	r2, r6
10004354:	462b      	mov	r3, r5
10004356:	f7ff ff17 	bl	10004188 <alarm_pool_add_alarm_at_force_in_context>
1000435a:	1e01      	subs	r1, r0, #0
1000435c:	dd0a      	ble.n	10004374 <best_effort_wfe_or_timeout+0xa4>
1000435e:	4b0e      	ldr	r3, [pc, #56]	@ (10004398 <best_effort_wfe_or_timeout+0xc8>)
10004360:	6a5a      	ldr	r2, [r3, #36]	@ 0x24
10004362:	42aa      	cmp	r2, r5
10004364:	d316      	bcc.n	10004394 <best_effort_wfe_or_timeout+0xc4>
10004366:	6a9b      	ldr	r3, [r3, #40]	@ 0x28
10004368:	42b3      	cmp	r3, r6
1000436a:	d311      	bcc.n	10004390 <best_effort_wfe_or_timeout+0xc0>
1000436c:	480b      	ldr	r0, [pc, #44]	@ (1000439c <best_effort_wfe_or_timeout+0xcc>)
1000436e:	f7ff ff6f 	bl	10004250 <alarm_pool_cancel_alarm>
10004372:	e7b6      	b.n	100042e2 <best_effort_wfe_or_timeout+0x12>
10004374:	4b08      	ldr	r3, [pc, #32]	@ (10004398 <best_effort_wfe_or_timeout+0xc8>)
10004376:	6a5c      	ldr	r4, [r3, #36]	@ 0x24
10004378:	42ac      	cmp	r4, r5
1000437a:	d3b6      	bcc.n	100042ea <best_effort_wfe_or_timeout+0x1a>
1000437c:	1b64      	subs	r4, r4, r5
1000437e:	bf18      	it	ne
10004380:	2401      	movne	r4, #1
10004382:	6a9b      	ldr	r3, [r3, #40]	@ 0x28
10004384:	42b3      	cmp	r3, r6
10004386:	bf34      	ite	cc
10004388:	4620      	movcc	r0, r4
1000438a:	f044 0001 	orrcs.w	r0, r4, #1
1000438e:	e7ad      	b.n	100042ec <best_effort_wfe_or_timeout+0x1c>
10004390:	42aa      	cmp	r2, r5
10004392:	d1eb      	bne.n	1000436c <best_effort_wfe_or_timeout+0x9c>
10004394:	bf20      	wfe
10004396:	e7e9      	b.n	1000436c <best_effort_wfe_or_timeout+0x9c>
10004398:	400b0000 	.word	0x400b0000
1000439c:	20000648 	.word	0x20000648
100043a0:	10003d59 	.word	0x10003d59

100043a4 <timer_hardware_alarm_claim>:
100043a4:	b410      	push	{r4}
100043a6:	4b05      	ldr	r3, [pc, #20]	@ (100043bc <timer_hardware_alarm_claim+0x18>)
100043a8:	4c05      	ldr	r4, [pc, #20]	@ (100043c0 <timer_hardware_alarm_claim+0x1c>)
100043aa:	4a06      	ldr	r2, [pc, #24]	@ (100043c4 <timer_hardware_alarm_claim+0x20>)
100043ac:	42a0      	cmp	r0, r4
100043ae:	bf14      	ite	ne
100043b0:	4618      	movne	r0, r3
100043b2:	1c58      	addeq	r0, r3, #1
100043b4:	f85d 4b04 	ldr.w	r4, [sp], #4
100043b8:	f7ff bba0 	b.w	10003afc <hw_claim_or_assert>
100043bc:	20001120 	.word	0x20001120
100043c0:	400b8000 	.word	0x400b8000
100043c4:	1000d130 	.word	0x1000d130

100043c8 <timer_time_us_64>:
100043c8:	4603      	mov	r3, r0
100043ca:	6a41      	ldr	r1, [r0, #36]	@ 0x24
100043cc:	460a      	mov	r2, r1
100043ce:	6a98      	ldr	r0, [r3, #40]	@ 0x28
100043d0:	6a59      	ldr	r1, [r3, #36]	@ 0x24
100043d2:	428a      	cmp	r2, r1
100043d4:	d1fa      	bne.n	100043cc <timer_time_us_64+0x4>
100043d6:	4770      	bx	lr

100043d8 <time_us_64>:
100043d8:	4b03      	ldr	r3, [pc, #12]	@ (100043e8 <time_us_64+0x10>)
100043da:	6a59      	ldr	r1, [r3, #36]	@ 0x24
100043dc:	460a      	mov	r2, r1
100043de:	6a98      	ldr	r0, [r3, #40]	@ 0x28
100043e0:	6a59      	ldr	r1, [r3, #36]	@ 0x24
100043e2:	4291      	cmp	r1, r2
100043e4:	d1fa      	bne.n	100043dc <time_us_64+0x4>
100043e6:	4770      	bx	lr
100043e8:	400b0000 	.word	0x400b0000

100043ec <clock_configure_undivided>:
100043ec:	eb00 0c40 	add.w	ip, r0, r0, lsl #1
100043f0:	ea4f 0c8c 	mov.w	ip, ip, lsl #2
100043f4:	f10c 4c80 	add.w	ip, ip, #1073741824	@ 0x40000000
100043f8:	f50c 3c80 	add.w	ip, ip, #65536	@ 0x10000
100043fc:	b5f0      	push	{r4, r5, r6, r7, lr}
100043fe:	4616      	mov	r6, r2
10004400:	f8dc 2004 	ldr.w	r2, [ip, #4]
10004404:	1f05      	subs	r5, r0, #4
10004406:	f5b2 3f80 	cmp.w	r2, #65536	@ 0x10000
1000440a:	bf38      	it	cc
1000440c:	f44f 3280 	movcc.w	r2, #65536	@ 0x10000
10004410:	b2ed      	uxtb	r5, r5
10004412:	bf38      	it	cc
10004414:	f8cc 2004 	strcc.w	r2, [ip, #4]
10004418:	2d01      	cmp	r5, #1
1000441a:	d92a      	bls.n	10004472 <clock_configure_undivided+0x86>
1000441c:	f44f 6700 	mov.w	r7, #2048	@ 0x800
10004420:	4c25      	ldr	r4, [pc, #148]	@ (100044b8 <clock_configure_undivided+0xcc>)
10004422:	f50c 5240 	add.w	r2, ip, #12288	@ 0x3000
10004426:	6017      	str	r7, [r2, #0]
10004428:	f854 2020 	ldr.w	r2, [r4, r0, lsl #2]
1000442c:	b9b2      	cbnz	r2, 1000445c <clock_configure_undivided+0x70>
1000442e:	f8dc 2000 	ldr.w	r2, [ip]
10004432:	2d01      	cmp	r5, #1
10004434:	ea82 1246 	eor.w	r2, r2, r6, lsl #5
10004438:	f002 02e0 	and.w	r2, r2, #224	@ 0xe0
1000443c:	f50c 5680 	add.w	r6, ip, #4096	@ 0x1000
10004440:	6032      	str	r2, [r6, #0]
10004442:	d92a      	bls.n	1000449a <clock_configure_undivided+0xae>
10004444:	f44f 6100 	mov.w	r1, #2048	@ 0x800
10004448:	f844 3020 	str.w	r3, [r4, r0, lsl #2]
1000444c:	f44f 3380 	mov.w	r3, #65536	@ 0x10000
10004450:	f50c 5200 	add.w	r2, ip, #8192	@ 0x2000
10004454:	6011      	str	r1, [r2, #0]
10004456:	f8cc 3004 	str.w	r3, [ip, #4]
1000445a:	bdf0      	pop	{r4, r5, r6, r7, pc}
1000445c:	6967      	ldr	r7, [r4, #20]
1000445e:	fbb7 fef2 	udiv	lr, r7, r2
10004462:	f10e 0e01 	add.w	lr, lr, #1
10004466:	eb0e 0e4e 	add.w	lr, lr, lr, lsl #1
1000446a:	f1be 0e03 	subs.w	lr, lr, #3
1000446e:	d2fc      	bcs.n	1000446a <clock_configure_undivided+0x7e>
10004470:	e7dd      	b.n	1000442e <clock_configure_undivided+0x42>
10004472:	2901      	cmp	r1, #1
10004474:	d1d2      	bne.n	1000441c <clock_configure_undivided+0x30>
10004476:	2403      	movs	r4, #3
10004478:	f50c 5240 	add.w	r2, ip, #12288	@ 0x3000
1000447c:	6014      	str	r4, [r2, #0]
1000447e:	f8dc 2008 	ldr.w	r2, [ip, #8]
10004482:	07d2      	lsls	r2, r2, #31
10004484:	d5fb      	bpl.n	1000447e <clock_configure_undivided+0x92>
10004486:	f8dc 2000 	ldr.w	r2, [ip]
1000448a:	4c0b      	ldr	r4, [pc, #44]	@ (100044b8 <clock_configure_undivided+0xcc>)
1000448c:	ea82 1246 	eor.w	r2, r2, r6, lsl #5
10004490:	f002 02e0 	and.w	r2, r2, #224	@ 0xe0
10004494:	f50c 5680 	add.w	r6, ip, #4096	@ 0x1000
10004498:	6032      	str	r2, [r6, #0]
1000449a:	2201      	movs	r2, #1
1000449c:	f8dc 5000 	ldr.w	r5, [ip]
100044a0:	404d      	eors	r5, r1
100044a2:	f005 0503 	and.w	r5, r5, #3
100044a6:	6035      	str	r5, [r6, #0]
100044a8:	fa02 f101 	lsl.w	r1, r2, r1
100044ac:	f8dc 2008 	ldr.w	r2, [ip, #8]
100044b0:	420a      	tst	r2, r1
100044b2:	d0fb      	beq.n	100044ac <clock_configure_undivided+0xc0>
100044b4:	e7c6      	b.n	10004444 <clock_configure_undivided+0x58>
100044b6:	bf00      	nop
100044b8:	20001128 	.word	0x20001128

100044bc <clock_get_hz>:
100044bc:	4b01      	ldr	r3, [pc, #4]	@ (100044c4 <clock_get_hz+0x8>)
100044be:	f853 0020 	ldr.w	r0, [r3, r0, lsl #2]
100044c2:	4770      	bx	lr
100044c4:	20001128 	.word	0x20001128

100044c8 <set_sys_clock_pll>:
100044c8:	4b58      	ldr	r3, [pc, #352]	@ (1000462c <set_sys_clock_pll+0x164>)
100044ca:	e92d 43f0 	stmdb	sp!, {r4, r5, r6, r7, r8, r9, lr}
100044ce:	6c1c      	ldr	r4, [r3, #64]	@ 0x40
100044d0:	4617      	mov	r7, r2
100044d2:	f5b4 3f80 	cmp.w	r4, #65536	@ 0x10000
100044d6:	bf38      	it	cc
100044d8:	f44f 3280 	movcc.w	r2, #65536	@ 0x10000
100044dc:	b083      	sub	sp, #12
100044de:	bf38      	it	cc
100044e0:	641a      	strcc	r2, [r3, #64]	@ 0x40
100044e2:	2203      	movs	r2, #3
100044e4:	4680      	mov	r8, r0
100044e6:	460e      	mov	r6, r1
100044e8:	4b51      	ldr	r3, [pc, #324]	@ (10004630 <set_sys_clock_pll+0x168>)
100044ea:	4d50      	ldr	r5, [pc, #320]	@ (1000462c <set_sys_clock_pll+0x164>)
100044ec:	63da      	str	r2, [r3, #60]	@ 0x3c
100044ee:	6c6c      	ldr	r4, [r5, #68]	@ 0x44
100044f0:	07e3      	lsls	r3, r4, #31
100044f2:	d5fc      	bpl.n	100044ee <set_sys_clock_pll+0x26>
100044f4:	6beb      	ldr	r3, [r5, #60]	@ 0x3c
100044f6:	4a4f      	ldr	r2, [pc, #316]	@ (10004634 <set_sys_clock_pll+0x16c>)
100044f8:	f083 0320 	eor.w	r3, r3, #32
100044fc:	f003 03e0 	and.w	r3, r3, #224	@ 0xe0
10004500:	63d3      	str	r3, [r2, #60]	@ 0x3c
10004502:	6beb      	ldr	r3, [r5, #60]	@ 0x3c
10004504:	4d49      	ldr	r5, [pc, #292]	@ (1000462c <set_sys_clock_pll+0x164>)
10004506:	f083 0301 	eor.w	r3, r3, #1
1000450a:	f003 0303 	and.w	r3, r3, #3
1000450e:	63d3      	str	r3, [r2, #60]	@ 0x3c
10004510:	6c6c      	ldr	r4, [r5, #68]	@ 0x44
10004512:	07a4      	lsls	r4, r4, #30
10004514:	d5fc      	bpl.n	10004510 <set_sys_clock_pll+0x48>
10004516:	f44f 6200 	mov.w	r2, #2048	@ 0x800
1000451a:	f44f 3980 	mov.w	r9, #65536	@ 0x10000
1000451e:	4b46      	ldr	r3, [pc, #280]	@ (10004638 <set_sys_clock_pll+0x170>)
10004520:	4c46      	ldr	r4, [pc, #280]	@ (1000463c <set_sys_clock_pll+0x174>)
10004522:	63da      	str	r2, [r3, #60]	@ 0x3c
10004524:	4b46      	ldr	r3, [pc, #280]	@ (10004640 <set_sys_clock_pll+0x178>)
10004526:	4642      	mov	r2, r8
10004528:	6163      	str	r3, [r4, #20]
1000452a:	2101      	movs	r1, #1
1000452c:	4633      	mov	r3, r6
1000452e:	f8c5 9040 	str.w	r9, [r5, #64]	@ 0x40
10004532:	4844      	ldr	r0, [pc, #272]	@ (10004644 <set_sys_clock_pll+0x17c>)
10004534:	9700      	str	r7, [sp, #0]
10004536:	f000 f957 	bl	100047e8 <pll_init>
1000453a:	f44f 6100 	mov.w	r1, #2048	@ 0x800
1000453e:	6b6b      	ldr	r3, [r5, #52]	@ 0x34
10004540:	fb07 f606 	mul.w	r6, r7, r6
10004544:	454b      	cmp	r3, r9
10004546:	bf38      	it	cc
10004548:	f8c5 9034 	strcc.w	r9, [r5, #52]	@ 0x34
1000454c:	4b38      	ldr	r3, [pc, #224]	@ (10004630 <set_sys_clock_pll+0x168>)
1000454e:	6922      	ldr	r2, [r4, #16]
10004550:	fbb8 f6f6 	udiv	r6, r8, r6
10004554:	6319      	str	r1, [r3, #48]	@ 0x30
10004556:	b13a      	cbz	r2, 10004568 <set_sys_clock_pll+0xa0>
10004558:	6963      	ldr	r3, [r4, #20]
1000455a:	fbb3 f3f2 	udiv	r3, r3, r2
1000455e:	3301      	adds	r3, #1
10004560:	eb03 0343 	add.w	r3, r3, r3, lsl #1
10004564:	3b03      	subs	r3, #3
10004566:	d2fd      	bcs.n	10004564 <set_sys_clock_pll+0x9c>
10004568:	4930      	ldr	r1, [pc, #192]	@ (1000462c <set_sys_clock_pll+0x164>)
1000456a:	4a32      	ldr	r2, [pc, #200]	@ (10004634 <set_sys_clock_pll+0x16c>)
1000456c:	6b0b      	ldr	r3, [r1, #48]	@ 0x30
1000456e:	f003 03e0 	and.w	r3, r3, #224	@ 0xe0
10004572:	6313      	str	r3, [r2, #48]	@ 0x30
10004574:	6b0b      	ldr	r3, [r1, #48]	@ 0x30
10004576:	f083 0302 	eor.w	r3, r3, #2
1000457a:	f003 0303 	and.w	r3, r3, #3
1000457e:	6313      	str	r3, [r2, #48]	@ 0x30
10004580:	6b8b      	ldr	r3, [r1, #56]	@ 0x38
10004582:	0758      	lsls	r0, r3, #29
10004584:	d5fc      	bpl.n	10004580 <set_sys_clock_pll+0xb8>
10004586:	f44f 6500 	mov.w	r5, #2048	@ 0x800
1000458a:	f44f 3380 	mov.w	r3, #65536	@ 0x10000
1000458e:	4a2a      	ldr	r2, [pc, #168]	@ (10004638 <set_sys_clock_pll+0x170>)
10004590:	6315      	str	r5, [r2, #48]	@ 0x30
10004592:	4a2d      	ldr	r2, [pc, #180]	@ (10004648 <set_sys_clock_pll+0x180>)
10004594:	634b      	str	r3, [r1, #52]	@ 0x34
10004596:	6122      	str	r2, [r4, #16]
10004598:	6c0a      	ldr	r2, [r1, #64]	@ 0x40
1000459a:	429a      	cmp	r2, r3
1000459c:	f04f 0203 	mov.w	r2, #3
100045a0:	bf38      	it	cc
100045a2:	640b      	strcc	r3, [r1, #64]	@ 0x40
100045a4:	4b22      	ldr	r3, [pc, #136]	@ (10004630 <set_sys_clock_pll+0x168>)
100045a6:	4921      	ldr	r1, [pc, #132]	@ (1000462c <set_sys_clock_pll+0x164>)
100045a8:	63da      	str	r2, [r3, #60]	@ 0x3c
100045aa:	6c4b      	ldr	r3, [r1, #68]	@ 0x44
100045ac:	07da      	lsls	r2, r3, #31
100045ae:	d5fc      	bpl.n	100045aa <set_sys_clock_pll+0xe2>
100045b0:	6bcb      	ldr	r3, [r1, #60]	@ 0x3c
100045b2:	4a20      	ldr	r2, [pc, #128]	@ (10004634 <set_sys_clock_pll+0x16c>)
100045b4:	f003 03e0 	and.w	r3, r3, #224	@ 0xe0
100045b8:	63d3      	str	r3, [r2, #60]	@ 0x3c
100045ba:	6bcb      	ldr	r3, [r1, #60]	@ 0x3c
100045bc:	491b      	ldr	r1, [pc, #108]	@ (1000462c <set_sys_clock_pll+0x164>)
100045be:	f083 0301 	eor.w	r3, r3, #1
100045c2:	f003 0303 	and.w	r3, r3, #3
100045c6:	63d3      	str	r3, [r2, #60]	@ 0x3c
100045c8:	6c4b      	ldr	r3, [r1, #68]	@ 0x44
100045ca:	079b      	lsls	r3, r3, #30
100045cc:	d5fc      	bpl.n	100045c8 <set_sys_clock_pll+0x100>
100045ce:	f44f 3380 	mov.w	r3, #65536	@ 0x10000
100045d2:	f44f 6500 	mov.w	r5, #2048	@ 0x800
100045d6:	4a18      	ldr	r2, [pc, #96]	@ (10004638 <set_sys_clock_pll+0x170>)
100045d8:	6166      	str	r6, [r4, #20]
100045da:	63d5      	str	r5, [r2, #60]	@ 0x3c
100045dc:	640b      	str	r3, [r1, #64]	@ 0x40
100045de:	6cca      	ldr	r2, [r1, #76]	@ 0x4c
100045e0:	429a      	cmp	r2, r3
100045e2:	bf38      	it	cc
100045e4:	64cb      	strcc	r3, [r1, #76]	@ 0x4c
100045e6:	f44f 6100 	mov.w	r1, #2048	@ 0x800
100045ea:	4b11      	ldr	r3, [pc, #68]	@ (10004630 <set_sys_clock_pll+0x168>)
100045ec:	69a2      	ldr	r2, [r4, #24]
100045ee:	6499      	str	r1, [r3, #72]	@ 0x48
100045f0:	b13a      	cbz	r2, 10004602 <set_sys_clock_pll+0x13a>
100045f2:	6963      	ldr	r3, [r4, #20]
100045f4:	fbb3 f3f2 	udiv	r3, r3, r2
100045f8:	3301      	adds	r3, #1
100045fa:	eb03 0343 	add.w	r3, r3, r3, lsl #1
100045fe:	3b03      	subs	r3, #3
10004600:	d2fd      	bcs.n	100045fe <set_sys_clock_pll+0x136>
10004602:	f44f 6000 	mov.w	r0, #2048	@ 0x800
10004606:	f44f 3180 	mov.w	r1, #65536	@ 0x10000
1000460a:	4a08      	ldr	r2, [pc, #32]	@ (1000462c <set_sys_clock_pll+0x164>)
1000460c:	4d09      	ldr	r5, [pc, #36]	@ (10004634 <set_sys_clock_pll+0x16c>)
1000460e:	6c93      	ldr	r3, [r2, #72]	@ 0x48
10004610:	f083 0340 	eor.w	r3, r3, #64	@ 0x40
10004614:	f003 03e0 	and.w	r3, r3, #224	@ 0xe0
10004618:	64ab      	str	r3, [r5, #72]	@ 0x48
1000461a:	4b07      	ldr	r3, [pc, #28]	@ (10004638 <set_sys_clock_pll+0x170>)
1000461c:	4d08      	ldr	r5, [pc, #32]	@ (10004640 <set_sys_clock_pll+0x178>)
1000461e:	61a5      	str	r5, [r4, #24]
10004620:	6498      	str	r0, [r3, #72]	@ 0x48
10004622:	64d1      	str	r1, [r2, #76]	@ 0x4c
10004624:	b003      	add	sp, #12
10004626:	e8bd 83f0 	ldmia.w	sp!, {r4, r5, r6, r7, r8, r9, pc}
1000462a:	bf00      	nop
1000462c:	40010000 	.word	0x40010000
10004630:	40013000 	.word	0x40013000
10004634:	40011000 	.word	0x40011000
10004638:	40012000 	.word	0x40012000
1000463c:	20001128 	.word	0x20001128
10004640:	02dc6c00 	.word	0x02dc6c00
10004644:	40050000 	.word	0x40050000
10004648:	00b71b00 	.word	0x00b71b00

1000464c <check_sys_clock_khz>:
1000464c:	e92d 4ff0 	stmdb	sp!, {r4, r5, r6, r7, r8, r9, sl, fp, lr}
10004650:	f44f 78a0 	mov.w	r8, #320	@ 0x140
10004654:	4699      	mov	r9, r3
10004656:	b085      	sub	sp, #20
10004658:	e9cd 1202 	strd	r1, r2, [sp, #8]
1000465c:	4c5f      	ldr	r4, [pc, #380]	@ (100047dc <check_sys_clock_khz+0x190>)
1000465e:	f8df a184 	ldr.w	sl, [pc, #388]	@ 100047e4 <check_sys_clock_khz+0x198>
10004662:	4554      	cmp	r4, sl
10004664:	d90a      	bls.n	1000467c <check_sys_clock_khz+0x30>
10004666:	f108 38ff 	add.w	r8, r8, #4294967295	@ 0xffffffff
1000466a:	f5a4 543b 	sub.w	r4, r4, #11968	@ 0x2ec0
1000466e:	f1b8 0f0f 	cmp.w	r8, #15
10004672:	f1a4 0420 	sub.w	r4, r4, #32
10004676:	d1f4      	bne.n	10004662 <check_sys_clock_khz+0x16>
10004678:	2000      	movs	r0, #0
1000467a:	e069      	b.n	10004750 <check_sys_clock_khz+0x104>
1000467c:	2307      	movs	r3, #7
1000467e:	f504 2237 	add.w	r2, r4, #749568	@ 0xb7000
10004682:	9401      	str	r4, [sp, #4]
10004684:	fb03 f403 	mul.w	r4, r3, r3
10004688:	f502 72d8 	add.w	r2, r2, #432	@ 0x1b0
1000468c:	fbb2 fef4 	udiv	lr, r2, r4
10004690:	4570      	cmp	r0, lr
10004692:	f04f 0c01 	mov.w	ip, #1
10004696:	f04f 0702 	mov.w	r7, #2
1000469a:	f04f 0603 	mov.w	r6, #3
1000469e:	f04f 0504 	mov.w	r5, #4
100046a2:	f04f 0105 	mov.w	r1, #5
100046a6:	d03f      	beq.n	10004728 <check_sys_clock_khz+0xdc>
100046a8:	f1b3 0e01 	subs.w	lr, r3, #1
100046ac:	f000 8094 	beq.w	100047d8 <check_sys_clock_khz+0x18c>
100046b0:	fb0e f403 	mul.w	r4, lr, r3
100046b4:	fbb2 fbf4 	udiv	fp, r2, r4
100046b8:	4558      	cmp	r0, fp
100046ba:	d04c      	beq.n	10004756 <check_sys_clock_khz+0x10a>
100046bc:	b319      	cbz	r1, 10004706 <check_sys_clock_khz+0xba>
100046be:	fb01 f403 	mul.w	r4, r1, r3
100046c2:	fbb2 fbf4 	udiv	fp, r2, r4
100046c6:	4558      	cmp	r0, fp
100046c8:	d04f      	beq.n	1000476a <check_sys_clock_khz+0x11e>
100046ca:	b1e5      	cbz	r5, 10004706 <check_sys_clock_khz+0xba>
100046cc:	fb05 f403 	mul.w	r4, r5, r3
100046d0:	fbb2 fbf4 	udiv	fp, r2, r4
100046d4:	4558      	cmp	r0, fp
100046d6:	d053      	beq.n	10004780 <check_sys_clock_khz+0x134>
100046d8:	b1ae      	cbz	r6, 10004706 <check_sys_clock_khz+0xba>
100046da:	fb06 f403 	mul.w	r4, r6, r3
100046de:	fbb2 fbf4 	udiv	fp, r2, r4
100046e2:	4558      	cmp	r0, fp
100046e4:	d057      	beq.n	10004796 <check_sys_clock_khz+0x14a>
100046e6:	b177      	cbz	r7, 10004706 <check_sys_clock_khz+0xba>
100046e8:	fb07 f403 	mul.w	r4, r7, r3
100046ec:	fbb2 fbf4 	udiv	fp, r2, r4
100046f0:	4558      	cmp	r0, fp
100046f2:	d05b      	beq.n	100047ac <check_sys_clock_khz+0x160>
100046f4:	f1bc 0f00 	cmp.w	ip, #0
100046f8:	d005      	beq.n	10004706 <check_sys_clock_khz+0xba>
100046fa:	fb0c f403 	mul.w	r4, ip, r3
100046fe:	fbb2 fbf4 	udiv	fp, r2, r4
10004702:	4583      	cmp	fp, r0
10004704:	d05d      	beq.n	100047c2 <check_sys_clock_khz+0x176>
10004706:	4673      	mov	r3, lr
10004708:	fb03 f403 	mul.w	r4, r3, r3
1000470c:	fbb2 fef4 	udiv	lr, r2, r4
10004710:	4570      	cmp	r0, lr
10004712:	f101 31ff 	add.w	r1, r1, #4294967295	@ 0xffffffff
10004716:	f105 35ff 	add.w	r5, r5, #4294967295	@ 0xffffffff
1000471a:	f106 36ff 	add.w	r6, r6, #4294967295	@ 0xffffffff
1000471e:	f107 37ff 	add.w	r7, r7, #4294967295	@ 0xffffffff
10004722:	f10c 3cff 	add.w	ip, ip, #4294967295	@ 0xffffffff
10004726:	d1bf      	bne.n	100046a8 <check_sys_clock_khz+0x5c>
10004728:	fb04 2410 	mls	r4, r4, r0, r2
1000472c:	2c00      	cmp	r4, #0
1000472e:	d1bb      	bne.n	100046a8 <check_sys_clock_khz+0x5c>
10004730:	469e      	mov	lr, r3
10004732:	464a      	mov	r2, r9
10004734:	f8dd b008 	ldr.w	fp, [sp, #8]
10004738:	f8dd 900c 	ldr.w	r9, [sp, #12]
1000473c:	2001      	movs	r0, #1
1000473e:	4928      	ldr	r1, [pc, #160]	@ (100047e0 <check_sys_clock_khz+0x194>)
10004740:	fb01 f108 	mul.w	r1, r1, r8
10004744:	f8cb 1000 	str.w	r1, [fp]
10004748:	f8c9 3000 	str.w	r3, [r9]
1000474c:	f8c2 e000 	str.w	lr, [r2]
10004750:	b005      	add	sp, #20
10004752:	e8bd 8ff0 	ldmia.w	sp!, {r4, r5, r6, r7, r8, r9, sl, fp, pc}
10004756:	fb04 2410 	mls	r4, r4, r0, r2
1000475a:	2c00      	cmp	r4, #0
1000475c:	d1ae      	bne.n	100046bc <check_sys_clock_khz+0x70>
1000475e:	464a      	mov	r2, r9
10004760:	f8dd b008 	ldr.w	fp, [sp, #8]
10004764:	f8dd 900c 	ldr.w	r9, [sp, #12]
10004768:	e7e8      	b.n	1000473c <check_sys_clock_khz+0xf0>
1000476a:	fb04 2410 	mls	r4, r4, r0, r2
1000476e:	2c00      	cmp	r4, #0
10004770:	d1ab      	bne.n	100046ca <check_sys_clock_khz+0x7e>
10004772:	464a      	mov	r2, r9
10004774:	468e      	mov	lr, r1
10004776:	f8dd b008 	ldr.w	fp, [sp, #8]
1000477a:	f8dd 900c 	ldr.w	r9, [sp, #12]
1000477e:	e7dd      	b.n	1000473c <check_sys_clock_khz+0xf0>
10004780:	fb04 2410 	mls	r4, r4, r0, r2
10004784:	2c00      	cmp	r4, #0
10004786:	d1a7      	bne.n	100046d8 <check_sys_clock_khz+0x8c>
10004788:	464a      	mov	r2, r9
1000478a:	46ae      	mov	lr, r5
1000478c:	f8dd b008 	ldr.w	fp, [sp, #8]
10004790:	f8dd 900c 	ldr.w	r9, [sp, #12]
10004794:	e7d2      	b.n	1000473c <check_sys_clock_khz+0xf0>
10004796:	fb04 2410 	mls	r4, r4, r0, r2
1000479a:	2c00      	cmp	r4, #0
1000479c:	d1a3      	bne.n	100046e6 <check_sys_clock_khz+0x9a>
1000479e:	464a      	mov	r2, r9
100047a0:	46b6      	mov	lr, r6
100047a2:	f8dd b008 	ldr.w	fp, [sp, #8]
100047a6:	f8dd 900c 	ldr.w	r9, [sp, #12]
100047aa:	e7c7      	b.n	1000473c <check_sys_clock_khz+0xf0>
100047ac:	fb04 2410 	mls	r4, r4, r0, r2
100047b0:	2c00      	cmp	r4, #0
100047b2:	d19f      	bne.n	100046f4 <check_sys_clock_khz+0xa8>
100047b4:	464a      	mov	r2, r9
100047b6:	46be      	mov	lr, r7
100047b8:	f8dd b008 	ldr.w	fp, [sp, #8]
100047bc:	f8dd 900c 	ldr.w	r9, [sp, #12]
100047c0:	e7bc      	b.n	1000473c <check_sys_clock_khz+0xf0>
100047c2:	fb04 2410 	mls	r4, r4, r0, r2
100047c6:	2c00      	cmp	r4, #0
100047c8:	d19d      	bne.n	10004706 <check_sys_clock_khz+0xba>
100047ca:	464a      	mov	r2, r9
100047cc:	46e6      	mov	lr, ip
100047ce:	f8dd b008 	ldr.w	fp, [sp, #8]
100047d2:	f8dd 900c 	ldr.w	r9, [sp, #12]
100047d6:	e7b1      	b.n	1000473c <check_sys_clock_khz+0xf0>
100047d8:	9c01      	ldr	r4, [sp, #4]
100047da:	e744      	b.n	10004666 <check_sys_clock_khz+0x1a>
100047dc:	002f2650 	.word	0x002f2650
100047e0:	00b71b00 	.word	0x00b71b00
100047e4:	000cf850 	.word	0x000cf850

100047e8 <pll_init>:
100047e8:	b470      	push	{r4, r5, r6}
100047ea:	9d03      	ldr	r5, [sp, #12]
100047ec:	6804      	ldr	r4, [r0, #0]
100047ee:	032d      	lsls	r5, r5, #12
100047f0:	ea45 4503 	orr.w	r5, r5, r3, lsl #16
100047f4:	4b1b      	ldr	r3, [pc, #108]	@ (10004864 <pll_init+0x7c>)
100047f6:	2c00      	cmp	r4, #0
100047f8:	fbb3 f3f1 	udiv	r3, r3, r1
100047fc:	fbb2 f6f3 	udiv	r6, r2, r3
10004800:	db1f      	blt.n	10004842 <pll_init+0x5a>
10004802:	4a19      	ldr	r2, [pc, #100]	@ (10004868 <pll_init+0x80>)
10004804:	4b19      	ldr	r3, [pc, #100]	@ (1000486c <pll_init+0x84>)
10004806:	4290      	cmp	r0, r2
10004808:	bf14      	ite	ne
1000480a:	f44f 4280 	movne.w	r2, #16384	@ 0x4000
1000480e:	f44f 4200 	moveq.w	r2, #32768	@ 0x8000
10004812:	4c17      	ldr	r4, [pc, #92]	@ (10004870 <pll_init+0x88>)
10004814:	601a      	str	r2, [r3, #0]
10004816:	f503 5380 	add.w	r3, r3, #4096	@ 0x1000
1000481a:	601a      	str	r2, [r3, #0]
1000481c:	68a3      	ldr	r3, [r4, #8]
1000481e:	ea32 0303 	bics.w	r3, r2, r3
10004822:	d1fb      	bne.n	1000481c <pll_init+0x34>
10004824:	2221      	movs	r2, #33	@ 0x21
10004826:	f500 5340 	add.w	r3, r0, #12288	@ 0x3000
1000482a:	3304      	adds	r3, #4
1000482c:	6001      	str	r1, [r0, #0]
1000482e:	6086      	str	r6, [r0, #8]
10004830:	601a      	str	r2, [r3, #0]
10004832:	6802      	ldr	r2, [r0, #0]
10004834:	2a00      	cmp	r2, #0
10004836:	dafc      	bge.n	10004832 <pll_init+0x4a>
10004838:	2208      	movs	r2, #8
1000483a:	60c5      	str	r5, [r0, #12]
1000483c:	601a      	str	r2, [r3, #0]
1000483e:	bc70      	pop	{r4, r5, r6}
10004840:	4770      	bx	lr
10004842:	6803      	ldr	r3, [r0, #0]
10004844:	f003 033f 	and.w	r3, r3, #63	@ 0x3f
10004848:	428b      	cmp	r3, r1
1000484a:	d1da      	bne.n	10004802 <pll_init+0x1a>
1000484c:	6883      	ldr	r3, [r0, #8]
1000484e:	f3c3 030b 	ubfx	r3, r3, #0, #12
10004852:	42b3      	cmp	r3, r6
10004854:	d1d5      	bne.n	10004802 <pll_init+0x1a>
10004856:	68c3      	ldr	r3, [r0, #12]
10004858:	f403 23ee 	and.w	r3, r3, #487424	@ 0x77000
1000485c:	42ab      	cmp	r3, r5
1000485e:	d1d0      	bne.n	10004802 <pll_init+0x1a>
10004860:	e7ed      	b.n	1000483e <pll_init+0x56>
10004862:	bf00      	nop
10004864:	00b71b00 	.word	0x00b71b00
10004868:	40058000 	.word	0x40058000
1000486c:	40022000 	.word	0x40022000
10004870:	40020000 	.word	0x40020000

10004874 <tick_start>:
10004874:	2301      	movs	r3, #1
10004876:	eb00 0040 	add.w	r0, r0, r0, lsl #1
1000487a:	0080      	lsls	r0, r0, #2
1000487c:	f100 4080 	add.w	r0, r0, #1073741824	@ 0x40000000
10004880:	f500 1084 	add.w	r0, r0, #1081344	@ 0x108000
10004884:	6041      	str	r1, [r0, #4]
10004886:	6003      	str	r3, [r0, #0]
10004888:	4770      	bx	lr
1000488a:	bf00      	nop

1000488c <rom_func_lookup>:
1000488c:	2300      	movs	r3, #0
1000488e:	8adb      	ldrh	r3, [r3, #22]
10004890:	2200      	movs	r2, #0
10004892:	e842 f200 	tt	r2, r2
10004896:	0252      	lsls	r2, r2, #9
10004898:	d401      	bmi.n	1000489e <rom_func_lookup+0x12>
1000489a:	2110      	movs	r1, #16
1000489c:	4718      	bx	r3
1000489e:	2104      	movs	r1, #4
100048a0:	4718      	bx	r3
100048a2:	bf00      	nop

100048a4 <runtime_init_bootrom_locking_enable>:
100048a4:	4a03      	ldr	r2, [pc, #12]	@ (100048b4 <runtime_init_bootrom_locking_enable+0x10>)
100048a6:	f8d2 3828 	ldr.w	r3, [r2, #2088]	@ 0x828
100048aa:	2b00      	cmp	r3, #0
100048ac:	d0fb      	beq.n	100048a6 <runtime_init_bootrom_locking_enable+0x2>
100048ae:	f3bf 8f5f 	dmb	sy
100048b2:	4770      	bx	lr
100048b4:	400e0000 	.word	0x400e0000

100048b8 <runtime_init_boot_locks_reset>:
100048b8:	2100      	movs	r1, #0
100048ba:	4b04      	ldr	r3, [pc, #16]	@ (100048cc <runtime_init_boot_locks_reset+0x14>)
100048bc:	4a04      	ldr	r2, [pc, #16]	@ (100048d0 <runtime_init_boot_locks_reset+0x18>)
100048be:	f3bf 8f5f 	dmb	sy
100048c2:	f843 1b04 	str.w	r1, [r3], #4
100048c6:	4293      	cmp	r3, r2
100048c8:	d1f9      	bne.n	100048be <runtime_init_boot_locks_reset+0x6>
100048ca:	4770      	bx	lr
100048cc:	400e080c 	.word	0x400e080c
100048d0:	400e082c 	.word	0x400e082c

100048d4 <xosc_init>:
100048d4:	b410      	push	{r4}
100048d6:	f44f 708d 	mov.w	r0, #282	@ 0x11a
100048da:	f44f 642a 	mov.w	r4, #2720	@ 0xaa0
100048de:	4a06      	ldr	r2, [pc, #24]	@ (100048f8 <xosc_init+0x24>)
100048e0:	4b06      	ldr	r3, [pc, #24]	@ (100048fc <xosc_init+0x28>)
100048e2:	4907      	ldr	r1, [pc, #28]	@ (10004900 <xosc_init+0x2c>)
100048e4:	6014      	str	r4, [r2, #0]
100048e6:	60d0      	str	r0, [r2, #12]
100048e8:	6019      	str	r1, [r3, #0]
100048ea:	6853      	ldr	r3, [r2, #4]
100048ec:	2b00      	cmp	r3, #0
100048ee:	dafc      	bge.n	100048ea <xosc_init+0x16>
100048f0:	f85d 4b04 	ldr.w	r4, [sp], #4
100048f4:	4770      	bx	lr
100048f6:	bf00      	nop
100048f8:	40048000 	.word	0x40048000
100048fc:	4004a000 	.word	0x4004a000
10004900:	00fab000 	.word	0x00fab000

10004904 <first_per_core_initializer>:
10004904:	4770      	bx	lr
10004906:	bf00      	nop

10004908 <hard_assertion_failure>:
10004908:	b508      	push	{r3, lr}
1000490a:	4801      	ldr	r0, [pc, #4]	@ (10004910 <hard_assertion_failure+0x8>)
1000490c:	f7ff f8c2 	bl	10003a94 <panic>
10004910:	1000d154 	.word	0x1000d154

10004914 <runtime_run_initializers>:
10004914:	b538      	push	{r3, r4, r5, lr}
10004916:	4c05      	ldr	r4, [pc, #20]	@ (1000492c <runtime_run_initializers+0x18>)
10004918:	4d05      	ldr	r5, [pc, #20]	@ (10004930 <runtime_run_initializers+0x1c>)
1000491a:	42ac      	cmp	r4, r5
1000491c:	d204      	bcs.n	10004928 <runtime_run_initializers+0x14>
1000491e:	f854 3b04 	ldr.w	r3, [r4], #4
10004922:	4798      	blx	r3
10004924:	42ac      	cmp	r4, r5
10004926:	d3fa      	bcc.n	1000491e <runtime_run_initializers+0xa>
10004928:	bd38      	pop	{r3, r4, r5, pc}
1000492a:	bf00      	nop
1000492c:	1000cd40 	.word	0x1000cd40
10004930:	1000cd80 	.word	0x1000cd80

10004934 <runtime_run_per_core_initializers>:
10004934:	b538      	push	{r3, r4, r5, lr}
10004936:	4c05      	ldr	r4, [pc, #20]	@ (1000494c <runtime_run_per_core_initializers+0x18>)
10004938:	4d05      	ldr	r5, [pc, #20]	@ (10004950 <runtime_run_per_core_initializers+0x1c>)
1000493a:	42ac      	cmp	r4, r5
1000493c:	d204      	bcs.n	10004948 <runtime_run_per_core_initializers+0x14>
1000493e:	f854 3b04 	ldr.w	r3, [r4], #4
10004942:	4798      	blx	r3
10004944:	42ac      	cmp	r4, r5
10004946:	d3fa      	bcc.n	1000493e <runtime_run_per_core_initializers+0xa>
10004948:	bd38      	pop	{r3, r4, r5, pc}
1000494a:	bf00      	nop
1000494c:	1000cd6c 	.word	0x1000cd6c
10004950:	1000cd80 	.word	0x1000cd80

10004954 <runtime_init_early_resets>:
10004954:	b410      	push	{r4}
10004956:	4807      	ldr	r0, [pc, #28]	@ (10004974 <runtime_init_early_resets+0x20>)
10004958:	4c07      	ldr	r4, [pc, #28]	@ (10004978 <runtime_init_early_resets+0x24>)
1000495a:	4b08      	ldr	r3, [pc, #32]	@ (1000497c <runtime_init_early_resets+0x28>)
1000495c:	4a08      	ldr	r2, [pc, #32]	@ (10004980 <runtime_init_early_resets+0x2c>)
1000495e:	4909      	ldr	r1, [pc, #36]	@ (10004984 <runtime_init_early_resets+0x30>)
10004960:	6004      	str	r4, [r0, #0]
10004962:	601a      	str	r2, [r3, #0]
10004964:	688b      	ldr	r3, [r1, #8]
10004966:	ea32 0303 	bics.w	r3, r2, r3
1000496a:	d1fb      	bne.n	10004964 <runtime_init_early_resets+0x10>
1000496c:	f85d 4b04 	ldr.w	r4, [sp], #4
10004970:	4770      	bx	lr
10004972:	bf00      	nop
10004974:	40022000 	.word	0x40022000
10004978:	efef3b7f 	.word	0xefef3b7f
1000497c:	40023000 	.word	0x40023000
10004980:	03f3fff6 	.word	0x03f3fff6
10004984:	40020000 	.word	0x40020000

10004988 <runtime_init_usb_power_down>:
10004988:	4b04      	ldr	r3, [pc, #16]	@ (1000499c <runtime_init_usb_power_down+0x14>)
1000498a:	6cdb      	ldr	r3, [r3, #76]	@ 0x4c
1000498c:	f5b3 4f00 	cmp.w	r3, #32768	@ 0x8000
10004990:	d103      	bne.n	1000499a <runtime_init_usb_power_down+0x12>
10004992:	f44f 2280 	mov.w	r2, #262144	@ 0x40000
10004996:	4b02      	ldr	r3, [pc, #8]	@ (100049a0 <runtime_init_usb_power_down+0x18>)
10004998:	64da      	str	r2, [r3, #76]	@ 0x4c
1000499a:	4770      	bx	lr
1000499c:	50110000 	.word	0x50110000
100049a0:	50112000 	.word	0x50112000

100049a4 <runtime_init_per_core_enable_coprocessors>:
100049a4:	f04f 22e0 	mov.w	r2, #3758153728	@ 0xe000e000
100049a8:	4b04      	ldr	r3, [pc, #16]	@ (100049bc <runtime_init_per_core_enable_coprocessors+0x18>)
100049aa:	f8d2 1d88 	ldr.w	r1, [r2, #3464]	@ 0xd88
100049ae:	430b      	orrs	r3, r1
100049b0:	f8c2 3d88 	str.w	r3, [r2, #3464]	@ 0xd88
100049b4:	ee10 0430 			dcp_rcmp r0
100049b8:	4770      	bx	lr
100049ba:	bf00      	nop
100049bc:	00300303 	.word	0x00300303

100049c0 <runtime_init_post_clock_resets>:
100049c0:	f06f 4160 	mvn.w	r1, #3758096384	@ 0xe0000000
100049c4:	4b04      	ldr	r3, [pc, #16]	@ (100049d8 <runtime_init_post_clock_resets+0x18>)
100049c6:	4a05      	ldr	r2, [pc, #20]	@ (100049dc <runtime_init_post_clock_resets+0x1c>)
100049c8:	6019      	str	r1, [r3, #0]
100049ca:	6893      	ldr	r3, [r2, #8]
100049cc:	43db      	mvns	r3, r3
100049ce:	f033 4360 	bics.w	r3, r3, #3758096384	@ 0xe0000000
100049d2:	d1fa      	bne.n	100049ca <runtime_init_post_clock_resets+0xa>
100049d4:	4770      	bx	lr
100049d6:	bf00      	nop
100049d8:	40023000 	.word	0x40023000
100049dc:	40020000 	.word	0x40020000

100049e0 <runtime_init_bootrom_reset>:
100049e0:	b510      	push	{r4, lr}
100049e2:	f245 2053 	movw	r0, #21075	@ 0x5253
100049e6:	f7ff ff51 	bl	1000488c <rom_func_lookup>
100049ea:	e8bd 4010 	ldmia.w	sp!, {r4, lr}
100049ee:	4603      	mov	r3, r0
100049f0:	2004      	movs	r0, #4
100049f2:	4718      	bx	r3

100049f4 <runtime_init_per_core_bootrom_reset>:
100049f4:	b510      	push	{r4, lr}
100049f6:	f245 2053 	movw	r0, #21075	@ 0x5253
100049fa:	f7ff ff47 	bl	1000488c <rom_func_lookup>
100049fe:	e8bd 4010 	ldmia.w	sp!, {r4, lr}
10004a02:	4603      	mov	r3, r0
10004a04:	2001      	movs	r0, #1
10004a06:	4718      	bx	r3

10004a08 <runtime_init_spin_locks_reset>:
10004a08:	f7ff b8f8 	b.w	10003bfc <spin_locks_reset>

10004a0c <runtime_init_install_ram_vector_table>:
10004a0c:	4914      	ldr	r1, [pc, #80]	@ (10004a60 <runtime_init_install_ram_vector_table+0x54>)
10004a0e:	4b15      	ldr	r3, [pc, #84]	@ (10004a64 <runtime_init_install_ram_vector_table+0x58>)
10004a10:	b570      	push	{r4, r5, r6, lr}
10004a12:	1a5c      	subs	r4, r3, r1
10004a14:	10a6      	asrs	r6, r4, #2
10004a16:	2e44      	cmp	r6, #68	@ 0x44
10004a18:	4632      	mov	r2, r6
10004a1a:	bf28      	it	cs
10004a1c:	2244      	movcs	r2, #68	@ 0x44
10004a1e:	4d12      	ldr	r5, [pc, #72]	@ (10004a68 <runtime_init_install_ram_vector_table+0x5c>)
10004a20:	0092      	lsls	r2, r2, #2
10004a22:	4628      	mov	r0, r5
10004a24:	f003 fa6e 	bl	10007f04 <memcpy>
10004a28:	f5b4 7f86 	cmp.w	r4, #268	@ 0x10c
10004a2c:	d813      	bhi.n	10004a56 <runtime_init_install_ram_vector_table+0x4a>
10004a2e:	4a0f      	ldr	r2, [pc, #60]	@ (10004a6c <runtime_init_install_ram_vector_table+0x60>)
10004a30:	f1c6 0044 	rsb	r0, r6, #68	@ 0x44
10004a34:	d012      	beq.n	10004a5c <runtime_init_install_ram_vector_table+0x50>
10004a36:	192b      	adds	r3, r5, r4
10004a38:	0841      	lsrs	r1, r0, #1
10004a3a:	eb03 01c1 	add.w	r1, r3, r1, lsl #3
10004a3e:	e9c3 2200 	strd	r2, r2, [r3]
10004a42:	3308      	adds	r3, #8
10004a44:	428b      	cmp	r3, r1
10004a46:	d1fa      	bne.n	10004a3e <runtime_init_install_ram_vector_table+0x32>
10004a48:	07c3      	lsls	r3, r0, #31
10004a4a:	d504      	bpl.n	10004a56 <runtime_init_install_ram_vector_table+0x4a>
10004a4c:	f020 0001 	bic.w	r0, r0, #1
10004a50:	4430      	add	r0, r6
10004a52:	f845 2020 	str.w	r2, [r5, r0, lsl #2]
10004a56:	4b06      	ldr	r3, [pc, #24]	@ (10004a70 <runtime_init_install_ram_vector_table+0x64>)
10004a58:	609d      	str	r5, [r3, #8]
10004a5a:	bd70      	pop	{r4, r5, r6, pc}
10004a5c:	2043      	movs	r0, #67	@ 0x43
10004a5e:	e7f8      	b.n	10004a52 <runtime_init_install_ram_vector_table+0x46>
10004a60:	10000000 	.word	0x10000000
10004a64:	10000110 	.word	0x10000110
10004a68:	20000000 	.word	0x20000000
10004a6c:	10000111 	.word	0x10000111
10004a70:	e000ed00 	.word	0xe000ed00

10004a74 <runtime_init_clocks>:
10004a74:	2300      	movs	r3, #0
10004a76:	b570      	push	{r4, r5, r6, lr}
10004a78:	4c2b      	ldr	r4, [pc, #172]	@ (10004b28 <runtime_init_clocks+0xb4>)
10004a7a:	b082      	sub	sp, #8
10004a7c:	f8c4 3084 	str.w	r3, [r4, #132]	@ 0x84
10004a80:	f7ff ff28 	bl	100048d4 <xosc_init>
10004a84:	2201      	movs	r2, #1
10004a86:	4b29      	ldr	r3, [pc, #164]	@ (10004b2c <runtime_init_clocks+0xb8>)
10004a88:	63da      	str	r2, [r3, #60]	@ 0x3c
10004a8a:	6c63      	ldr	r3, [r4, #68]	@ 0x44
10004a8c:	2b01      	cmp	r3, #1
10004a8e:	d1fc      	bne.n	10004a8a <runtime_init_clocks+0x16>
10004a90:	2103      	movs	r1, #3
10004a92:	4a26      	ldr	r2, [pc, #152]	@ (10004b2c <runtime_init_clocks+0xb8>)
10004a94:	4b24      	ldr	r3, [pc, #144]	@ (10004b28 <runtime_init_clocks+0xb4>)
10004a96:	6311      	str	r1, [r2, #48]	@ 0x30
10004a98:	6b9c      	ldr	r4, [r3, #56]	@ 0x38
10004a9a:	2c01      	cmp	r4, #1
10004a9c:	d1fc      	bne.n	10004a98 <runtime_init_clocks+0x24>
10004a9e:	2602      	movs	r6, #2
10004aa0:	2505      	movs	r5, #5
10004aa2:	4621      	mov	r1, r4
10004aa4:	2305      	movs	r3, #5
10004aa6:	4a22      	ldr	r2, [pc, #136]	@ (10004b30 <runtime_init_clocks+0xbc>)
10004aa8:	4822      	ldr	r0, [pc, #136]	@ (10004b34 <runtime_init_clocks+0xc0>)
10004aaa:	9600      	str	r6, [sp, #0]
10004aac:	f7ff fe9c 	bl	100047e8 <pll_init>
10004ab0:	4621      	mov	r1, r4
10004ab2:	462b      	mov	r3, r5
10004ab4:	4a20      	ldr	r2, [pc, #128]	@ (10004b38 <runtime_init_clocks+0xc4>)
10004ab6:	4821      	ldr	r0, [pc, #132]	@ (10004b3c <runtime_init_clocks+0xc8>)
10004ab8:	9500      	str	r5, [sp, #0]
10004aba:	f7ff fe95 	bl	100047e8 <pll_init>
10004abe:	2200      	movs	r2, #0
10004ac0:	2004      	movs	r0, #4
10004ac2:	4631      	mov	r1, r6
10004ac4:	4b1e      	ldr	r3, [pc, #120]	@ (10004b40 <runtime_init_clocks+0xcc>)
10004ac6:	f7ff fc91 	bl	100043ec <clock_configure_undivided>
10004aca:	4621      	mov	r1, r4
10004acc:	4628      	mov	r0, r5
10004ace:	2200      	movs	r2, #0
10004ad0:	4b1c      	ldr	r3, [pc, #112]	@ (10004b44 <runtime_init_clocks+0xd0>)
10004ad2:	f7ff fc8b 	bl	100043ec <clock_configure_undivided>
10004ad6:	2200      	movs	r2, #0
10004ad8:	2008      	movs	r0, #8
10004ada:	4611      	mov	r1, r2
10004adc:	4b1a      	ldr	r3, [pc, #104]	@ (10004b48 <runtime_init_clocks+0xd4>)
10004ade:	f7ff fc85 	bl	100043ec <clock_configure_undivided>
10004ae2:	2200      	movs	r2, #0
10004ae4:	2009      	movs	r0, #9
10004ae6:	4611      	mov	r1, r2
10004ae8:	4b17      	ldr	r3, [pc, #92]	@ (10004b48 <runtime_init_clocks+0xd4>)
10004aea:	f7ff fc7f 	bl	100043ec <clock_configure_undivided>
10004aee:	2200      	movs	r2, #0
10004af0:	2006      	movs	r0, #6
10004af2:	4611      	mov	r1, r2
10004af4:	4b13      	ldr	r3, [pc, #76]	@ (10004b44 <runtime_init_clocks+0xd0>)
10004af6:	f7ff fc79 	bl	100043ec <clock_configure_undivided>
10004afa:	2200      	movs	r2, #0
10004afc:	4b11      	ldr	r3, [pc, #68]	@ (10004b44 <runtime_init_clocks+0xd0>)
10004afe:	2007      	movs	r0, #7
10004b00:	4611      	mov	r1, r2
10004b02:	f7ff fc73 	bl	100043ec <clock_configure_undivided>
10004b06:	2004      	movs	r0, #4
10004b08:	f7ff fcd8 	bl	100044bc <clock_get_hz>
10004b0c:	2400      	movs	r4, #0
10004b0e:	4b0f      	ldr	r3, [pc, #60]	@ (10004b4c <runtime_init_clocks+0xd8>)
10004b10:	fba3 3500 	umull	r3, r5, r3, r0
10004b14:	0cad      	lsrs	r5, r5, #18
10004b16:	b2e0      	uxtb	r0, r4
10004b18:	4629      	mov	r1, r5
10004b1a:	3401      	adds	r4, #1
10004b1c:	f7ff feaa 	bl	10004874 <tick_start>
10004b20:	2c06      	cmp	r4, #6
10004b22:	d1f8      	bne.n	10004b16 <runtime_init_clocks+0xa2>
10004b24:	b002      	add	sp, #8
10004b26:	bd70      	pop	{r4, r5, r6, pc}
10004b28:	40010000 	.word	0x40010000
10004b2c:	40013000 	.word	0x40013000
10004b30:	59682f00 	.word	0x59682f00
10004b34:	40050000 	.word	0x40050000
10004b38:	47868c00 	.word	0x47868c00
10004b3c:	40058000 	.word	0x40058000
10004b40:	00b71b00 	.word	0x00b71b00
10004b44:	08f0d180 	.word	0x08f0d180
10004b48:	02dc6c00 	.word	0x02dc6c00
10004b4c:	431bde83 	.word	0x431bde83

10004b50 <generic_save_state>:
10004b50:	b086      	sub	sp, #24
10004b52:	b403      	push	{r0, r1}
10004b54:	fc51 0408 	dcp_pxmd r0, r1
10004b58:	e9cd 0102 	strd	r0, r1, [sp, #8]
10004b5c:	fc51 0409 	dcp_pymd r0, r1
10004b60:	e9cd 0104 	strd	r0, r1, [sp, #16]
10004b64:	ec51 040a 	dcp_refd r0, r1
10004b68:	e9cd 0106 	strd	r0, r1, [sp, #24]
10004b6c:	bc03      	pop	{r0, r1}
10004b6e:	47f0      	blx	lr

10004b70 <generic_restore_state>:
10004b70:	e8bd 5000 	ldmia.w	sp!, {ip, lr}
10004b74:	ec4e c400 	dcp_wxmd ip, lr
10004b78:	e8bd 5000 	ldmia.w	sp!, {ip, lr}
10004b7c:	ec4e c401 	dcp_wymd ip, lr
10004b80:	e8bd 5000 	ldmia.w	sp!, {ip, lr}
10004b84:	ec4e c402 	dcp_wefd ip, lr
10004b88:	bd00      	pop	{pc}
10004b8a:	0000      	movs	r0, r0
10004b8c:	b500      	push	{lr}
10004b8e:	f7ff ffdf 	bl	10004b50 <generic_save_state>
10004b92:	e002      	b.n	10004b9a <__wrap___aeabi_dadd+0x6>

10004b94 <__wrap___aeabi_dadd>:
10004b94:	fe10 f430 	dcp_pcmp APSR_nzcv
10004b98:	d4f8      	bmi.n	10004b8c <generic_restore_state+0x1c>
10004b9a:	ec41 0410 	dcp_wxup r0, r1
10004b9e:	ec43 2411 	dcp_wyup r2, r3
10004ba2:	ee00 0401 			dcp_add0
10004ba6:	ee10 0401 			dcp_add1
10004baa:	ee80 0420 			dcp_nrdd
10004bae:	ec51 0410 	dcp_rdda r0, r1
10004bb2:	4770      	bx	lr
10004bb4:	b500      	push	{lr}
10004bb6:	f7ff ffcb 	bl	10004b50 <generic_save_state>
10004bba:	e002      	b.n	10004bc2 <__wrap___aeabi_dsub+0x6>

10004bbc <__wrap___aeabi_dsub>:
10004bbc:	fe10 f430 	dcp_pcmp APSR_nzcv
10004bc0:	d4f8      	bmi.n	10004bb4 <__wrap___aeabi_dadd+0x20>
10004bc2:	ec41 0410 	dcp_wxup r0, r1
10004bc6:	ec43 2411 	dcp_wyup r2, r3
10004bca:	ee00 0401 			dcp_add0
10004bce:	ee10 0421 			dcp_sub1
10004bd2:	ee80 0420 			dcp_nrdd
10004bd6:	ec51 0430 	dcp_rdds r0, r1
10004bda:	4770      	bx	lr
10004bdc:	b500      	push	{lr}
10004bde:	f7ff ffb7 	bl	10004b50 <generic_save_state>
10004be2:	e002      	b.n	10004bea <__wrap___aeabi_dmul+0x6>

10004be4 <__wrap___aeabi_dmul>:
10004be4:	fe10 f430 	dcp_pcmp APSR_nzcv
10004be8:	d4f8      	bmi.n	10004bdc <__wrap___aeabi_dsub+0x20>
10004bea:	b510      	push	{r4, lr}
10004bec:	ec41 0410 	dcp_wxup r0, r1
10004bf0:	ec43 2411 	dcp_wyup r2, r3
10004bf4:	ec51 0404 	dcp_rxms r0, r1, #0x0
10004bf8:	ec53 2405 	dcp_ryms r2, r3, #0x0
10004bfc:	fba0 4c02 	umull	r4, ip, r0, r2
10004c00:	f05f 0e00 	movs.w	lr, #0
10004c04:	fbe0 ce03 	umlal	ip, lr, r0, r3
10004c08:	fbe1 ce02 	umlal	ip, lr, r1, r2
10004c0c:	ec4c 4420 	dcp_wxms r4, ip
10004c10:	2400      	movs	r4, #0
10004c12:	fbe1 e403 	umlal	lr, r4, r1, r3
10004c16:	ec44 e430 	dcp_wxmo lr, r4
10004c1a:	ee80 0420 			dcp_nrdd
10004c1e:	ec51 0450 	dcp_rddm r0, r1
10004c22:	e8bd 4010 	ldmia.w	sp!, {r4, lr}
10004c26:	4770      	bx	lr
10004c28:	b500      	push	{lr}
10004c2a:	f7ff ff91 	bl	10004b50 <generic_save_state>
10004c2e:	e002      	b.n	10004c36 <__wrap___aeabi_ddiv+0x6>

10004c30 <__wrap___aeabi_ddiv>:
10004c30:	fe10 f430 	dcp_pcmp APSR_nzcv
10004c34:	d4f8      	bmi.n	10004c28 <__wrap___aeabi_dmul+0x44>
10004c36:	ec41 0410 	dcp_wxup r0, r1
10004c3a:	ec43 2411 	dcp_wyup r2, r3
10004c3e:	ec51 0421 	dcp_rymr r0, r1
10004c42:	fba0 1201 	umull	r1, r2, r0, r1
10004c46:	ea6f 0282 	mvn.w	r2, r2, lsl #2
10004c4a:	fb52 0010 	smmlar	r0, r2, r0, r0
10004c4e:	fb52 f212 	smmulr	r2, r2, r2
10004c52:	fb52 0010 	smmlar	r0, r2, r0, r0
10004c56:	eba0 7cd0 	sub.w	ip, r0, r0, lsr #31
10004c5a:	ec53 2404 	dcp_rxms r2, r3, #0x0
10004c5e:	fb5c f113 	smmulr	r1, ip, r3
10004c62:	ec53 2415 	dcp_ryms r2, r3, #0x1
10004c66:	fba1 2002 	umull	r2, r0, r1, r2
10004c6a:	fb01 0003 	mla	r0, r1, r3, r0
10004c6e:	ec53 2444 	dcp_rxms r2, r3, #0x4
10004c72:	eba2 0000 	sub.w	r0, r2, r0
10004c76:	fb50 f21c 	smmulr	r2, r0, ip
10004c7a:	ea4f 1311 	mov.w	r3, r1, lsr #4
10004c7e:	eb12 7001 	adds.w	r0, r2, r1, lsl #28
10004c82:	eb43 71e2 	adc.w	r1, r3, r2, asr #31
10004c86:	ea40 5051 	orr.w	r0, r0, r1, lsr #21
10004c8a:	ea20 5091 	bic.w	r0, r0, r1, lsr #22
10004c8e:	f020 0007 	bic.w	r0, r0, #7
10004c92:	ec53 2475 	dcp_ryms r2, r3, #0x7
10004c96:	fba0 3c02 	umull	r3, ip, r0, r2
10004c9a:	ec53 2475 	dcp_ryms r2, r3, #0x7
10004c9e:	fb00 cc03 	mla	ip, r0, r3, ip
10004ca2:	fb01 cc02 	mla	ip, r1, r2, ip
10004ca6:	ec53 2404 	dcp_rxms r2, r3, #0x0
10004caa:	ebac 4c82 	sub.w	ip, ip, r2, lsl #18
10004cae:	ea40 705c 	orr.w	r0, r0, ip, lsr #29
10004cb2:	f1a0 0001 	sub.w	r0, r0, #1
10004cb6:	ec41 0440 	dcp_wxdd r0, r1
10004cba:	ee80 0420 			dcp_nrdd
10004cbe:	ec51 0470 	dcp_rddd r0, r1
10004cc2:	4770      	bx	lr
10004cc4:	b500      	push	{lr}
10004cc6:	f7ff ff43 	bl	10004b50 <generic_save_state>
10004cca:	e002      	b.n	10004cd2 <__wrap___aeabi_d2f+0x6>

10004ccc <__wrap___aeabi_d2f>:
10004ccc:	fe10 f430 	dcp_pcmp APSR_nzcv
10004cd0:	d4f8      	bmi.n	10004cc4 <__wrap___aeabi_ddiv+0x94>
10004cd2:	ec41 0410 	dcp_wxup r0, r1
10004cd6:	ee80 0422 			dcp_nrdf
10004cda:	ee10 04b2 			dcp_rdfg r0
10004cde:	4770      	bx	lr
10004ce0:	b500      	push	{lr}
10004ce2:	f7ff ff35 	bl	10004b50 <generic_save_state>
10004ce6:	e002      	b.n	10004cee <__wrap___aeabi_i2d+0x6>

10004ce8 <__wrap___aeabi_i2d>:
10004ce8:	fe10 f430 	dcp_pcmp APSR_nzcv
10004cec:	d4f8      	bmi.n	10004ce0 <__wrap___aeabi_d2f+0x14>
10004cee:	ec40 0470 	dcp_wxic r0, r0
10004cf2:	ee00 0401 			dcp_add0
10004cf6:	ee10 0421 			dcp_sub1
10004cfa:	ee80 0420 			dcp_nrdd
10004cfe:	ec51 0430 	dcp_rdds r0, r1
10004d02:	4770      	bx	lr
10004d04:	b500      	push	{lr}
10004d06:	f7ff ff23 	bl	10004b50 <generic_save_state>
10004d0a:	e002      	b.n	10004d12 <__wrap___aeabi_ui2d+0x6>

10004d0c <__wrap___aeabi_ui2d>:
10004d0c:	fe10 f430 	dcp_pcmp APSR_nzcv
10004d10:	d4f8      	bmi.n	10004d04 <__wrap___aeabi_i2d+0x1c>
10004d12:	ec40 0460 	dcp_wxuc r0, r0
10004d16:	ee00 0401 			dcp_add0
10004d1a:	ee10 0421 			dcp_sub1
10004d1e:	ee80 0420 			dcp_nrdd
10004d22:	ec51 0430 	dcp_rdds r0, r1
10004d26:	4770      	bx	lr
10004d28:	b500      	push	{lr}
10004d2a:	f7ff ff11 	bl	10004b50 <generic_save_state>
10004d2e:	e002      	b.n	10004d36 <double2int_z_entry>

10004d30 <__wrap___aeabi_d2iz>:
10004d30:	fe10 f430 	dcp_pcmp APSR_nzcv
10004d34:	d4f8      	bmi.n	10004d28 <__wrap___aeabi_ui2d+0x1c>

10004d36 <double2int_z_entry>:
10004d36:	ec41 0480 	dcp_wxdc r0, r1
10004d3a:	ee00 0401 			dcp_add0
10004d3e:	ee10 0401 			dcp_add1
10004d42:	ee80 0440 			dcp_ntdc
10004d46:	ee10 0413 			dcp_rdic r0
10004d4a:	4770      	bx	lr
10004d4c:	b500      	push	{lr}
10004d4e:	f7ff feff 	bl	10004b50 <generic_save_state>
10004d52:	e002      	b.n	10004d5a <double2uint_z_entry>

10004d54 <__wrap___aeabi_d2uiz>:
10004d54:	fe10 f430 	dcp_pcmp APSR_nzcv
10004d58:	d4f8      	bmi.n	10004d4c <double2int_z_entry+0x16>

10004d5a <double2uint_z_entry>:
10004d5a:	ec41 0480 	dcp_wxdc r0, r1
10004d5e:	ee00 0401 			dcp_add0
10004d62:	ee10 0401 			dcp_add1
10004d66:	ee80 0440 			dcp_ntdc
10004d6a:	ee10 0433 			dcp_rduc r0
10004d6e:	4770      	bx	lr
10004d70:	b500      	push	{lr}
10004d72:	f7ff feed 	bl	10004b50 <generic_save_state>
10004d76:	e002      	b.n	10004d7e <__wrap___aeabi_dcmpun+0x6>

10004d78 <__wrap___aeabi_dcmpun>:
10004d78:	fe10 f430 	dcp_pcmp APSR_nzcv
10004d7c:	d4f8      	bmi.n	10004d70 <double2uint_z_entry+0x16>
10004d7e:	ec41 0410 	dcp_wxup r0, r1
10004d82:	ec43 2411 	dcp_wyup r2, r3
10004d86:	ee00 0401 			dcp_add0
10004d8a:	ee10 0430 			dcp_rcmp r0
10004d8e:	f3c0 7000 	ubfx	r0, r0, #28, #1
10004d92:	4770      	bx	lr
10004d94:	b500      	push	{lr}
10004d96:	f7ff fedb 	bl	10004b50 <generic_save_state>
10004d9a:	e002      	b.n	10004da2 <__wrap___aeabi_dcmpeq+0x6>

10004d9c <__wrap___aeabi_dcmpeq>:
10004d9c:	fe10 f430 	dcp_pcmp APSR_nzcv
10004da0:	d4f8      	bmi.n	10004d94 <__wrap___aeabi_dcmpun+0x1c>
10004da2:	ec41 0410 	dcp_wxup r0, r1
10004da6:	ec43 2411 	dcp_wyup r2, r3
10004daa:	ee00 0401 			dcp_add0
10004dae:	ee10 0430 			dcp_rcmp r0
10004db2:	f3c0 7080 	ubfx	r0, r0, #30, #1
10004db6:	4770      	bx	lr
10004db8:	b500      	push	{lr}
10004dba:	f7ff fec9 	bl	10004b50 <generic_save_state>
10004dbe:	e002      	b.n	10004dc6 <__wrap___aeabi_dcmplt+0x6>

10004dc0 <__wrap___aeabi_dcmplt>:
10004dc0:	fe10 f430 	dcp_pcmp APSR_nzcv
10004dc4:	d4f8      	bmi.n	10004db8 <__wrap___aeabi_dcmpeq+0x1c>
10004dc6:	ec43 2410 	dcp_wxup r2, r3
10004dca:	ec41 0411 	dcp_wyup r0, r1
10004dce:	ee00 0401 			dcp_add0
10004dd2:	ee10 f430 			dcp_rcmp APSR_nzcv
10004dd6:	bf8c      	ite	hi
10004dd8:	2001      	movhi	r0, #1
10004dda:	2000      	movls	r0, #0
10004ddc:	4770      	bx	lr
10004dde:	bf00      	nop
10004de0:	b500      	push	{lr}
10004de2:	f7ff feb5 	bl	10004b50 <generic_save_state>
10004de6:	e002      	b.n	10004dee <__wrap___aeabi_dcmple+0x6>

10004de8 <__wrap___aeabi_dcmple>:
10004de8:	fe10 f430 	dcp_pcmp APSR_nzcv
10004dec:	d4f8      	bmi.n	10004de0 <__wrap___aeabi_dcmplt+0x20>
10004dee:	ec43 2410 	dcp_wxup r2, r3
10004df2:	ec41 0411 	dcp_wyup r0, r1
10004df6:	ee00 0401 			dcp_add0
10004dfa:	ee10 f430 			dcp_rcmp APSR_nzcv
10004dfe:	bf2c      	ite	cs
10004e00:	2001      	movcs	r0, #1
10004e02:	2000      	movcc	r0, #0
10004e04:	4770      	bx	lr
10004e06:	bf00      	nop
10004e08:	b500      	push	{lr}
10004e0a:	f7ff fea1 	bl	10004b50 <generic_save_state>
10004e0e:	e002      	b.n	10004e16 <__wrap___aeabi_dcmpge+0x6>

10004e10 <__wrap___aeabi_dcmpge>:
10004e10:	fe10 f430 	dcp_pcmp APSR_nzcv
10004e14:	d4f8      	bmi.n	10004e08 <__wrap___aeabi_dcmple+0x20>
10004e16:	ec41 0410 	dcp_wxup r0, r1
10004e1a:	ec43 2411 	dcp_wyup r2, r3
10004e1e:	ee00 0401 			dcp_add0
10004e22:	ee10 f430 			dcp_rcmp APSR_nzcv
10004e26:	bf2c      	ite	cs
10004e28:	2001      	movcs	r0, #1
10004e2a:	2000      	movcc	r0, #0
10004e2c:	4770      	bx	lr
10004e2e:	bf00      	nop
10004e30:	b500      	push	{lr}
10004e32:	f7ff fe8d 	bl	10004b50 <generic_save_state>
10004e36:	e002      	b.n	10004e3e <__wrap___aeabi_dcmpgt+0x6>

10004e38 <__wrap___aeabi_dcmpgt>:
10004e38:	fe10 f430 	dcp_pcmp APSR_nzcv
10004e3c:	d4f8      	bmi.n	10004e30 <__wrap___aeabi_dcmpge+0x20>
10004e3e:	ec41 0410 	dcp_wxup r0, r1
10004e42:	ec43 2411 	dcp_wyup r2, r3
10004e46:	ee00 0401 			dcp_add0
10004e4a:	ee10 f430 			dcp_rcmp APSR_nzcv
10004e4e:	bf8c      	ite	hi
10004e50:	2001      	movhi	r0, #1
10004e52:	2000      	movls	r0, #0
10004e54:	4770      	bx	lr
10004e56:	bf00      	nop

10004e58 <__wrap___aeabi_l2d>:
10004e58:	2200      	movs	r2, #0

10004e5a <fix642double>:
10004e5a:	2900      	cmp	r1, #0
10004e5c:	da50      	bge.n	10004f00 <ufix642double>
10004e5e:	4240      	negs	r0, r0
10004e60:	eb61 0141 	sbc.w	r1, r1, r1, lsl #1
10004e64:	b1c9      	cbz	r1, 10004e9a <fix642double+0x40>
10004e66:	fab1 f381 	clz	r3, r1
10004e6a:	3b0b      	subs	r3, #11
10004e6c:	d417      	bmi.n	10004e9e <fix642double+0x44>
10004e6e:	f1d3 0c20 	rsbs	ip, r3, #32
10004e72:	fa30 fc0c 	lsrs.w	ip, r0, ip
10004e76:	4098      	lsls	r0, r3
10004e78:	4099      	lsls	r1, r3
10004e7a:	ea51 010c 	orrs.w	r1, r1, ip
10004e7e:	441a      	add	r2, r3
10004e80:	4252      	negs	r2, r2
10004e82:	f202 4232 	addw	r2, r2, #1074	@ 0x432
10004e86:	eb01 5102 	add.w	r1, r1, r2, lsl #20
10004e8a:	f041 4100 	orr.w	r1, r1, #2147483648	@ 0x80000000
10004e8e:	f240 73fe 	movw	r3, #2046	@ 0x7fe
10004e92:	429a      	cmp	r2, r3
10004e94:	bf38      	it	cc
10004e96:	4770      	bxcc	lr
10004e98:	e021      	b.n	10004ede <fix642double+0x84>
10004e9a:	4611      	mov	r1, r2
10004e9c:	e07e      	b.n	10004f9c <fix2double_neg>
10004e9e:	f103 0321 	add.w	r3, r3, #33	@ 0x21
10004ea2:	fa10 fc03 	lsls.w	ip, r0, r3
10004ea6:	f1a3 0301 	sub.w	r3, r3, #1
10004eaa:	fa01 fc03 	lsl.w	ip, r1, r3
10004eae:	f1c3 0320 	rsb	r3, r3, #32
10004eb2:	fa20 f003 	lsr.w	r0, r0, r3
10004eb6:	fa21 f103 	lsr.w	r1, r1, r3
10004eba:	ea40 000c 	orr.w	r0, r0, ip
10004ebe:	eba3 0202 	sub.w	r2, r3, r2
10004ec2:	f202 4232 	addw	r2, r2, #1074	@ 0x432
10004ec6:	d014      	beq.n	10004ef2 <fix642double+0x98>
10004ec8:	f150 0000 	adcs.w	r0, r0, #0
10004ecc:	eb41 5102 	adc.w	r1, r1, r2, lsl #20
10004ed0:	f041 4100 	orr.w	r1, r1, #2147483648	@ 0x80000000
10004ed4:	f240 73fe 	movw	r3, #2046	@ 0x7fe
10004ed8:	429a      	cmp	r2, r3
10004eda:	bf38      	it	cc
10004edc:	4770      	bxcc	lr
10004ede:	f04f 0100 	mov.w	r1, #0
10004ee2:	bfa8      	it	ge
10004ee4:	f6c7 71f0 	movtge	r1, #32752	@ 0x7ff0
10004ee8:	f04f 0000 	mov.w	r0, #0
10004eec:	4770      	bx	lr
10004eee:	2100      	movs	r1, #0
10004ef0:	4770      	bx	lr
10004ef2:	d3eb      	bcc.n	10004ecc <fix642double+0x72>
10004ef4:	f150 0000 	adcs.w	r0, r0, #0
10004ef8:	f020 0001 	bic.w	r0, r0, #1
10004efc:	e7e6      	b.n	10004ecc <fix642double+0x72>

10004efe <__wrap___aeabi_ul2d>:
10004efe:	2200      	movs	r2, #0

10004f00 <ufix642double>:
10004f00:	b1b9      	cbz	r1, 10004f32 <ufix642double+0x32>
10004f02:	fab1 f381 	clz	r3, r1
10004f06:	3b0b      	subs	r3, #11
10004f08:	d416      	bmi.n	10004f38 <ufix642double+0x38>
10004f0a:	f1d3 0c20 	rsbs	ip, r3, #32
10004f0e:	fa30 fc0c 	lsrs.w	ip, r0, ip
10004f12:	4098      	lsls	r0, r3
10004f14:	4099      	lsls	r1, r3
10004f16:	ea51 010c 	orrs.w	r1, r1, ip
10004f1a:	441a      	add	r2, r3
10004f1c:	4252      	negs	r2, r2
10004f1e:	f202 4232 	addw	r2, r2, #1074	@ 0x432
10004f22:	eb01 5102 	add.w	r1, r1, r2, lsl #20
10004f26:	f240 73fe 	movw	r3, #2046	@ 0x7fe
10004f2a:	429a      	cmp	r2, r3
10004f2c:	bf38      	it	cc
10004f2e:	4770      	bxcc	lr
10004f30:	e020      	b.n	10004f74 <ufix642double+0x74>
10004f32:	4611      	mov	r1, r2
10004f34:	f000 b866 	b.w	10005004 <ufix2double>
10004f38:	f103 0321 	add.w	r3, r3, #33	@ 0x21
10004f3c:	fa10 fc03 	lsls.w	ip, r0, r3
10004f40:	f1a3 0301 	sub.w	r3, r3, #1
10004f44:	fa01 fc03 	lsl.w	ip, r1, r3
10004f48:	f1c3 0320 	rsb	r3, r3, #32
10004f4c:	fa20 f003 	lsr.w	r0, r0, r3
10004f50:	fa21 f103 	lsr.w	r1, r1, r3
10004f54:	ea40 000c 	orr.w	r0, r0, ip
10004f58:	eba3 0202 	sub.w	r2, r3, r2
10004f5c:	f202 4232 	addw	r2, r2, #1074	@ 0x432
10004f60:	d012      	beq.n	10004f88 <ufix642double+0x88>
10004f62:	f150 0000 	adcs.w	r0, r0, #0
10004f66:	eb41 5102 	adc.w	r1, r1, r2, lsl #20
10004f6a:	f240 73fe 	movw	r3, #2046	@ 0x7fe
10004f6e:	429a      	cmp	r2, r3
10004f70:	bf38      	it	cc
10004f72:	4770      	bxcc	lr
10004f74:	f04f 0100 	mov.w	r1, #0
10004f78:	bfa8      	it	ge
10004f7a:	f6c7 71f0 	movtge	r1, #32752	@ 0x7ff0
10004f7e:	f04f 0000 	mov.w	r0, #0
10004f82:	4770      	bx	lr
10004f84:	2100      	movs	r1, #0
10004f86:	4770      	bx	lr
10004f88:	d3ed      	bcc.n	10004f66 <ufix642double+0x66>
10004f8a:	f150 0000 	adcs.w	r0, r0, #0
10004f8e:	f020 0001 	bic.w	r0, r0, #1
10004f92:	e7e8      	b.n	10004f66 <ufix642double+0x66>

10004f94 <fix2double>:
10004f94:	2800      	cmp	r0, #0
10004f96:	f280 8035 	bge.w	10005004 <ufix2double>
10004f9a:	4240      	negs	r0, r0

10004f9c <fix2double_neg>:
10004f9c:	fab0 f380 	clz	r3, r0
10004fa0:	3b0b      	subs	r3, #11
10004fa2:	d411      	bmi.n	10004fc8 <fix2double_neg+0x2c>
10004fa4:	4098      	lsls	r0, r3
10004fa6:	eb01 0203 	add.w	r2, r1, r3
10004faa:	4252      	negs	r2, r2
10004fac:	f202 4212 	addw	r2, r2, #1042	@ 0x412
10004fb0:	eb00 5102 	add.w	r1, r0, r2, lsl #20
10004fb4:	f041 4100 	orr.w	r1, r1, #2147483648	@ 0x80000000
10004fb8:	f04f 0000 	mov.w	r0, #0
10004fbc:	f240 73fe 	movw	r3, #2046	@ 0x7fe
10004fc0:	429a      	cmp	r2, r3
10004fc2:	bf38      	it	cc
10004fc4:	4770      	bxcc	lr
10004fc6:	e013      	b.n	10004ff0 <fix2double_neg+0x54>
10004fc8:	f1c3 0300 	rsb	r3, r3, #0
10004fcc:	fa30 fc03 	lsrs.w	ip, r0, r3
10004fd0:	f1c3 0220 	rsb	r2, r3, #32
10004fd4:	4090      	lsls	r0, r2
10004fd6:	eba3 0201 	sub.w	r2, r3, r1
10004fda:	f202 4212 	addw	r2, r2, #1042	@ 0x412
10004fde:	eb0c 5102 	add.w	r1, ip, r2, lsl #20
10004fe2:	f041 4100 	orr.w	r1, r1, #2147483648	@ 0x80000000
10004fe6:	f240 73fe 	movw	r3, #2046	@ 0x7fe
10004fea:	429a      	cmp	r2, r3
10004fec:	bf38      	it	cc
10004fee:	4770      	bxcc	lr
10004ff0:	f04f 4100 	mov.w	r1, #2147483648	@ 0x80000000
10004ff4:	bfa8      	it	ge
10004ff6:	f6cf 71f0 	movtge	r1, #65520	@ 0xfff0
10004ffa:	f04f 0000 	mov.w	r0, #0
10004ffe:	4770      	bx	lr
10005000:	2100      	movs	r1, #0
10005002:	4770      	bx	lr

10005004 <ufix2double>:
10005004:	b360      	cbz	r0, 10005060 <ufix2double+0x5c>
10005006:	fab0 f380 	clz	r3, r0
1000500a:	3b0b      	subs	r3, #11
1000500c:	d40f      	bmi.n	1000502e <ufix2double+0x2a>
1000500e:	4098      	lsls	r0, r3
10005010:	eb01 0203 	add.w	r2, r1, r3
10005014:	4252      	negs	r2, r2
10005016:	f202 4212 	addw	r2, r2, #1042	@ 0x412
1000501a:	eb00 5102 	add.w	r1, r0, r2, lsl #20
1000501e:	f04f 0000 	mov.w	r0, #0
10005022:	f240 73fe 	movw	r3, #2046	@ 0x7fe
10005026:	429a      	cmp	r2, r3
10005028:	bf38      	it	cc
1000502a:	4770      	bxcc	lr
1000502c:	e010      	b.n	10005050 <ufix2double+0x4c>
1000502e:	425b      	negs	r3, r3
10005030:	fa30 fc03 	lsrs.w	ip, r0, r3
10005034:	f1c3 0220 	rsb	r2, r3, #32
10005038:	4090      	lsls	r0, r2
1000503a:	eba3 0201 	sub.w	r2, r3, r1
1000503e:	f202 4212 	addw	r2, r2, #1042	@ 0x412
10005042:	eb0c 5102 	add.w	r1, ip, r2, lsl #20
10005046:	f240 73fe 	movw	r3, #2046	@ 0x7fe
1000504a:	429a      	cmp	r2, r3
1000504c:	bf38      	it	cc
1000504e:	4770      	bxcc	lr
10005050:	f04f 0100 	mov.w	r1, #0
10005054:	bfa8      	it	ge
10005056:	f6c7 71f0 	movtge	r1, #32752	@ 0x7ff0
1000505a:	f04f 0000 	mov.w	r0, #0
1000505e:	4770      	bx	lr
10005060:	2100      	movs	r1, #0
10005062:	4770      	bx	lr

10005064 <__wrap___aeabi_d2lz>:
10005064:	2200      	movs	r2, #0

10005066 <double2fix64_z>:
10005066:	f2a2 4232 	subw	r2, r2, #1074	@ 0x432
1000506a:	ea5f 5c21 	movs.w	ip, r1, asr #20
1000506e:	f1ac 0301 	sub.w	r3, ip, #1
10005072:	eba1 5103 	sub.w	r1, r1, r3, lsl #20
10005076:	055b      	lsls	r3, r3, #21
10005078:	f513 0f80 	cmn.w	r3, #4194304	@ 0x400000
1000507c:	d232      	bcs.n	100050e4 <double2fix64_z+0x7e>
1000507e:	eb12 5253 	adds.w	r2, r2, r3, lsr #21
10005082:	d410      	bmi.n	100050a6 <double2fix64_z+0x40>
10005084:	2a0b      	cmp	r2, #11
10005086:	da36      	bge.n	100050f6 <double2fix64_z+0x90>
10005088:	4091      	lsls	r1, r2
1000508a:	f1d2 0320 	rsbs	r3, r2, #32
1000508e:	fa30 f303 	lsrs.w	r3, r0, r3
10005092:	4319      	orrs	r1, r3
10005094:	4090      	lsls	r0, r2
10005096:	f1bc 0f00 	cmp.w	ip, #0
1000509a:	bfa8      	it	ge
1000509c:	4770      	bxge	lr
1000509e:	4240      	negs	r0, r0
100050a0:	eb61 0141 	sbc.w	r1, r1, r1, lsl #1
100050a4:	4770      	bx	lr
100050a6:	3220      	adds	r2, #32
100050a8:	dd0e      	ble.n	100050c8 <double2fix64_z+0x62>
100050aa:	fa01 f302 	lsl.w	r3, r1, r2
100050ae:	f1d2 0220 	rsbs	r2, r2, #32
100050b2:	40d1      	lsrs	r1, r2
100050b4:	40d0      	lsrs	r0, r2
100050b6:	4318      	orrs	r0, r3
100050b8:	f1bc 0f00 	cmp.w	ip, #0
100050bc:	bfa8      	it	ge
100050be:	4770      	bxge	lr
100050c0:	4240      	negs	r0, r0
100050c2:	eb61 0141 	sbc.w	r1, r1, r1, lsl #1
100050c6:	4770      	bx	lr
100050c8:	4252      	negs	r2, r2
100050ca:	f382 0205 	usat	r2, #5, r2
100050ce:	fa31 f002 	lsrs.w	r0, r1, r2
100050d2:	2100      	movs	r1, #0
100050d4:	f1bc 0f00 	cmp.w	ip, #0
100050d8:	bfa8      	it	ge
100050da:	4770      	bxge	lr
100050dc:	4240      	negs	r0, r0
100050de:	eb61 0141 	sbc.w	r1, r1, r1, lsl #1
100050e2:	4770      	bx	lr
100050e4:	d002      	beq.n	100050ec <double2fix64_z+0x86>
100050e6:	2000      	movs	r0, #0
100050e8:	2100      	movs	r1, #0
100050ea:	4770      	bx	lr
100050ec:	ea50 3101 	orrs.w	r1, r0, r1, lsl #12
100050f0:	bf18      	it	ne
100050f2:	f04f 0c00 	movne.w	ip, #0
100050f6:	f06f 4100 	mvn.w	r1, #2147483648	@ 0x80000000
100050fa:	eb01 71dc 	add.w	r1, r1, ip, lsr #31
100050fe:	ea6f 70ec 	mvn.w	r0, ip, asr #31
10005102:	4770      	bx	lr

10005104 <__wrap_malloc>:
10005104:	b538      	push	{r3, r4, r5, lr}
10005106:	4604      	mov	r4, r0
10005108:	4809      	ldr	r0, [pc, #36]	@ (10005130 <__wrap_malloc+0x2c>)
1000510a:	f007 fe11 	bl	1000cd30 <__mutex_enter_blocking_veneer>
1000510e:	4620      	mov	r0, r4
10005110:	f002 f83c 	bl	1000718c <malloc>
10005114:	4605      	mov	r5, r0
10005116:	4806      	ldr	r0, [pc, #24]	@ (10005130 <__wrap_malloc+0x2c>)
10005118:	f007 fe06 	bl	1000cd28 <__mutex_exit_veneer>
1000511c:	b12d      	cbz	r5, 1000512a <__wrap_malloc+0x26>
1000511e:	4b05      	ldr	r3, [pc, #20]	@ (10005134 <__wrap_malloc+0x30>)
10005120:	442c      	add	r4, r5
10005122:	429c      	cmp	r4, r3
10005124:	d801      	bhi.n	1000512a <__wrap_malloc+0x26>
10005126:	4628      	mov	r0, r5
10005128:	bd38      	pop	{r3, r4, r5, pc}
1000512a:	4803      	ldr	r0, [pc, #12]	@ (10005138 <__wrap_malloc+0x34>)
1000512c:	f7fe fcb2 	bl	10003a94 <panic>
10005130:	20000d24 	.word	0x20000d24
10005134:	20080000 	.word	0x20080000
10005138:	1000d160 	.word	0x1000d160

1000513c <__wrap_realloc>:
1000513c:	b538      	push	{r3, r4, r5, lr}
1000513e:	4605      	mov	r5, r0
10005140:	460c      	mov	r4, r1
10005142:	480a      	ldr	r0, [pc, #40]	@ (1000516c <__wrap_realloc+0x30>)
10005144:	f007 fdf4 	bl	1000cd30 <__mutex_enter_blocking_veneer>
10005148:	4628      	mov	r0, r5
1000514a:	4621      	mov	r1, r4
1000514c:	f002 fb16 	bl	1000777c <realloc>
10005150:	4605      	mov	r5, r0
10005152:	4806      	ldr	r0, [pc, #24]	@ (1000516c <__wrap_realloc+0x30>)
10005154:	f007 fde8 	bl	1000cd28 <__mutex_exit_veneer>
10005158:	b12d      	cbz	r5, 10005166 <__wrap_realloc+0x2a>
1000515a:	4b05      	ldr	r3, [pc, #20]	@ (10005170 <__wrap_realloc+0x34>)
1000515c:	442c      	add	r4, r5
1000515e:	429c      	cmp	r4, r3
10005160:	d801      	bhi.n	10005166 <__wrap_realloc+0x2a>
10005162:	4628      	mov	r0, r5
10005164:	bd38      	pop	{r3, r4, r5, pc}
10005166:	4803      	ldr	r0, [pc, #12]	@ (10005174 <__wrap_realloc+0x38>)
10005168:	f7fe fc94 	bl	10003a94 <panic>
1000516c:	20000d24 	.word	0x20000d24
10005170:	20080000 	.word	0x20080000
10005174:	1000d160 	.word	0x1000d160

10005178 <__wrap_free>:
10005178:	b510      	push	{r4, lr}
1000517a:	4604      	mov	r4, r0
1000517c:	4805      	ldr	r0, [pc, #20]	@ (10005194 <__wrap_free+0x1c>)
1000517e:	f007 fdd7 	bl	1000cd30 <__mutex_enter_blocking_veneer>
10005182:	4620      	mov	r0, r4
10005184:	f002 f80a 	bl	1000719c <free>
10005188:	e8bd 4010 	ldmia.w	sp!, {r4, lr}
1000518c:	4801      	ldr	r0, [pc, #4]	@ (10005194 <__wrap_free+0x1c>)
1000518e:	f007 bdcb 	b.w	1000cd28 <__mutex_exit_veneer>
10005192:	bf00      	nop
10005194:	20000d24 	.word	0x20000d24

10005198 <_out_buffer>:
10005198:	429a      	cmp	r2, r3
1000519a:	bf38      	it	cc
1000519c:	5488      	strbcc	r0, [r1, r2]
1000519e:	4770      	bx	lr

100051a0 <_out_null>:
100051a0:	4770      	bx	lr
100051a2:	bf00      	nop

100051a4 <_out_rev>:
100051a4:	e92d 4ff0 	stmdb	sp!, {r4, r5, r6, r7, r8, r9, sl, fp, lr}
100051a8:	b083      	sub	sp, #12
100051aa:	4699      	mov	r9, r3
100051ac:	e9dd ab0d 	ldrd	sl, fp, [sp, #52]	@ 0x34
100051b0:	9b0f      	ldr	r3, [sp, #60]	@ 0x3c
100051b2:	4688      	mov	r8, r1
100051b4:	4611      	mov	r1, r2
100051b6:	079a      	lsls	r2, r3, #30
100051b8:	4607      	mov	r7, r0
100051ba:	d116      	bne.n	100051ea <_out_rev+0x46>
100051bc:	45da      	cmp	sl, fp
100051be:	d23a      	bcs.n	10005236 <_out_rev+0x92>
100051c0:	460c      	mov	r4, r1
100051c2:	460d      	mov	r5, r1
100051c4:	ebab 060a 	sub.w	r6, fp, sl
100051c8:	440e      	add	r6, r1
100051ca:	4622      	mov	r2, r4
100051cc:	464b      	mov	r3, r9
100051ce:	4641      	mov	r1, r8
100051d0:	2020      	movs	r0, #32
100051d2:	3401      	adds	r4, #1
100051d4:	47b8      	blx	r7
100051d6:	42b4      	cmp	r4, r6
100051d8:	d1f7      	bne.n	100051ca <_out_rev+0x26>
100051da:	4629      	mov	r1, r5
100051dc:	f1ba 0f00 	cmp.w	sl, #0
100051e0:	d108      	bne.n	100051f4 <_out_rev+0x50>
100051e2:	4620      	mov	r0, r4
100051e4:	b003      	add	sp, #12
100051e6:	e8bd 8ff0 	ldmia.w	sp!, {r4, r5, r6, r7, r8, r9, sl, fp, pc}
100051ea:	460c      	mov	r4, r1
100051ec:	f1ba 0f00 	cmp.w	sl, #0
100051f0:	d010      	beq.n	10005214 <_out_rev+0x70>
100051f2:	460e      	mov	r6, r1
100051f4:	4655      	mov	r5, sl
100051f6:	9b0c      	ldr	r3, [sp, #48]	@ 0x30
100051f8:	442e      	add	r6, r5
100051fa:	449a      	add	sl, r3
100051fc:	9101      	str	r1, [sp, #4]
100051fe:	1b72      	subs	r2, r6, r5
10005200:	464b      	mov	r3, r9
10005202:	3d01      	subs	r5, #1
10005204:	4641      	mov	r1, r8
10005206:	f81a 0d01 	ldrb.w	r0, [sl, #-1]!
1000520a:	4634      	mov	r4, r6
1000520c:	47b8      	blx	r7
1000520e:	2d00      	cmp	r5, #0
10005210:	d1f5      	bne.n	100051fe <_out_rev+0x5a>
10005212:	9901      	ldr	r1, [sp, #4]
10005214:	9b0f      	ldr	r3, [sp, #60]	@ 0x3c
10005216:	079b      	lsls	r3, r3, #30
10005218:	d5e3      	bpl.n	100051e2 <_out_rev+0x3e>
1000521a:	1a65      	subs	r5, r4, r1
1000521c:	45ab      	cmp	fp, r5
1000521e:	d9e0      	bls.n	100051e2 <_out_rev+0x3e>
10005220:	4622      	mov	r2, r4
10005222:	464b      	mov	r3, r9
10005224:	4641      	mov	r1, r8
10005226:	2020      	movs	r0, #32
10005228:	3501      	adds	r5, #1
1000522a:	47b8      	blx	r7
1000522c:	455d      	cmp	r5, fp
1000522e:	f104 0401 	add.w	r4, r4, #1
10005232:	d3f5      	bcc.n	10005220 <_out_rev+0x7c>
10005234:	e7d5      	b.n	100051e2 <_out_rev+0x3e>
10005236:	460c      	mov	r4, r1
10005238:	f1ba 0f00 	cmp.w	sl, #0
1000523c:	d1d9      	bne.n	100051f2 <_out_rev+0x4e>
1000523e:	e7d0      	b.n	100051e2 <_out_rev+0x3e>

10005240 <_ntoa_format>:
10005240:	e92d 4ff0 	stmdb	sp!, {r4, r5, r6, r7, r8, r9, sl, fp, lr}
10005244:	9f0f      	ldr	r7, [sp, #60]	@ 0x3c
10005246:	f8dd 8024 	ldr.w	r8, [sp, #36]	@ 0x24
1000524a:	f017 0f02 	tst.w	r7, #2
1000524e:	9c0a      	ldr	r4, [sp, #40]	@ 0x28
10005250:	f89d a02c 	ldrb.w	sl, [sp, #44]	@ 0x2c
10005254:	9d0e      	ldr	r5, [sp, #56]	@ 0x38
10005256:	e9dd 960c 	ldrd	r9, r6, [sp, #48]	@ 0x30
1000525a:	d144      	bne.n	100052e6 <_ntoa_format+0xa6>
1000525c:	bbf5      	cbnz	r5, 100052dc <_ntoa_format+0x9c>
1000525e:	42b4      	cmp	r4, r6
10005260:	d241      	bcs.n	100052e6 <_ntoa_format+0xa6>
10005262:	f007 0b01 	and.w	fp, r7, #1
10005266:	f104 3cff 	add.w	ip, r4, #4294967295	@ 0xffffffff
1000526a:	f04f 0e30 	mov.w	lr, #48	@ 0x30
1000526e:	44c4      	add	ip, r8
10005270:	e004      	b.n	1000527c <_ntoa_format+0x3c>
10005272:	3401      	adds	r4, #1
10005274:	42a6      	cmp	r6, r4
10005276:	f80c ef01 	strb.w	lr, [ip, #1]!
1000527a:	d901      	bls.n	10005280 <_ntoa_format+0x40>
1000527c:	2c20      	cmp	r4, #32
1000527e:	d1f8      	bne.n	10005272 <_ntoa_format+0x32>
10005280:	f1bb 0f00 	cmp.w	fp, #0
10005284:	f000 8088 	beq.w	10005398 <_ntoa_format+0x158>
10005288:	42a5      	cmp	r5, r4
1000528a:	d92c      	bls.n	100052e6 <_ntoa_format+0xa6>
1000528c:	f104 3cff 	add.w	ip, r4, #4294967295	@ 0xffffffff
10005290:	f04f 0e30 	mov.w	lr, #48	@ 0x30
10005294:	44c4      	add	ip, r8
10005296:	e004      	b.n	100052a2 <_ntoa_format+0x62>
10005298:	3401      	adds	r4, #1
1000529a:	42ac      	cmp	r4, r5
1000529c:	f80c ef01 	strb.w	lr, [ip, #1]!
100052a0:	d021      	beq.n	100052e6 <_ntoa_format+0xa6>
100052a2:	2c20      	cmp	r4, #32
100052a4:	d1f8      	bne.n	10005298 <_ntoa_format+0x58>
100052a6:	f017 0f10 	tst.w	r7, #16
100052aa:	d00e      	beq.n	100052ca <_ntoa_format+0x8a>
100052ac:	f417 6f80 	tst.w	r7, #1024	@ 0x400
100052b0:	d154      	bne.n	1000535c <_ntoa_format+0x11c>
100052b2:	42a6      	cmp	r6, r4
100052b4:	d063      	beq.n	1000537e <_ntoa_format+0x13e>
100052b6:	42a5      	cmp	r5, r4
100052b8:	d061      	beq.n	1000537e <_ntoa_format+0x13e>
100052ba:	f1b9 0f10 	cmp.w	r9, #16
100052be:	d050      	beq.n	10005362 <_ntoa_format+0x122>
100052c0:	f1b9 0f02 	cmp.w	r9, #2
100052c4:	d056      	beq.n	10005374 <_ntoa_format+0x134>
100052c6:	2c20      	cmp	r4, #32
100052c8:	d129      	bne.n	1000531e <_ntoa_format+0xde>
100052ca:	2420      	movs	r4, #32
100052cc:	e9cd 570b 	strd	r5, r7, [sp, #44]	@ 0x2c
100052d0:	e9cd 8409 	strd	r8, r4, [sp, #36]	@ 0x24
100052d4:	e8bd 4ff0 	ldmia.w	sp!, {r4, r5, r6, r7, r8, r9, sl, fp, lr}
100052d8:	f7ff bf64 	b.w	100051a4 <_out_rev>
100052dc:	f017 0b01 	ands.w	fp, r7, #1
100052e0:	d134      	bne.n	1000534c <_ntoa_format+0x10c>
100052e2:	42b4      	cmp	r4, r6
100052e4:	d3bf      	bcc.n	10005266 <_ntoa_format+0x26>
100052e6:	f017 0f10 	tst.w	r7, #16
100052ea:	d01e      	beq.n	1000532a <_ntoa_format+0xea>
100052ec:	f417 6f80 	tst.w	r7, #1024	@ 0x400
100052f0:	d1e3      	bne.n	100052ba <_ntoa_format+0x7a>
100052f2:	2c00      	cmp	r4, #0
100052f4:	d1dd      	bne.n	100052b2 <_ntoa_format+0x72>
100052f6:	f1b9 0f10 	cmp.w	r9, #16
100052fa:	d063      	beq.n	100053c4 <_ntoa_format+0x184>
100052fc:	f1b9 0f02 	cmp.w	r9, #2
10005300:	d077      	beq.n	100053f2 <_ntoa_format+0x1b2>
10005302:	2430      	movs	r4, #48	@ 0x30
10005304:	f888 4000 	strb.w	r4, [r8]
10005308:	2401      	movs	r4, #1
1000530a:	f1ba 0f00 	cmp.w	sl, #0
1000530e:	d111      	bne.n	10005334 <_ntoa_format+0xf4>
10005310:	077e      	lsls	r6, r7, #29
10005312:	d548      	bpl.n	100053a6 <_ntoa_format+0x166>
10005314:	262b      	movs	r6, #43	@ 0x2b
10005316:	f808 6004 	strb.w	r6, [r8, r4]
1000531a:	3401      	adds	r4, #1
1000531c:	e7d6      	b.n	100052cc <_ntoa_format+0x8c>
1000531e:	4626      	mov	r6, r4
10005320:	3401      	adds	r4, #1
10005322:	f04f 0c30 	mov.w	ip, #48	@ 0x30
10005326:	f808 c006 	strb.w	ip, [r8, r6]
1000532a:	2c20      	cmp	r4, #32
1000532c:	d0cd      	beq.n	100052ca <_ntoa_format+0x8a>
1000532e:	f1ba 0f00 	cmp.w	sl, #0
10005332:	d0ed      	beq.n	10005310 <_ntoa_format+0xd0>
10005334:	262d      	movs	r6, #45	@ 0x2d
10005336:	f808 6004 	strb.w	r6, [r8, r4]
1000533a:	3401      	adds	r4, #1
1000533c:	e9cd 570b 	strd	r5, r7, [sp, #44]	@ 0x2c
10005340:	e9cd 8409 	strd	r8, r4, [sp, #36]	@ 0x24
10005344:	e8bd 4ff0 	ldmia.w	sp!, {r4, r5, r6, r7, r8, r9, sl, fp, lr}
10005348:	f7ff bf2c 	b.w	100051a4 <_out_rev>
1000534c:	f1ba 0f00 	cmp.w	sl, #0
10005350:	d030      	beq.n	100053b4 <_ntoa_format+0x174>
10005352:	42b4      	cmp	r4, r6
10005354:	f105 35ff 	add.w	r5, r5, #4294967295	@ 0xffffffff
10005358:	d385      	bcc.n	10005266 <_ntoa_format+0x26>
1000535a:	e795      	b.n	10005288 <_ntoa_format+0x48>
1000535c:	f1b9 0f10 	cmp.w	r9, #16
10005360:	d1b3      	bne.n	100052ca <_ntoa_format+0x8a>
10005362:	06be      	lsls	r6, r7, #26
10005364:	d53b      	bpl.n	100053de <_ntoa_format+0x19e>
10005366:	2c20      	cmp	r4, #32
10005368:	d0af      	beq.n	100052ca <_ntoa_format+0x8a>
1000536a:	2658      	movs	r6, #88	@ 0x58
1000536c:	f808 6004 	strb.w	r6, [r8, r4]
10005370:	3401      	adds	r4, #1
10005372:	e7a8      	b.n	100052c6 <_ntoa_format+0x86>
10005374:	2c20      	cmp	r4, #32
10005376:	d0a8      	beq.n	100052ca <_ntoa_format+0x8a>
10005378:	4626      	mov	r6, r4
1000537a:	3401      	adds	r4, #1
1000537c:	e007      	b.n	1000538e <_ntoa_format+0x14e>
1000537e:	1e66      	subs	r6, r4, #1
10005380:	d0b9      	beq.n	100052f6 <_ntoa_format+0xb6>
10005382:	f1b9 0f10 	cmp.w	r9, #16
10005386:	d036      	beq.n	100053f6 <_ntoa_format+0x1b6>
10005388:	f1b9 0f02 	cmp.w	r9, #2
1000538c:	d1c9      	bne.n	10005322 <_ntoa_format+0xe2>
1000538e:	f04f 0c62 	mov.w	ip, #98	@ 0x62
10005392:	f808 c006 	strb.w	ip, [r8, r6]
10005396:	e796      	b.n	100052c6 <_ntoa_format+0x86>
10005398:	f017 0f10 	tst.w	r7, #16
1000539c:	d0c5      	beq.n	1000532a <_ntoa_format+0xea>
1000539e:	f417 6f80 	tst.w	r7, #1024	@ 0x400
100053a2:	d086      	beq.n	100052b2 <_ntoa_format+0x72>
100053a4:	e789      	b.n	100052ba <_ntoa_format+0x7a>
100053a6:	073e      	lsls	r6, r7, #28
100053a8:	d590      	bpl.n	100052cc <_ntoa_format+0x8c>
100053aa:	2620      	movs	r6, #32
100053ac:	f808 6004 	strb.w	r6, [r8, r4]
100053b0:	3401      	adds	r4, #1
100053b2:	e78b      	b.n	100052cc <_ntoa_format+0x8c>
100053b4:	f017 0f0c 	tst.w	r7, #12
100053b8:	d000      	beq.n	100053bc <_ntoa_format+0x17c>
100053ba:	3d01      	subs	r5, #1
100053bc:	42b4      	cmp	r4, r6
100053be:	f4ff af52 	bcc.w	10005266 <_ntoa_format+0x26>
100053c2:	e761      	b.n	10005288 <_ntoa_format+0x48>
100053c4:	06bc      	lsls	r4, r7, #26
100053c6:	d412      	bmi.n	100053ee <_ntoa_format+0x1ae>
100053c8:	2478      	movs	r4, #120	@ 0x78
100053ca:	f888 4000 	strb.w	r4, [r8]
100053ce:	2430      	movs	r4, #48	@ 0x30
100053d0:	f888 4001 	strb.w	r4, [r8, #1]
100053d4:	2402      	movs	r4, #2
100053d6:	f1ba 0f00 	cmp.w	sl, #0
100053da:	d099      	beq.n	10005310 <_ntoa_format+0xd0>
100053dc:	e7aa      	b.n	10005334 <_ntoa_format+0xf4>
100053de:	2c20      	cmp	r4, #32
100053e0:	f43f af73 	beq.w	100052ca <_ntoa_format+0x8a>
100053e4:	2678      	movs	r6, #120	@ 0x78
100053e6:	f808 6004 	strb.w	r6, [r8, r4]
100053ea:	3401      	adds	r4, #1
100053ec:	e76b      	b.n	100052c6 <_ntoa_format+0x86>
100053ee:	2458      	movs	r4, #88	@ 0x58
100053f0:	e7eb      	b.n	100053ca <_ntoa_format+0x18a>
100053f2:	2462      	movs	r4, #98	@ 0x62
100053f4:	e7e9      	b.n	100053ca <_ntoa_format+0x18a>
100053f6:	f017 0f20 	tst.w	r7, #32
100053fa:	f1a4 0c02 	sub.w	ip, r4, #2
100053fe:	d004      	beq.n	1000540a <_ntoa_format+0x1ca>
10005400:	f04f 0e58 	mov.w	lr, #88	@ 0x58
10005404:	f808 e00c 	strb.w	lr, [r8, ip]
10005408:	e78b      	b.n	10005322 <_ntoa_format+0xe2>
1000540a:	f04f 0e78 	mov.w	lr, #120	@ 0x78
1000540e:	f808 e00c 	strb.w	lr, [r8, ip]
10005412:	e786      	b.n	10005322 <_ntoa_format+0xe2>

10005414 <_out_char>:
10005414:	b900      	cbnz	r0, 10005418 <_out_char+0x4>
10005416:	4770      	bx	lr
10005418:	f001 bbc4 	b.w	10006ba4 <__wrap_putchar>

1000541c <_out_fct>:
1000541c:	b110      	cbz	r0, 10005424 <_out_fct+0x8>
1000541e:	e9d1 3100 	ldrd	r3, r1, [r1]
10005422:	4718      	bx	r3
10005424:	4770      	bx	lr
10005426:	bf00      	nop

10005428 <_ftoa>:
10005428:	e92d 4ff0 	stmdb	sp!, {r4, r5, r6, r7, r8, r9, sl, fp, lr}
1000542c:	b097      	sub	sp, #92	@ 0x5c
1000542e:	ed9d 7b20 	vldr	d7, [sp, #128]	@ 0x80
10005432:	e9dd 5b22 	ldrd	r5, fp, [sp, #136]	@ 0x88
10005436:	4607      	mov	r7, r0
10005438:	4688      	mov	r8, r1
1000543a:	ec51 0b17 	vmov	r0, r1, d7
1000543e:	9c24      	ldr	r4, [sp, #144]	@ 0x90
10005440:	4699      	mov	r9, r3
10005442:	920c      	str	r2, [sp, #48]	@ 0x30
10005444:	460b      	mov	r3, r1
10005446:	4602      	mov	r2, r0
10005448:	ed8d 7b04 	vstr	d7, [sp, #16]
1000544c:	9407      	str	r4, [sp, #28]
1000544e:	f7ff fc93 	bl	10004d78 <__wrap___aeabi_dcmpun>
10005452:	2800      	cmp	r0, #0
10005454:	f040 81f4 	bne.w	10005840 <_ftoa+0x418>
10005458:	e9dd 0104 	ldrd	r0, r1, [sp, #16]
1000545c:	f04f 32ff 	mov.w	r2, #4294967295	@ 0xffffffff
10005460:	f46f 1380 	mvn.w	r3, #1048576	@ 0x100000
10005464:	f7ff fcac 	bl	10004dc0 <__wrap___aeabi_dcmplt>
10005468:	2800      	cmp	r0, #0
1000546a:	f040 811b 	bne.w	100056a4 <_ftoa+0x27c>
1000546e:	e9dd 0104 	ldrd	r0, r1, [sp, #16]
10005472:	f04f 32ff 	mov.w	r2, #4294967295	@ 0xffffffff
10005476:	4bac      	ldr	r3, [pc, #688]	@ (10005728 <_ftoa+0x300>)
10005478:	f7ff fcde 	bl	10004e38 <__wrap___aeabi_dcmpgt>
1000547c:	2800      	cmp	r0, #0
1000547e:	f040 80ee 	bne.w	1000565e <_ftoa+0x236>
10005482:	e9dd 0104 	ldrd	r0, r1, [sp, #16]
10005486:	a3a4      	add	r3, pc, #656	@ (adr r3, 10005718 <_ftoa+0x2f0>)
10005488:	e9d3 2300 	ldrd	r2, r3, [r3]
1000548c:	f7ff fcd4 	bl	10004e38 <__wrap___aeabi_dcmpgt>
10005490:	2800      	cmp	r0, #0
10005492:	f040 80d3 	bne.w	1000563c <_ftoa+0x214>
10005496:	e9dd 0104 	ldrd	r0, r1, [sp, #16]
1000549a:	a3a1      	add	r3, pc, #644	@ (adr r3, 10005720 <_ftoa+0x2f8>)
1000549c:	e9d3 2300 	ldrd	r2, r3, [r3]
100054a0:	f7ff fc8e 	bl	10004dc0 <__wrap___aeabi_dcmplt>
100054a4:	2800      	cmp	r0, #0
100054a6:	f040 80c9 	bne.w	1000563c <_ftoa+0x214>
100054aa:	e9dd 0104 	ldrd	r0, r1, [sp, #16]
100054ae:	2200      	movs	r2, #0
100054b0:	2300      	movs	r3, #0
100054b2:	f7ff fc85 	bl	10004dc0 <__wrap___aeabi_dcmplt>
100054b6:	2800      	cmp	r0, #0
100054b8:	f040 80e8 	bne.w	1000568c <_ftoa+0x264>
100054bc:	4623      	mov	r3, r4
100054be:	900d      	str	r0, [sp, #52]	@ 0x34
100054c0:	f413 6f80 	tst.w	r3, #1024	@ 0x400
100054c4:	bf08      	it	eq
100054c6:	2506      	moveq	r5, #6
100054c8:	2130      	movs	r1, #48	@ 0x30
100054ca:	462b      	mov	r3, r5
100054cc:	aa0e      	add	r2, sp, #56	@ 0x38
100054ce:	f1a5 0620 	sub.w	r6, r5, #32
100054d2:	e005      	b.n	100054e0 <_ftoa+0xb8>
100054d4:	3b01      	subs	r3, #1
100054d6:	42b3      	cmp	r3, r6
100054d8:	f802 1b01 	strb.w	r1, [r2], #1
100054dc:	f000 8193 	beq.w	10005806 <_ftoa+0x3de>
100054e0:	2b09      	cmp	r3, #9
100054e2:	d8f7      	bhi.n	100054d4 <_ftoa+0xac>
100054e4:	461e      	mov	r6, r3
100054e6:	1aed      	subs	r5, r5, r3
100054e8:	e9dd 0104 	ldrd	r0, r1, [sp, #16]
100054ec:	f7ff fc20 	bl	10004d30 <__wrap___aeabi_d2iz>
100054f0:	4b8e      	ldr	r3, [pc, #568]	@ (1000572c <_ftoa+0x304>)
100054f2:	4604      	mov	r4, r0
100054f4:	eb03 03c6 	add.w	r3, r3, r6, lsl #3
100054f8:	ed93 7b00 	vldr	d7, [r3]
100054fc:	ed8d 7b08 	vstr	d7, [sp, #32]
10005500:	f7ff fbf2 	bl	10004ce8 <__wrap___aeabi_i2d>
10005504:	4602      	mov	r2, r0
10005506:	460b      	mov	r3, r1
10005508:	e9dd 0104 	ldrd	r0, r1, [sp, #16]
1000550c:	f7ff fb56 	bl	10004bbc <__wrap___aeabi_dsub>
10005510:	e9dd 2308 	ldrd	r2, r3, [sp, #32]
10005514:	f7ff fb66 	bl	10004be4 <__wrap___aeabi_dmul>
10005518:	4602      	mov	r2, r0
1000551a:	460b      	mov	r3, r1
1000551c:	e9cd 230a 	strd	r2, r3, [sp, #40]	@ 0x28
10005520:	f7ff fc18 	bl	10004d54 <__wrap___aeabi_d2uiz>
10005524:	4682      	mov	sl, r0
10005526:	f7ff fbf1 	bl	10004d0c <__wrap___aeabi_ui2d>
1000552a:	4602      	mov	r2, r0
1000552c:	460b      	mov	r3, r1
1000552e:	e9dd 010a 	ldrd	r0, r1, [sp, #40]	@ 0x28
10005532:	f7ff fb43 	bl	10004bbc <__wrap___aeabi_dsub>
10005536:	4602      	mov	r2, r0
10005538:	460b      	mov	r3, r1
1000553a:	e9cd 230a 	strd	r2, r3, [sp, #40]	@ 0x28
1000553e:	2200      	movs	r2, #0
10005540:	4b7b      	ldr	r3, [pc, #492]	@ (10005730 <_ftoa+0x308>)
10005542:	f7ff fc79 	bl	10004e38 <__wrap___aeabi_dcmpgt>
10005546:	2800      	cmp	r0, #0
10005548:	f000 80fe 	beq.w	10005748 <_ftoa+0x320>
1000554c:	f10a 0a01 	add.w	sl, sl, #1
10005550:	4650      	mov	r0, sl
10005552:	f7ff fbdb 	bl	10004d0c <__wrap___aeabi_ui2d>
10005556:	4602      	mov	r2, r0
10005558:	460b      	mov	r3, r1
1000555a:	e9dd 0108 	ldrd	r0, r1, [sp, #32]
1000555e:	f7ff fc43 	bl	10004de8 <__wrap___aeabi_dcmple>
10005562:	b110      	cbz	r0, 1000556a <_ftoa+0x142>
10005564:	f04f 0a00 	mov.w	sl, #0
10005568:	3401      	adds	r4, #1
1000556a:	2e00      	cmp	r6, #0
1000556c:	f000 80fd 	beq.w	1000576a <_ftoa+0x342>
10005570:	1e68      	subs	r0, r5, #1
10005572:	ab0e      	add	r3, sp, #56	@ 0x38
10005574:	f8df c1cc 	ldr.w	ip, [pc, #460]	@ 10005744 <_ftoa+0x31c>
10005578:	4418      	add	r0, r3
1000557a:	e00f      	b.n	1000559c <_ftoa+0x174>
1000557c:	fbac 210a 	umull	r2, r1, ip, sl
10005580:	08c9      	lsrs	r1, r1, #3
10005582:	eb01 0281 	add.w	r2, r1, r1, lsl #2
10005586:	ebaa 0242 	sub.w	r2, sl, r2, lsl #1
1000558a:	3230      	adds	r2, #48	@ 0x30
1000558c:	f1ba 0f09 	cmp.w	sl, #9
10005590:	f800 2f01 	strb.w	r2, [r0, #1]!
10005594:	f240 811c 	bls.w	100057d0 <_ftoa+0x3a8>
10005598:	468a      	mov	sl, r1
1000559a:	461d      	mov	r5, r3
1000559c:	2d20      	cmp	r5, #32
1000559e:	f105 0301 	add.w	r3, r5, #1
100055a2:	f106 36ff 	add.w	r6, r6, #4294967295	@ 0xffffffff
100055a6:	d1e9      	bne.n	1000557c <_ftoa+0x154>
100055a8:	2520      	movs	r5, #32
100055aa:	1e69      	subs	r1, r5, #1
100055ac:	ab0e      	add	r3, sp, #56	@ 0x38
100055ae:	4861      	ldr	r0, [pc, #388]	@ (10005734 <_ftoa+0x30c>)
100055b0:	4419      	add	r1, r3
100055b2:	e010      	b.n	100055d6 <_ftoa+0x1ae>
100055b4:	fb80 6204 	smull	r6, r2, r0, r4
100055b8:	ebc3 03a2 	rsb	r3, r3, r2, asr #2
100055bc:	eb03 0283 	add.w	r2, r3, r3, lsl #2
100055c0:	eba4 0442 	sub.w	r4, r4, r2, lsl #1
100055c4:	f104 0230 	add.w	r2, r4, #48	@ 0x30
100055c8:	3501      	adds	r5, #1
100055ca:	461c      	mov	r4, r3
100055cc:	f801 2f01 	strb.w	r2, [r1, #1]!
100055d0:	2b00      	cmp	r3, #0
100055d2:	f000 80eb 	beq.w	100057ac <_ftoa+0x384>
100055d6:	2d20      	cmp	r5, #32
100055d8:	ea4f 73e4 	mov.w	r3, r4, asr #31
100055dc:	d1ea      	bne.n	100055b4 <_ftoa+0x18c>
100055de:	9b07      	ldr	r3, [sp, #28]
100055e0:	f003 0303 	and.w	r3, r3, #3
100055e4:	2b01      	cmp	r3, #1
100055e6:	d118      	bne.n	1000561a <_ftoa+0x1f2>
100055e8:	f1bb 0f00 	cmp.w	fp, #0
100055ec:	d015      	beq.n	1000561a <_ftoa+0x1f2>
100055ee:	9b0d      	ldr	r3, [sp, #52]	@ 0x34
100055f0:	2b00      	cmp	r3, #0
100055f2:	f000 810a 	beq.w	1000580a <_ftoa+0x3e2>
100055f6:	f10b 3bff 	add.w	fp, fp, #4294967295	@ 0xffffffff
100055fa:	f1bb 0f20 	cmp.w	fp, #32
100055fe:	d90c      	bls.n	1000561a <_ftoa+0x1f2>
10005600:	1e6b      	subs	r3, r5, #1
10005602:	a90e      	add	r1, sp, #56	@ 0x38
10005604:	2230      	movs	r2, #48	@ 0x30
10005606:	440b      	add	r3, r1
10005608:	e005      	b.n	10005616 <_ftoa+0x1ee>
1000560a:	3501      	adds	r5, #1
1000560c:	455d      	cmp	r5, fp
1000560e:	f803 2f01 	strb.w	r2, [r3, #1]!
10005612:	f080 80d1 	bcs.w	100057b8 <_ftoa+0x390>
10005616:	2d20      	cmp	r5, #32
10005618:	d1f7      	bne.n	1000560a <_ftoa+0x1e2>
1000561a:	9b07      	ldr	r3, [sp, #28]
1000561c:	ac0e      	add	r4, sp, #56	@ 0x38
1000561e:	e9cd b302 	strd	fp, r3, [sp, #8]
10005622:	4641      	mov	r1, r8
10005624:	464b      	mov	r3, r9
10005626:	4638      	mov	r0, r7
10005628:	9a0c      	ldr	r2, [sp, #48]	@ 0x30
1000562a:	9501      	str	r5, [sp, #4]
1000562c:	9400      	str	r4, [sp, #0]
1000562e:	f7ff fdb9 	bl	100051a4 <_out_rev>
10005632:	4682      	mov	sl, r0
10005634:	4650      	mov	r0, sl
10005636:	b017      	add	sp, #92	@ 0x5c
10005638:	e8bd 8ff0 	ldmia.w	sp!, {r4, r5, r6, r7, r8, r9, sl, fp, pc}
1000563c:	9b07      	ldr	r3, [sp, #28]
1000563e:	ed9d 7b04 	vldr	d7, [sp, #16]
10005642:	e9cd b323 	strd	fp, r3, [sp, #140]	@ 0x8c
10005646:	4641      	mov	r1, r8
10005648:	464b      	mov	r3, r9
1000564a:	4638      	mov	r0, r7
1000564c:	9a0c      	ldr	r2, [sp, #48]	@ 0x30
1000564e:	ed8d 7b20 	vstr	d7, [sp, #128]	@ 0x80
10005652:	9522      	str	r5, [sp, #136]	@ 0x88
10005654:	b017      	add	sp, #92	@ 0x5c
10005656:	e8bd 4ff0 	ldmia.w	sp!, {r4, r5, r6, r7, r8, r9, sl, fp, lr}
1000565a:	f000 b945 	b.w	100058e8 <_etoa>
1000565e:	0761      	lsls	r1, r4, #29
10005660:	4623      	mov	r3, r4
10005662:	bf4c      	ite	mi
10005664:	2304      	movmi	r3, #4
10005666:	2303      	movpl	r3, #3
10005668:	4641      	mov	r1, r8
1000566a:	9321      	str	r3, [sp, #132]	@ 0x84
1000566c:	4638      	mov	r0, r7
1000566e:	464b      	mov	r3, r9
10005670:	9a07      	ldr	r2, [sp, #28]
10005672:	bf48      	it	mi
10005674:	4c30      	ldrmi	r4, [pc, #192]	@ (10005738 <_ftoa+0x310>)
10005676:	e9cd b222 	strd	fp, r2, [sp, #136]	@ 0x88
1000567a:	bf58      	it	pl
1000567c:	4c2f      	ldrpl	r4, [pc, #188]	@ (1000573c <_ftoa+0x314>)
1000567e:	9a0c      	ldr	r2, [sp, #48]	@ 0x30
10005680:	9420      	str	r4, [sp, #128]	@ 0x80
10005682:	b017      	add	sp, #92	@ 0x5c
10005684:	e8bd 4ff0 	ldmia.w	sp!, {r4, r5, r6, r7, r8, r9, sl, fp, lr}
10005688:	f7ff bd8c 	b.w	100051a4 <_out_rev>
1000568c:	e9dd 2304 	ldrd	r2, r3, [sp, #16]
10005690:	2000      	movs	r0, #0
10005692:	2100      	movs	r1, #0
10005694:	f7ff fa92 	bl	10004bbc <__wrap___aeabi_dsub>
10005698:	2301      	movs	r3, #1
1000569a:	e9cd 0104 	strd	r0, r1, [sp, #16]
1000569e:	930d      	str	r3, [sp, #52]	@ 0x34
100056a0:	4623      	mov	r3, r4
100056a2:	e70d      	b.n	100054c0 <_ftoa+0x98>
100056a4:	4623      	mov	r3, r4
100056a6:	079c      	lsls	r4, r3, #30
100056a8:	f040 80aa 	bne.w	10005800 <_ftoa+0x3d8>
100056ac:	f1bb 0f04 	cmp.w	fp, #4
100056b0:	f240 80a6 	bls.w	10005800 <_ftoa+0x3d8>
100056b4:	9b0c      	ldr	r3, [sp, #48]	@ 0x30
100056b6:	461d      	mov	r5, r3
100056b8:	1f1c      	subs	r4, r3, #4
100056ba:	eb04 0a0b 	add.w	sl, r4, fp
100056be:	462a      	mov	r2, r5
100056c0:	464b      	mov	r3, r9
100056c2:	4641      	mov	r1, r8
100056c4:	2020      	movs	r0, #32
100056c6:	3501      	adds	r5, #1
100056c8:	47b8      	blx	r7
100056ca:	45aa      	cmp	sl, r5
100056cc:	d1f7      	bne.n	100056be <_ftoa+0x296>
100056ce:	4655      	mov	r5, sl
100056d0:	4c1b      	ldr	r4, [pc, #108]	@ (10005740 <_ftoa+0x318>)
100056d2:	1f26      	subs	r6, r4, #4
100056d4:	f814 0d01 	ldrb.w	r0, [r4, #-1]!
100056d8:	462a      	mov	r2, r5
100056da:	464b      	mov	r3, r9
100056dc:	4641      	mov	r1, r8
100056de:	47b8      	blx	r7
100056e0:	42b4      	cmp	r4, r6
100056e2:	f105 0501 	add.w	r5, r5, #1
100056e6:	d1f5      	bne.n	100056d4 <_ftoa+0x2ac>
100056e8:	9b07      	ldr	r3, [sp, #28]
100056ea:	f10a 0a04 	add.w	sl, sl, #4
100056ee:	0798      	lsls	r0, r3, #30
100056f0:	d5a0      	bpl.n	10005634 <_ftoa+0x20c>
100056f2:	9c0c      	ldr	r4, [sp, #48]	@ 0x30
100056f4:	ebaa 0304 	sub.w	r3, sl, r4
100056f8:	459b      	cmp	fp, r3
100056fa:	d99b      	bls.n	10005634 <_ftoa+0x20c>
100056fc:	4652      	mov	r2, sl
100056fe:	464b      	mov	r3, r9
10005700:	4641      	mov	r1, r8
10005702:	2020      	movs	r0, #32
10005704:	f10a 0a01 	add.w	sl, sl, #1
10005708:	47b8      	blx	r7
1000570a:	ebaa 0304 	sub.w	r3, sl, r4
1000570e:	455b      	cmp	r3, fp
10005710:	d3f4      	bcc.n	100056fc <_ftoa+0x2d4>
10005712:	e78f      	b.n	10005634 <_ftoa+0x20c>
10005714:	f3af 8000 	nop.w
10005718:	00000000 	.word	0x00000000
1000571c:	41cdcd65 	.word	0x41cdcd65
10005720:	00000000 	.word	0x00000000
10005724:	c1cdcd65 	.word	0xc1cdcd65
10005728:	7fefffff 	.word	0x7fefffff
1000572c:	1000e190 	.word	0x1000e190
10005730:	3fe00000 	.word	0x3fe00000
10005734:	66666667 	.word	0x66666667
10005738:	1000d1b4 	.word	0x1000d1b4
1000573c:	1000d1bc 	.word	0x1000d1bc
10005740:	1000d1c8 	.word	0x1000d1c8
10005744:	cccccccd 	.word	0xcccccccd
10005748:	2200      	movs	r2, #0
1000574a:	e9dd 010a 	ldrd	r0, r1, [sp, #40]	@ 0x28
1000574e:	4b63      	ldr	r3, [pc, #396]	@ (100058dc <_ftoa+0x4b4>)
10005750:	f7ff fb36 	bl	10004dc0 <__wrap___aeabi_dcmplt>
10005754:	2800      	cmp	r0, #0
10005756:	f47f af08 	bne.w	1000556a <_ftoa+0x142>
1000575a:	f1ba 0f00 	cmp.w	sl, #0
1000575e:	d16a      	bne.n	10005836 <_ftoa+0x40e>
10005760:	f10a 0a01 	add.w	sl, sl, #1
10005764:	2e00      	cmp	r6, #0
10005766:	f47f af03 	bne.w	10005570 <_ftoa+0x148>
1000576a:	4620      	mov	r0, r4
1000576c:	f7ff fabc 	bl	10004ce8 <__wrap___aeabi_i2d>
10005770:	4602      	mov	r2, r0
10005772:	460b      	mov	r3, r1
10005774:	e9dd 0104 	ldrd	r0, r1, [sp, #16]
10005778:	f7ff fa20 	bl	10004bbc <__wrap___aeabi_dsub>
1000577c:	4602      	mov	r2, r0
1000577e:	460b      	mov	r3, r1
10005780:	e9cd 2304 	strd	r2, r3, [sp, #16]
10005784:	2200      	movs	r2, #0
10005786:	4b55      	ldr	r3, [pc, #340]	@ (100058dc <_ftoa+0x4b4>)
10005788:	f7ff fb1a 	bl	10004dc0 <__wrap___aeabi_dcmplt>
1000578c:	2800      	cmp	r0, #0
1000578e:	f47f af0c 	bne.w	100055aa <_ftoa+0x182>
10005792:	e9dd 0104 	ldrd	r0, r1, [sp, #16]
10005796:	2200      	movs	r2, #0
10005798:	4b50      	ldr	r3, [pc, #320]	@ (100058dc <_ftoa+0x4b4>)
1000579a:	f7ff fb4d 	bl	10004e38 <__wrap___aeabi_dcmpgt>
1000579e:	2800      	cmp	r0, #0
100057a0:	f47f af03 	bne.w	100055aa <_ftoa+0x182>
100057a4:	3401      	adds	r4, #1
100057a6:	f024 0401 	bic.w	r4, r4, #1
100057aa:	e6fe      	b.n	100055aa <_ftoa+0x182>
100057ac:	9b07      	ldr	r3, [sp, #28]
100057ae:	f003 0303 	and.w	r3, r3, #3
100057b2:	2b01      	cmp	r3, #1
100057b4:	f000 8082 	beq.w	100058bc <_ftoa+0x494>
100057b8:	2d20      	cmp	r5, #32
100057ba:	f43f af2e 	beq.w	1000561a <_ftoa+0x1f2>
100057be:	9b0d      	ldr	r3, [sp, #52]	@ 0x34
100057c0:	b37b      	cbz	r3, 10005822 <_ftoa+0x3fa>
100057c2:	222d      	movs	r2, #45	@ 0x2d
100057c4:	eb0d 0305 	add.w	r3, sp, r5
100057c8:	f883 2038 	strb.w	r2, [r3, #56]	@ 0x38
100057cc:	3501      	adds	r5, #1
100057ce:	e724      	b.n	1000561a <_ftoa+0x1f2>
100057d0:	2b20      	cmp	r3, #32
100057d2:	f43f aee9 	beq.w	100055a8 <_ftoa+0x180>
100057d6:	aa0e      	add	r2, sp, #56	@ 0x38
100057d8:	4415      	add	r5, r2
100057da:	441e      	add	r6, r3
100057dc:	2230      	movs	r2, #48	@ 0x30
100057de:	e004      	b.n	100057ea <_ftoa+0x3c2>
100057e0:	2b20      	cmp	r3, #32
100057e2:	f805 2f01 	strb.w	r2, [r5, #1]!
100057e6:	f43f aedf 	beq.w	100055a8 <_ftoa+0x180>
100057ea:	429e      	cmp	r6, r3
100057ec:	f103 0301 	add.w	r3, r3, #1
100057f0:	d1f6      	bne.n	100057e0 <_ftoa+0x3b8>
100057f2:	222e      	movs	r2, #46	@ 0x2e
100057f4:	eb0d 0306 	add.w	r3, sp, r6
100057f8:	f883 2038 	strb.w	r2, [r3, #56]	@ 0x38
100057fc:	1c75      	adds	r5, r6, #1
100057fe:	e6d4      	b.n	100055aa <_ftoa+0x182>
10005800:	f8dd a030 	ldr.w	sl, [sp, #48]	@ 0x30
10005804:	e763      	b.n	100056ce <_ftoa+0x2a6>
10005806:	2520      	movs	r5, #32
10005808:	e66e      	b.n	100054e8 <_ftoa+0xc0>
1000580a:	9b07      	ldr	r3, [sp, #28]
1000580c:	f013 0f0c 	tst.w	r3, #12
10005810:	d050      	beq.n	100058b4 <_ftoa+0x48c>
10005812:	f10b 3bff 	add.w	fp, fp, #4294967295	@ 0xffffffff
10005816:	45ab      	cmp	fp, r5
10005818:	f63f aef2 	bhi.w	10005600 <_ftoa+0x1d8>
1000581c:	2d20      	cmp	r5, #32
1000581e:	f43f aefc 	beq.w	1000561a <_ftoa+0x1f2>
10005822:	9b07      	ldr	r3, [sp, #28]
10005824:	075a      	lsls	r2, r3, #29
10005826:	d501      	bpl.n	1000582c <_ftoa+0x404>
10005828:	222b      	movs	r2, #43	@ 0x2b
1000582a:	e7cb      	b.n	100057c4 <_ftoa+0x39c>
1000582c:	071b      	lsls	r3, r3, #28
1000582e:	f57f aef4 	bpl.w	1000561a <_ftoa+0x1f2>
10005832:	2220      	movs	r2, #32
10005834:	e7c6      	b.n	100057c4 <_ftoa+0x39c>
10005836:	f01a 0f01 	tst.w	sl, #1
1000583a:	f43f ae96 	beq.w	1000556a <_ftoa+0x142>
1000583e:	e78f      	b.n	10005760 <_ftoa+0x338>
10005840:	07a6      	lsls	r6, r4, #30
10005842:	d134      	bne.n	100058ae <_ftoa+0x486>
10005844:	f1bb 0f03 	cmp.w	fp, #3
10005848:	d931      	bls.n	100058ae <_ftoa+0x486>
1000584a:	9b0c      	ldr	r3, [sp, #48]	@ 0x30
1000584c:	461d      	mov	r5, r3
1000584e:	1edc      	subs	r4, r3, #3
10005850:	eb04 0a0b 	add.w	sl, r4, fp
10005854:	462a      	mov	r2, r5
10005856:	464b      	mov	r3, r9
10005858:	4641      	mov	r1, r8
1000585a:	2020      	movs	r0, #32
1000585c:	3501      	adds	r5, #1
1000585e:	47b8      	blx	r7
10005860:	4555      	cmp	r5, sl
10005862:	d1f7      	bne.n	10005854 <_ftoa+0x42c>
10005864:	4655      	mov	r5, sl
10005866:	4c1e      	ldr	r4, [pc, #120]	@ (100058e0 <_ftoa+0x4b8>)
10005868:	1ee6      	subs	r6, r4, #3
1000586a:	f814 0d01 	ldrb.w	r0, [r4, #-1]!
1000586e:	462a      	mov	r2, r5
10005870:	464b      	mov	r3, r9
10005872:	4641      	mov	r1, r8
10005874:	47b8      	blx	r7
10005876:	42a6      	cmp	r6, r4
10005878:	f105 0501 	add.w	r5, r5, #1
1000587c:	d1f5      	bne.n	1000586a <_ftoa+0x442>
1000587e:	9b07      	ldr	r3, [sp, #28]
10005880:	f10a 0a03 	add.w	sl, sl, #3
10005884:	079d      	lsls	r5, r3, #30
10005886:	f57f aed5 	bpl.w	10005634 <_ftoa+0x20c>
1000588a:	9c0c      	ldr	r4, [sp, #48]	@ 0x30
1000588c:	ebaa 0304 	sub.w	r3, sl, r4
10005890:	459b      	cmp	fp, r3
10005892:	f67f aecf 	bls.w	10005634 <_ftoa+0x20c>
10005896:	4652      	mov	r2, sl
10005898:	464b      	mov	r3, r9
1000589a:	4641      	mov	r1, r8
1000589c:	2020      	movs	r0, #32
1000589e:	f10a 0a01 	add.w	sl, sl, #1
100058a2:	47b8      	blx	r7
100058a4:	ebaa 0304 	sub.w	r3, sl, r4
100058a8:	459b      	cmp	fp, r3
100058aa:	d8f4      	bhi.n	10005896 <_ftoa+0x46e>
100058ac:	e6c2      	b.n	10005634 <_ftoa+0x20c>
100058ae:	f8dd a030 	ldr.w	sl, [sp, #48]	@ 0x30
100058b2:	e7d7      	b.n	10005864 <_ftoa+0x43c>
100058b4:	45ab      	cmp	fp, r5
100058b6:	f63f aea3 	bhi.w	10005600 <_ftoa+0x1d8>
100058ba:	e6ae      	b.n	1000561a <_ftoa+0x1f2>
100058bc:	f1bb 0f00 	cmp.w	fp, #0
100058c0:	f43f af7a 	beq.w	100057b8 <_ftoa+0x390>
100058c4:	9b0d      	ldr	r3, [sp, #52]	@ 0x34
100058c6:	2b00      	cmp	r3, #0
100058c8:	d09f      	beq.n	1000580a <_ftoa+0x3e2>
100058ca:	f10b 3bff 	add.w	fp, fp, #4294967295	@ 0xffffffff
100058ce:	455d      	cmp	r5, fp
100058d0:	f4ff ae96 	bcc.w	10005600 <_ftoa+0x1d8>
100058d4:	2d20      	cmp	r5, #32
100058d6:	f47f af74 	bne.w	100057c2 <_ftoa+0x39a>
100058da:	e69e      	b.n	1000561a <_ftoa+0x1f2>
100058dc:	3fe00000 	.word	0x3fe00000
100058e0:	1000d1c3 	.word	0x1000d1c3
100058e4:	00000000 	.word	0x00000000

100058e8 <_etoa>:
100058e8:	e92d 4ff0 	stmdb	sp!, {r4, r5, r6, r7, r8, r9, sl, fp, lr}
100058ec:	b09f      	sub	sp, #124	@ 0x7c
100058ee:	9e2a      	ldr	r6, [sp, #168]	@ 0xa8
100058f0:	e9dd 4528 	ldrd	r4, r5, [sp, #160]	@ 0xa0
100058f4:	4607      	mov	r7, r0
100058f6:	4693      	mov	fp, r2
100058f8:	9108      	str	r1, [sp, #32]
100058fa:	9309      	str	r3, [sp, #36]	@ 0x24
100058fc:	4622      	mov	r2, r4
100058fe:	462b      	mov	r3, r5
10005900:	4620      	mov	r0, r4
10005902:	4629      	mov	r1, r5
10005904:	960e      	str	r6, [sp, #56]	@ 0x38
10005906:	e9dd a62b 	ldrd	sl, r6, [sp, #172]	@ 0xac
1000590a:	f7ff fa35 	bl	10004d78 <__wrap___aeabi_dcmpun>
1000590e:	2800      	cmp	r0, #0
10005910:	f040 80be 	bne.w	10005a90 <_etoa+0x1a8>
10005914:	4620      	mov	r0, r4
10005916:	4629      	mov	r1, r5
10005918:	f04f 32ff 	mov.w	r2, #4294967295	@ 0xffffffff
1000591c:	4b78      	ldr	r3, [pc, #480]	@ (10005b00 <_etoa+0x218>)
1000591e:	f7ff fa8b 	bl	10004e38 <__wrap___aeabi_dcmpgt>
10005922:	2800      	cmp	r0, #0
10005924:	f040 80b4 	bne.w	10005a90 <_etoa+0x1a8>
10005928:	4620      	mov	r0, r4
1000592a:	4629      	mov	r1, r5
1000592c:	f04f 32ff 	mov.w	r2, #4294967295	@ 0xffffffff
10005930:	f46f 1380 	mvn.w	r3, #1048576	@ 0x100000
10005934:	f7ff fa44 	bl	10004dc0 <__wrap___aeabi_dcmplt>
10005938:	2800      	cmp	r0, #0
1000593a:	f040 80a9 	bne.w	10005a90 <_etoa+0x1a8>
1000593e:	4620      	mov	r0, r4
10005940:	4629      	mov	r1, r5
10005942:	2200      	movs	r2, #0
10005944:	2300      	movs	r3, #0
10005946:	f7ff fa3b 	bl	10004dc0 <__wrap___aeabi_dcmplt>
1000594a:	2800      	cmp	r0, #0
1000594c:	f040 81d5 	bne.w	10005cfa <_etoa+0x412>
10005950:	e9cd 450a 	strd	r4, r5, [sp, #40]	@ 0x28
10005954:	e9dd 230a 	ldrd	r2, r3, [sp, #40]	@ 0x28
10005958:	4690      	mov	r8, r2
1000595a:	4699      	mov	r9, r3
1000595c:	f406 6200 	and.w	r2, r6, #2048	@ 0x800
10005960:	f416 6380 	ands.w	r3, r6, #1024	@ 0x400
10005964:	920f      	str	r2, [sp, #60]	@ 0x3c
10005966:	9313      	str	r3, [sp, #76]	@ 0x4c
10005968:	f040 80a1 	bne.w	10005aae <_etoa+0x1c6>
1000596c:	ea58 0309 	orrs.w	r3, r8, r9
10005970:	f040 80ca 	bne.w	10005b08 <_etoa+0x220>
10005974:	2a00      	cmp	r2, #0
10005976:	f040 81e3 	bne.w	10005d40 <_etoa+0x458>
1000597a:	2306      	movs	r3, #6
1000597c:	930e      	str	r3, [sp, #56]	@ 0x38
1000597e:	f016 0202 	ands.w	r2, r6, #2
10005982:	9210      	str	r2, [sp, #64]	@ 0x40
10005984:	f040 81d4 	bne.w	10005d30 <_etoa+0x448>
10005988:	4653      	mov	r3, sl
1000598a:	2b04      	cmp	r3, #4
1000598c:	bf38      	it	cc
1000598e:	2304      	movcc	r3, #4
10005990:	920c      	str	r2, [sp, #48]	@ 0x30
10005992:	2204      	movs	r2, #4
10005994:	3b04      	subs	r3, #4
10005996:	9212      	str	r2, [sp, #72]	@ 0x48
10005998:	930f      	str	r3, [sp, #60]	@ 0x3c
1000599a:	4620      	mov	r0, r4
1000599c:	4629      	mov	r1, r5
1000599e:	2200      	movs	r2, #0
100059a0:	2300      	movs	r3, #0
100059a2:	f7ff fa0d 	bl	10004dc0 <__wrap___aeabi_dcmplt>
100059a6:	2800      	cmp	r0, #0
100059a8:	f040 81f3 	bne.w	10005d92 <_etoa+0x4aa>
100059ac:	ed9d 7b0a 	vldr	d7, [sp, #40]	@ 0x28
100059b0:	9b0f      	ldr	r3, [sp, #60]	@ 0x3c
100059b2:	465a      	mov	r2, fp
100059b4:	9303      	str	r3, [sp, #12]
100059b6:	9b0e      	ldr	r3, [sp, #56]	@ 0x38
100059b8:	ed8d 7b00 	vstr	d7, [sp]
100059bc:	9302      	str	r3, [sp, #8]
100059be:	f426 6300 	bic.w	r3, r6, #2048	@ 0x800
100059c2:	9304      	str	r3, [sp, #16]
100059c4:	4638      	mov	r0, r7
100059c6:	9b09      	ldr	r3, [sp, #36]	@ 0x24
100059c8:	9908      	ldr	r1, [sp, #32]
100059ca:	f7ff fd2d 	bl	10005428 <_ftoa>
100059ce:	4602      	mov	r2, r0
100059d0:	f016 0f20 	tst.w	r6, #32
100059d4:	9b09      	ldr	r3, [sp, #36]	@ 0x24
100059d6:	9908      	ldr	r1, [sp, #32]
100059d8:	bf0c      	ite	eq
100059da:	2065      	moveq	r0, #101	@ 0x65
100059dc:	2045      	movne	r0, #69	@ 0x45
100059de:	f102 0801 	add.w	r8, r2, #1
100059e2:	47b8      	blx	r7
100059e4:	9a0c      	ldr	r2, [sp, #48]	@ 0x30
100059e6:	9b12      	ldr	r3, [sp, #72]	@ 0x48
100059e8:	ac16      	add	r4, sp, #88	@ 0x58
100059ea:	1e5d      	subs	r5, r3, #1
100059ec:	ea82 73e2 	eor.w	r3, r2, r2, asr #31
100059f0:	eba3 73e2 	sub.w	r3, r3, r2, asr #31
100059f4:	0fd1      	lsrs	r1, r2, #31
100059f6:	2600      	movs	r6, #0
100059f8:	4622      	mov	r2, r4
100059fa:	4699      	mov	r9, r3
100059fc:	f8df c104 	ldr.w	ip, [pc, #260]	@ 10005b04 <_etoa+0x21c>
10005a00:	e001      	b.n	10005a06 <_etoa+0x11e>
10005a02:	2e20      	cmp	r6, #32
10005a04:	d010      	beq.n	10005a28 <_etoa+0x140>
10005a06:	46ce      	mov	lr, r9
10005a08:	fbac 3009 	umull	r3, r0, ip, r9
10005a0c:	08c0      	lsrs	r0, r0, #3
10005a0e:	eb00 0380 	add.w	r3, r0, r0, lsl #2
10005a12:	eba9 0343 	sub.w	r3, r9, r3, lsl #1
10005a16:	3330      	adds	r3, #48	@ 0x30
10005a18:	f1be 0f09 	cmp.w	lr, #9
10005a1c:	4681      	mov	r9, r0
10005a1e:	f106 0601 	add.w	r6, r6, #1
10005a22:	f802 3b01 	strb.w	r3, [r2], #1
10005a26:	d8ec      	bhi.n	10005a02 <_etoa+0x11a>
10005a28:	2305      	movs	r3, #5
10005a2a:	2000      	movs	r0, #0
10005a2c:	9306      	str	r3, [sp, #24]
10005a2e:	230a      	movs	r3, #10
10005a30:	9505      	str	r5, [sp, #20]
10005a32:	9400      	str	r4, [sp, #0]
10005a34:	9d09      	ldr	r5, [sp, #36]	@ 0x24
10005a36:	9c08      	ldr	r4, [sp, #32]
10005a38:	4642      	mov	r2, r8
10005a3a:	e9cd 3003 	strd	r3, r0, [sp, #12]
10005a3e:	e9cd 6101 	strd	r6, r1, [sp, #4]
10005a42:	462b      	mov	r3, r5
10005a44:	4621      	mov	r1, r4
10005a46:	4638      	mov	r0, r7
10005a48:	f7ff fbfa 	bl	10005240 <_ntoa_format>
10005a4c:	9a10      	ldr	r2, [sp, #64]	@ 0x40
10005a4e:	4680      	mov	r8, r0
10005a50:	b1d2      	cbz	r2, 10005a88 <_etoa+0x1a0>
10005a52:	eba0 060b 	sub.w	r6, r0, fp
10005a56:	45b2      	cmp	sl, r6
10005a58:	d916      	bls.n	10005a88 <_etoa+0x1a0>
10005a5a:	eb0b 0206 	add.w	r2, fp, r6
10005a5e:	462b      	mov	r3, r5
10005a60:	4621      	mov	r1, r4
10005a62:	2020      	movs	r0, #32
10005a64:	3601      	adds	r6, #1
10005a66:	47b8      	blx	r7
10005a68:	45b2      	cmp	sl, r6
10005a6a:	d8f6      	bhi.n	10005a5a <_etoa+0x172>
10005a6c:	f10b 33ff 	add.w	r3, fp, #4294967295	@ 0xffffffff
10005a70:	4453      	add	r3, sl
10005a72:	f1cb 0201 	rsb	r2, fp, #1
10005a76:	eba3 0308 	sub.w	r3, r3, r8
10005a7a:	4442      	add	r2, r8
10005a7c:	4592      	cmp	sl, r2
10005a7e:	bf38      	it	cc
10005a80:	2300      	movcc	r3, #0
10005a82:	f108 0801 	add.w	r8, r8, #1
10005a86:	4498      	add	r8, r3
10005a88:	4640      	mov	r0, r8
10005a8a:	b01f      	add	sp, #124	@ 0x7c
10005a8c:	e8bd 8ff0 	ldmia.w	sp!, {r4, r5, r6, r7, r8, r9, sl, fp, pc}
10005a90:	465a      	mov	r2, fp
10005a92:	4638      	mov	r0, r7
10005a94:	e9cd 4528 	strd	r4, r5, [sp, #160]	@ 0xa0
10005a98:	e9cd a62b 	strd	sl, r6, [sp, #172]	@ 0xac
10005a9c:	9c0e      	ldr	r4, [sp, #56]	@ 0x38
10005a9e:	9b09      	ldr	r3, [sp, #36]	@ 0x24
10005aa0:	9908      	ldr	r1, [sp, #32]
10005aa2:	942a      	str	r4, [sp, #168]	@ 0xa8
10005aa4:	b01f      	add	sp, #124	@ 0x7c
10005aa6:	e8bd 4ff0 	ldmia.w	sp!, {r4, r5, r6, r7, r8, r9, sl, fp, lr}
10005aaa:	f7ff bcbd 	b.w	10005428 <_ftoa>
10005aae:	ea58 0309 	orrs.w	r3, r8, r9
10005ab2:	d12b      	bne.n	10005b0c <_etoa+0x224>
10005ab4:	2a00      	cmp	r2, #0
10005ab6:	f43f af62 	beq.w	1000597e <_etoa+0x96>
10005aba:	2300      	movs	r3, #0
10005abc:	930c      	str	r3, [sp, #48]	@ 0x30
10005abe:	9b0e      	ldr	r3, [sp, #56]	@ 0x38
10005ac0:	9a0c      	ldr	r2, [sp, #48]	@ 0x30
10005ac2:	4293      	cmp	r3, r2
10005ac4:	f300 81b9 	bgt.w	10005e3a <_etoa+0x552>
10005ac8:	f04f 0800 	mov.w	r8, #0
10005acc:	4620      	mov	r0, r4
10005ace:	4629      	mov	r1, r5
10005ad0:	2200      	movs	r2, #0
10005ad2:	2300      	movs	r3, #0
10005ad4:	f7ff f974 	bl	10004dc0 <__wrap___aeabi_dcmplt>
10005ad8:	2800      	cmp	r0, #0
10005ada:	f040 8113 	bne.w	10005d04 <_etoa+0x41c>
10005ade:	ed9d 7b0a 	vldr	d7, [sp, #40]	@ 0x28
10005ae2:	f426 6600 	bic.w	r6, r6, #2048	@ 0x800
10005ae6:	f446 6680 	orr.w	r6, r6, #1024	@ 0x400
10005aea:	ed8d 7b28 	vstr	d7, [sp, #160]	@ 0xa0
10005aee:	465a      	mov	r2, fp
10005af0:	4638      	mov	r0, r7
10005af2:	e9cd 8a2a 	strd	r8, sl, [sp, #168]	@ 0xa8
10005af6:	9b09      	ldr	r3, [sp, #36]	@ 0x24
10005af8:	9908      	ldr	r1, [sp, #32]
10005afa:	962c      	str	r6, [sp, #176]	@ 0xb0
10005afc:	e7d2      	b.n	10005aa4 <_etoa+0x1bc>
10005afe:	bf00      	nop
10005b00:	7fefffff 	.word	0x7fefffff
10005b04:	cccccccd 	.word	0xcccccccd
10005b08:	2306      	movs	r3, #6
10005b0a:	930e      	str	r3, [sp, #56]	@ 0x38
10005b0c:	f3c9 500a 	ubfx	r0, r9, #20, #11
10005b10:	f2a0 30ff 	subw	r0, r0, #1023	@ 0x3ff
10005b14:	f7ff f8e8 	bl	10004ce8 <__wrap___aeabi_i2d>
10005b18:	a3c1      	add	r3, pc, #772	@ (adr r3, 10005e20 <_etoa+0x538>)
10005b1a:	e9d3 2300 	ldrd	r2, r3, [r3]
10005b1e:	f7ff f861 	bl	10004be4 <__wrap___aeabi_dmul>
10005b22:	a3c1      	add	r3, pc, #772	@ (adr r3, 10005e28 <_etoa+0x540>)
10005b24:	e9d3 2300 	ldrd	r2, r3, [r3]
10005b28:	f7ff f834 	bl	10004b94 <__wrap___aeabi_dadd>
10005b2c:	f3c9 0913 	ubfx	r9, r9, #0, #20
10005b30:	e9cd 010c 	strd	r0, r1, [sp, #48]	@ 0x30
10005b34:	f049 517f 	orr.w	r1, r9, #1069547520	@ 0x3fc00000
10005b38:	4640      	mov	r0, r8
10005b3a:	2200      	movs	r2, #0
10005b3c:	4bb2      	ldr	r3, [pc, #712]	@ (10005e08 <_etoa+0x520>)
10005b3e:	f441 1140 	orr.w	r1, r1, #3145728	@ 0x300000
10005b42:	f7ff f83b 	bl	10004bbc <__wrap___aeabi_dsub>
10005b46:	a3a4      	add	r3, pc, #656	@ (adr r3, 10005dd8 <_etoa+0x4f0>)
10005b48:	e9d3 2300 	ldrd	r2, r3, [r3]
10005b4c:	f7ff f84a 	bl	10004be4 <__wrap___aeabi_dmul>
10005b50:	4602      	mov	r2, r0
10005b52:	460b      	mov	r3, r1
10005b54:	e9dd 010c 	ldrd	r0, r1, [sp, #48]	@ 0x30
10005b58:	f7ff f81c 	bl	10004b94 <__wrap___aeabi_dadd>
10005b5c:	f7ff f8e8 	bl	10004d30 <__wrap___aeabi_d2iz>
10005b60:	900c      	str	r0, [sp, #48]	@ 0x30
10005b62:	f7ff f8c1 	bl	10004ce8 <__wrap___aeabi_i2d>
10005b66:	a39e      	add	r3, pc, #632	@ (adr r3, 10005de0 <_etoa+0x4f8>)
10005b68:	e9d3 2300 	ldrd	r2, r3, [r3]
10005b6c:	4680      	mov	r8, r0
10005b6e:	4689      	mov	r9, r1
10005b70:	f7ff f838 	bl	10004be4 <__wrap___aeabi_dmul>
10005b74:	2200      	movs	r2, #0
10005b76:	4ba5      	ldr	r3, [pc, #660]	@ (10005e0c <_etoa+0x524>)
10005b78:	f7ff f80c 	bl	10004b94 <__wrap___aeabi_dadd>
10005b7c:	f7ff f8d8 	bl	10004d30 <__wrap___aeabi_d2iz>
10005b80:	4603      	mov	r3, r0
10005b82:	4649      	mov	r1, r9
10005b84:	4640      	mov	r0, r8
10005b86:	9312      	str	r3, [sp, #72]	@ 0x48
10005b88:	a397      	add	r3, pc, #604	@ (adr r3, 10005de8 <_etoa+0x500>)
10005b8a:	e9d3 2300 	ldrd	r2, r3, [r3]
10005b8e:	f7ff f829 	bl	10004be4 <__wrap___aeabi_dmul>
10005b92:	4680      	mov	r8, r0
10005b94:	9812      	ldr	r0, [sp, #72]	@ 0x48
10005b96:	4689      	mov	r9, r1
10005b98:	f7ff f8a6 	bl	10004ce8 <__wrap___aeabi_i2d>
10005b9c:	a394      	add	r3, pc, #592	@ (adr r3, 10005df0 <_etoa+0x508>)
10005b9e:	e9d3 2300 	ldrd	r2, r3, [r3]
10005ba2:	f7ff f81f 	bl	10004be4 <__wrap___aeabi_dmul>
10005ba6:	4602      	mov	r2, r0
10005ba8:	460b      	mov	r3, r1
10005baa:	4640      	mov	r0, r8
10005bac:	4649      	mov	r1, r9
10005bae:	f7ff f805 	bl	10004bbc <__wrap___aeabi_dsub>
10005bb2:	4602      	mov	r2, r0
10005bb4:	460b      	mov	r3, r1
10005bb6:	4680      	mov	r8, r0
10005bb8:	4689      	mov	r9, r1
10005bba:	f7ff f813 	bl	10004be4 <__wrap___aeabi_dmul>
10005bbe:	4642      	mov	r2, r8
10005bc0:	464b      	mov	r3, r9
10005bc2:	e9cd 0110 	strd	r0, r1, [sp, #64]	@ 0x40
10005bc6:	4640      	mov	r0, r8
10005bc8:	4649      	mov	r1, r9
10005bca:	f7fe ffe3 	bl	10004b94 <__wrap___aeabi_dadd>
10005bce:	2200      	movs	r2, #0
10005bd0:	e9cd 0114 	strd	r0, r1, [sp, #80]	@ 0x50
10005bd4:	e9dd 0110 	ldrd	r0, r1, [sp, #64]	@ 0x40
10005bd8:	4b8d      	ldr	r3, [pc, #564]	@ (10005e10 <_etoa+0x528>)
10005bda:	f7ff f829 	bl	10004c30 <__wrap___aeabi_ddiv>
10005bde:	2200      	movs	r2, #0
10005be0:	4b8c      	ldr	r3, [pc, #560]	@ (10005e14 <_etoa+0x52c>)
10005be2:	f7fe ffd7 	bl	10004b94 <__wrap___aeabi_dadd>
10005be6:	4602      	mov	r2, r0
10005be8:	460b      	mov	r3, r1
10005bea:	e9dd 0110 	ldrd	r0, r1, [sp, #64]	@ 0x40
10005bee:	f7ff f81f 	bl	10004c30 <__wrap___aeabi_ddiv>
10005bf2:	2200      	movs	r2, #0
10005bf4:	4b88      	ldr	r3, [pc, #544]	@ (10005e18 <_etoa+0x530>)
10005bf6:	f7fe ffcd 	bl	10004b94 <__wrap___aeabi_dadd>
10005bfa:	4602      	mov	r2, r0
10005bfc:	460b      	mov	r3, r1
10005bfe:	e9dd 0110 	ldrd	r0, r1, [sp, #64]	@ 0x40
10005c02:	f7ff f815 	bl	10004c30 <__wrap___aeabi_ddiv>
10005c06:	4642      	mov	r2, r8
10005c08:	464b      	mov	r3, r9
10005c0a:	4680      	mov	r8, r0
10005c0c:	4689      	mov	r9, r1
10005c0e:	2000      	movs	r0, #0
10005c10:	f04f 4180 	mov.w	r1, #1073741824	@ 0x40000000
10005c14:	f7fe ffd2 	bl	10004bbc <__wrap___aeabi_dsub>
10005c18:	4602      	mov	r2, r0
10005c1a:	460b      	mov	r3, r1
10005c1c:	4640      	mov	r0, r8
10005c1e:	4649      	mov	r1, r9
10005c20:	f7fe ffb8 	bl	10004b94 <__wrap___aeabi_dadd>
10005c24:	4602      	mov	r2, r0
10005c26:	460b      	mov	r3, r1
10005c28:	e9dd 0114 	ldrd	r0, r1, [sp, #80]	@ 0x50
10005c2c:	f7ff f800 	bl	10004c30 <__wrap___aeabi_ddiv>
10005c30:	2200      	movs	r2, #0
10005c32:	4b7a      	ldr	r3, [pc, #488]	@ (10005e1c <_etoa+0x534>)
10005c34:	f7fe ffae 	bl	10004b94 <__wrap___aeabi_dadd>
10005c38:	9b12      	ldr	r3, [sp, #72]	@ 0x48
10005c3a:	2200      	movs	r2, #0
10005c3c:	f203 3cff 	addw	ip, r3, #1023	@ 0x3ff
10005c40:	ea4f 530c 	mov.w	r3, ip, lsl #20
10005c44:	f7fe ffce 	bl	10004be4 <__wrap___aeabi_dmul>
10005c48:	4680      	mov	r8, r0
10005c4a:	4689      	mov	r9, r1
10005c4c:	e9dd 010a 	ldrd	r0, r1, [sp, #40]	@ 0x28
10005c50:	4642      	mov	r2, r8
10005c52:	464b      	mov	r3, r9
10005c54:	f7ff f8b4 	bl	10004dc0 <__wrap___aeabi_dcmplt>
10005c58:	b150      	cbz	r0, 10005c70 <_etoa+0x388>
10005c5a:	9b0c      	ldr	r3, [sp, #48]	@ 0x30
10005c5c:	4640      	mov	r0, r8
10005c5e:	3b01      	subs	r3, #1
10005c60:	4649      	mov	r1, r9
10005c62:	930c      	str	r3, [sp, #48]	@ 0x30
10005c64:	2200      	movs	r2, #0
10005c66:	4b6b      	ldr	r3, [pc, #428]	@ (10005e14 <_etoa+0x52c>)
10005c68:	f7fe ffe2 	bl	10004c30 <__wrap___aeabi_ddiv>
10005c6c:	4680      	mov	r8, r0
10005c6e:	4689      	mov	r9, r1
10005c70:	9a0c      	ldr	r2, [sp, #48]	@ 0x30
10005c72:	4643      	mov	r3, r8
10005c74:	3263      	adds	r2, #99	@ 0x63
10005c76:	2ac6      	cmp	r2, #198	@ 0xc6
10005c78:	f006 0202 	and.w	r2, r6, #2
10005c7c:	9210      	str	r2, [sp, #64]	@ 0x40
10005c7e:	4649      	mov	r1, r9
10005c80:	9a0f      	ldr	r2, [sp, #60]	@ 0x3c
10005c82:	d82c      	bhi.n	10005cde <_etoa+0x3f6>
10005c84:	2a00      	cmp	r2, #0
10005c86:	d05e      	beq.n	10005d46 <_etoa+0x45e>
10005c88:	2204      	movs	r2, #4
10005c8a:	9212      	str	r2, [sp, #72]	@ 0x48
10005c8c:	430b      	orrs	r3, r1
10005c8e:	f43f af16 	beq.w	10005abe <_etoa+0x1d6>
10005c92:	e9dd 010a 	ldrd	r0, r1, [sp, #40]	@ 0x28
10005c96:	a358      	add	r3, pc, #352	@ (adr r3, 10005df8 <_etoa+0x510>)
10005c98:	e9d3 2300 	ldrd	r2, r3, [r3]
10005c9c:	f7ff f8b8 	bl	10004e10 <__wrap___aeabi_dcmpge>
10005ca0:	b148      	cbz	r0, 10005cb6 <_etoa+0x3ce>
10005ca2:	e9dd 010a 	ldrd	r0, r1, [sp, #40]	@ 0x28
10005ca6:	a356      	add	r3, pc, #344	@ (adr r3, 10005e00 <_etoa+0x518>)
10005ca8:	e9d3 2300 	ldrd	r2, r3, [r3]
10005cac:	f7ff f888 	bl	10004dc0 <__wrap___aeabi_dcmplt>
10005cb0:	2800      	cmp	r0, #0
10005cb2:	f47f af04 	bne.w	10005abe <_etoa+0x1d6>
10005cb6:	9b0e      	ldr	r3, [sp, #56]	@ 0x38
10005cb8:	2b00      	cmp	r3, #0
10005cba:	d050      	beq.n	10005d5e <_etoa+0x476>
10005cbc:	9a13      	ldr	r2, [sp, #76]	@ 0x4c
10005cbe:	2a00      	cmp	r2, #0
10005cc0:	d07d      	beq.n	10005dbe <_etoa+0x4d6>
10005cc2:	3b01      	subs	r3, #1
10005cc4:	930e      	str	r3, [sp, #56]	@ 0x38
10005cc6:	9b12      	ldr	r3, [sp, #72]	@ 0x48
10005cc8:	459a      	cmp	sl, r3
10005cca:	d905      	bls.n	10005cd8 <_etoa+0x3f0>
10005ccc:	9b10      	ldr	r3, [sp, #64]	@ 0x40
10005cce:	2b00      	cmp	r3, #0
10005cd0:	f000 80ae 	beq.w	10005e30 <_etoa+0x548>
10005cd4:	2302      	movs	r3, #2
10005cd6:	9310      	str	r3, [sp, #64]	@ 0x40
10005cd8:	2300      	movs	r3, #0
10005cda:	930f      	str	r3, [sp, #60]	@ 0x3c
10005cdc:	e044      	b.n	10005d68 <_etoa+0x480>
10005cde:	bb22      	cbnz	r2, 10005d2a <_etoa+0x442>
10005ce0:	f1ba 0f05 	cmp.w	sl, #5
10005ce4:	d94f      	bls.n	10005d86 <_etoa+0x49e>
10005ce6:	f006 0302 	and.w	r3, r6, #2
10005cea:	2b00      	cmp	r3, #0
10005cec:	d149      	bne.n	10005d82 <_etoa+0x49a>
10005cee:	2305      	movs	r3, #5
10005cf0:	9312      	str	r3, [sp, #72]	@ 0x48
10005cf2:	f1aa 0305 	sub.w	r3, sl, #5
10005cf6:	930f      	str	r3, [sp, #60]	@ 0x3c
10005cf8:	e03a      	b.n	10005d70 <_etoa+0x488>
10005cfa:	f105 4300 	add.w	r3, r5, #2147483648	@ 0x80000000
10005cfe:	940a      	str	r4, [sp, #40]	@ 0x28
10005d00:	930b      	str	r3, [sp, #44]	@ 0x2c
10005d02:	e627      	b.n	10005954 <_etoa+0x6c>
10005d04:	f426 6600 	bic.w	r6, r6, #2048	@ 0x800
10005d08:	f446 6680 	orr.w	r6, r6, #1024	@ 0x400
10005d0c:	4638      	mov	r0, r7
10005d0e:	962c      	str	r6, [sp, #176]	@ 0xb0
10005d10:	e9dd 670a 	ldrd	r6, r7, [sp, #40]	@ 0x28
10005d14:	4634      	mov	r4, r6
10005d16:	f107 4500 	add.w	r5, r7, #2147483648	@ 0x80000000
10005d1a:	465a      	mov	r2, fp
10005d1c:	e9cd 8a2a 	strd	r8, sl, [sp, #168]	@ 0xa8
10005d20:	e9cd 4528 	strd	r4, r5, [sp, #160]	@ 0xa0
10005d24:	9b09      	ldr	r3, [sp, #36]	@ 0x24
10005d26:	9908      	ldr	r1, [sp, #32]
10005d28:	e6bc      	b.n	10005aa4 <_etoa+0x1bc>
10005d2a:	2205      	movs	r2, #5
10005d2c:	9212      	str	r2, [sp, #72]	@ 0x48
10005d2e:	e7ad      	b.n	10005c8c <_etoa+0x3a4>
10005d30:	2300      	movs	r3, #0
10005d32:	2202      	movs	r2, #2
10005d34:	e9cd 320f 	strd	r3, r2, [sp, #60]	@ 0x3c
10005d38:	2204      	movs	r2, #4
10005d3a:	930c      	str	r3, [sp, #48]	@ 0x30
10005d3c:	9212      	str	r2, [sp, #72]	@ 0x48
10005d3e:	e62c      	b.n	1000599a <_etoa+0xb2>
10005d40:	f04f 0805 	mov.w	r8, #5
10005d44:	e6c2      	b.n	10005acc <_etoa+0x1e4>
10005d46:	f1ba 0f04 	cmp.w	sl, #4
10005d4a:	d91f      	bls.n	10005d8c <_etoa+0x4a4>
10005d4c:	9b10      	ldr	r3, [sp, #64]	@ 0x40
10005d4e:	2b00      	cmp	r3, #0
10005d50:	d178      	bne.n	10005e44 <_etoa+0x55c>
10005d52:	2304      	movs	r3, #4
10005d54:	9312      	str	r3, [sp, #72]	@ 0x48
10005d56:	f1aa 0304 	sub.w	r3, sl, #4
10005d5a:	930f      	str	r3, [sp, #60]	@ 0x3c
10005d5c:	e004      	b.n	10005d68 <_etoa+0x480>
10005d5e:	9b12      	ldr	r3, [sp, #72]	@ 0x48
10005d60:	459a      	cmp	sl, r3
10005d62:	d831      	bhi.n	10005dc8 <_etoa+0x4e0>
10005d64:	9b0e      	ldr	r3, [sp, #56]	@ 0x38
10005d66:	930f      	str	r3, [sp, #60]	@ 0x3c
10005d68:	9b0c      	ldr	r3, [sp, #48]	@ 0x30
10005d6a:	2b00      	cmp	r3, #0
10005d6c:	f43f ae15 	beq.w	1000599a <_etoa+0xb2>
10005d70:	e9dd 010a 	ldrd	r0, r1, [sp, #40]	@ 0x28
10005d74:	4642      	mov	r2, r8
10005d76:	464b      	mov	r3, r9
10005d78:	f7fe ff5a 	bl	10004c30 <__wrap___aeabi_ddiv>
10005d7c:	e9cd 010a 	strd	r0, r1, [sp, #40]	@ 0x28
10005d80:	e60b      	b.n	1000599a <_etoa+0xb2>
10005d82:	2302      	movs	r3, #2
10005d84:	9310      	str	r3, [sp, #64]	@ 0x40
10005d86:	2305      	movs	r3, #5
10005d88:	9312      	str	r3, [sp, #72]	@ 0x48
10005d8a:	e7f1      	b.n	10005d70 <_etoa+0x488>
10005d8c:	2304      	movs	r3, #4
10005d8e:	9312      	str	r3, [sp, #72]	@ 0x48
10005d90:	e7ea      	b.n	10005d68 <_etoa+0x480>
10005d92:	e9dd 450a 	ldrd	r4, r5, [sp, #40]	@ 0x28
10005d96:	46a0      	mov	r8, r4
10005d98:	9b0f      	ldr	r3, [sp, #60]	@ 0x3c
10005d9a:	f105 4900 	add.w	r9, r5, #2147483648	@ 0x80000000
10005d9e:	9303      	str	r3, [sp, #12]
10005da0:	9b0e      	ldr	r3, [sp, #56]	@ 0x38
10005da2:	465a      	mov	r2, fp
10005da4:	9302      	str	r3, [sp, #8]
10005da6:	f426 6300 	bic.w	r3, r6, #2048	@ 0x800
10005daa:	9304      	str	r3, [sp, #16]
10005dac:	4638      	mov	r0, r7
10005dae:	e9cd 8900 	strd	r8, r9, [sp]
10005db2:	9b09      	ldr	r3, [sp, #36]	@ 0x24
10005db4:	9908      	ldr	r1, [sp, #32]
10005db6:	f7ff fb37 	bl	10005428 <_ftoa>
10005dba:	4602      	mov	r2, r0
10005dbc:	e608      	b.n	100059d0 <_etoa+0xe8>
10005dbe:	9b12      	ldr	r3, [sp, #72]	@ 0x48
10005dc0:	459a      	cmp	sl, r3
10005dc2:	d844      	bhi.n	10005e4e <_etoa+0x566>
10005dc4:	920f      	str	r2, [sp, #60]	@ 0x3c
10005dc6:	e7cf      	b.n	10005d68 <_etoa+0x480>
10005dc8:	9b10      	ldr	r3, [sp, #64]	@ 0x40
10005dca:	b38b      	cbz	r3, 10005e30 <_etoa+0x548>
10005dcc:	9b0e      	ldr	r3, [sp, #56]	@ 0x38
10005dce:	930f      	str	r3, [sp, #60]	@ 0x3c
10005dd0:	2302      	movs	r3, #2
10005dd2:	9310      	str	r3, [sp, #64]	@ 0x40
10005dd4:	e7c8      	b.n	10005d68 <_etoa+0x480>
10005dd6:	bf00      	nop
10005dd8:	636f4361 	.word	0x636f4361
10005ddc:	3fd287a7 	.word	0x3fd287a7
10005de0:	0979a371 	.word	0x0979a371
10005de4:	400a934f 	.word	0x400a934f
10005de8:	bbb55516 	.word	0xbbb55516
10005dec:	40026bb1 	.word	0x40026bb1
10005df0:	fefa39ef 	.word	0xfefa39ef
10005df4:	3fe62e42 	.word	0x3fe62e42
10005df8:	eb1c432d 	.word	0xeb1c432d
10005dfc:	3f1a36e2 	.word	0x3f1a36e2
10005e00:	00000000 	.word	0x00000000
10005e04:	412e8480 	.word	0x412e8480
10005e08:	3ff80000 	.word	0x3ff80000
10005e0c:	3fe00000 	.word	0x3fe00000
10005e10:	402c0000 	.word	0x402c0000
10005e14:	40240000 	.word	0x40240000
10005e18:	40180000 	.word	0x40180000
10005e1c:	3ff00000 	.word	0x3ff00000
10005e20:	509f79fb 	.word	0x509f79fb
10005e24:	3fd34413 	.word	0x3fd34413
10005e28:	8b60c8b3 	.word	0x8b60c8b3
10005e2c:	3fc68a28 	.word	0x3fc68a28
10005e30:	9b12      	ldr	r3, [sp, #72]	@ 0x48
10005e32:	ebaa 0303 	sub.w	r3, sl, r3
10005e36:	930f      	str	r3, [sp, #60]	@ 0x3c
10005e38:	e796      	b.n	10005d68 <_etoa+0x480>
10005e3a:	eba3 0802 	sub.w	r8, r3, r2
10005e3e:	f108 38ff 	add.w	r8, r8, #4294967295	@ 0xffffffff
10005e42:	e643      	b.n	10005acc <_etoa+0x1e4>
10005e44:	2304      	movs	r3, #4
10005e46:	9312      	str	r3, [sp, #72]	@ 0x48
10005e48:	2302      	movs	r3, #2
10005e4a:	9310      	str	r3, [sp, #64]	@ 0x40
10005e4c:	e78c      	b.n	10005d68 <_etoa+0x480>
10005e4e:	9b10      	ldr	r3, [sp, #64]	@ 0x40
10005e50:	2b00      	cmp	r3, #0
10005e52:	d0ed      	beq.n	10005e30 <_etoa+0x548>
10005e54:	2302      	movs	r3, #2
10005e56:	920f      	str	r2, [sp, #60]	@ 0x3c
10005e58:	9310      	str	r3, [sp, #64]	@ 0x40
10005e5a:	e785      	b.n	10005d68 <_etoa+0x480>

10005e5c <_vsnprintf>:
10005e5c:	e92d 4ff0 	stmdb	sp!, {r4, r5, r6, r7, r8, r9, sl, fp, lr}
10005e60:	b09b      	sub	sp, #108	@ 0x6c
10005e62:	9c24      	ldr	r4, [sp, #144]	@ 0x90
10005e64:	4d95      	ldr	r5, [pc, #596]	@ (100060bc <_vsnprintf+0x260>)
10005e66:	940a      	str	r4, [sp, #40]	@ 0x28
10005e68:	4c95      	ldr	r4, [pc, #596]	@ (100060c0 <_vsnprintf+0x264>)
10005e6a:	f1b1 0a00 	subs.w	sl, r1, #0
10005e6e:	bf18      	it	ne
10005e70:	4683      	movne	fp, r0
10005e72:	6025      	str	r5, [r4, #0]
10005e74:	7818      	ldrb	r0, [r3, #0]
10005e76:	4c93      	ldr	r4, [pc, #588]	@ (100060c4 <_vsnprintf+0x268>)
10005e78:	4691      	mov	r9, r2
10005e7a:	bf08      	it	eq
10005e7c:	46a3      	moveq	fp, r4
10005e7e:	9309      	str	r3, [sp, #36]	@ 0x24
10005e80:	2800      	cmp	r0, #0
10005e82:	f000 8293 	beq.w	100063ac <_vsnprintf+0x550>
10005e86:	f04f 0800 	mov.w	r8, #0
10005e8a:	e00a      	b.n	10005ea2 <_vsnprintf+0x46>
10005e8c:	4642      	mov	r2, r8
10005e8e:	464b      	mov	r3, r9
10005e90:	4651      	mov	r1, sl
10005e92:	f108 0801 	add.w	r8, r8, #1
10005e96:	47d8      	blx	fp
10005e98:	9b09      	ldr	r3, [sp, #36]	@ 0x24
10005e9a:	7818      	ldrb	r0, [r3, #0]
10005e9c:	2800      	cmp	r0, #0
10005e9e:	f000 80ce 	beq.w	1000603e <_vsnprintf+0x1e2>
10005ea2:	9b09      	ldr	r3, [sp, #36]	@ 0x24
10005ea4:	2825      	cmp	r0, #37	@ 0x25
10005ea6:	f103 0301 	add.w	r3, r3, #1
10005eaa:	9309      	str	r3, [sp, #36]	@ 0x24
10005eac:	d1ee      	bne.n	10005e8c <_vsnprintf+0x30>
10005eae:	461c      	mov	r4, r3
10005eb0:	2300      	movs	r3, #0
10005eb2:	4622      	mov	r2, r4
10005eb4:	f812 0b01 	ldrb.w	r0, [r2], #1
10005eb8:	f1a0 0120 	sub.w	r1, r0, #32
10005ebc:	2910      	cmp	r1, #16
10005ebe:	d80a      	bhi.n	10005ed6 <_vsnprintf+0x7a>
10005ec0:	e8df f001 	tbb	[pc, r1]
10005ec4:	3c090940 	.word	0x3c090940
10005ec8:	09090909 	.word	0x09090909
10005ecc:	38090909 	.word	0x38090909
10005ed0:	09093409 	.word	0x09093409
10005ed4:	30          	.byte	0x30
10005ed5:	00          	.byte	0x00
10005ed6:	f1a0 0130 	sub.w	r1, r0, #48	@ 0x30
10005eda:	2909      	cmp	r1, #9
10005edc:	9409      	str	r4, [sp, #36]	@ 0x24
10005ede:	f240 808a 	bls.w	10005ff6 <_vsnprintf+0x19a>
10005ee2:	282a      	cmp	r0, #42	@ 0x2a
10005ee4:	f000 80f0 	beq.w	100060c8 <_vsnprintf+0x26c>
10005ee8:	2500      	movs	r5, #0
10005eea:	282e      	cmp	r0, #46	@ 0x2e
10005eec:	f000 8096 	beq.w	1000601c <_vsnprintf+0x1c0>
10005ef0:	2600      	movs	r6, #0
10005ef2:	f1a0 0168 	sub.w	r1, r0, #104	@ 0x68
10005ef6:	2912      	cmp	r1, #18
10005ef8:	d82d      	bhi.n	10005f56 <_vsnprintf+0xfa>
10005efa:	e8df f011 	tbh	[pc, r1, lsl #1]
10005efe:	0149      	.short	0x0149
10005f00:	0143002c 	.word	0x0143002c
10005f04:	0138002c 	.word	0x0138002c
10005f08:	002c002c 	.word	0x002c002c
10005f0c:	002c002c 	.word	0x002c002c
10005f10:	002c002c 	.word	0x002c002c
10005f14:	0027002c 	.word	0x0027002c
10005f18:	002c002c 	.word	0x002c002c
10005f1c:	002c002c 	.word	0x002c002c
10005f20:	0027002c 	.word	0x0027002c
10005f24:	4614      	mov	r4, r2
10005f26:	f043 0301 	orr.w	r3, r3, #1
10005f2a:	e7c2      	b.n	10005eb2 <_vsnprintf+0x56>
10005f2c:	4614      	mov	r4, r2
10005f2e:	f043 0302 	orr.w	r3, r3, #2
10005f32:	e7be      	b.n	10005eb2 <_vsnprintf+0x56>
10005f34:	4614      	mov	r4, r2
10005f36:	f043 0304 	orr.w	r3, r3, #4
10005f3a:	e7ba      	b.n	10005eb2 <_vsnprintf+0x56>
10005f3c:	4614      	mov	r4, r2
10005f3e:	f043 0310 	orr.w	r3, r3, #16
10005f42:	e7b6      	b.n	10005eb2 <_vsnprintf+0x56>
10005f44:	4614      	mov	r4, r2
10005f46:	f043 0308 	orr.w	r3, r3, #8
10005f4a:	e7b2      	b.n	10005eb2 <_vsnprintf+0x56>
10005f4c:	9909      	ldr	r1, [sp, #36]	@ 0x24
10005f4e:	7848      	ldrb	r0, [r1, #1]
10005f50:	f443 7380 	orr.w	r3, r3, #256	@ 0x100
10005f54:	3201      	adds	r2, #1
10005f56:	2867      	cmp	r0, #103	@ 0x67
10005f58:	9209      	str	r2, [sp, #36]	@ 0x24
10005f5a:	d87e      	bhi.n	1000605a <_vsnprintf+0x1fe>
10005f5c:	2824      	cmp	r0, #36	@ 0x24
10005f5e:	f240 80c1 	bls.w	100060e4 <_vsnprintf+0x288>
10005f62:	f1a0 0225 	sub.w	r2, r0, #37	@ 0x25
10005f66:	2a42      	cmp	r2, #66	@ 0x42
10005f68:	f200 80bc 	bhi.w	100060e4 <_vsnprintf+0x288>
10005f6c:	e8df f012 	tbh	[pc, r2, lsl #1]
10005f70:	00ba0150 	.word	0x00ba0150
10005f74:	00ba00ba 	.word	0x00ba00ba
10005f78:	00ba00ba 	.word	0x00ba00ba
10005f7c:	00ba00ba 	.word	0x00ba00ba
10005f80:	00ba00ba 	.word	0x00ba00ba
10005f84:	00ba00ba 	.word	0x00ba00ba
10005f88:	00ba00ba 	.word	0x00ba00ba
10005f8c:	00ba00ba 	.word	0x00ba00ba
10005f90:	00ba00ba 	.word	0x00ba00ba
10005f94:	00ba00ba 	.word	0x00ba00ba
10005f98:	00ba00ba 	.word	0x00ba00ba
10005f9c:	00ba00ba 	.word	0x00ba00ba
10005fa0:	00ba00ba 	.word	0x00ba00ba
10005fa4:	00ba00ba 	.word	0x00ba00ba
10005fa8:	00ba00ba 	.word	0x00ba00ba
10005fac:	00ba00ba 	.word	0x00ba00ba
10005fb0:	01370119 	.word	0x01370119
10005fb4:	00ba0119 	.word	0x00ba0119
10005fb8:	00ba00ba 	.word	0x00ba00ba
10005fbc:	00ba00ba 	.word	0x00ba00ba
10005fc0:	00ba00ba 	.word	0x00ba00ba
10005fc4:	00ba00ba 	.word	0x00ba00ba
10005fc8:	00ba00ba 	.word	0x00ba00ba
10005fcc:	00ba00ba 	.word	0x00ba00ba
10005fd0:	00ba00ba 	.word	0x00ba00ba
10005fd4:	01bc00ba 	.word	0x01bc00ba
10005fd8:	00ba00ba 	.word	0x00ba00ba
10005fdc:	00ba00ba 	.word	0x00ba00ba
10005fe0:	00ba00ba 	.word	0x00ba00ba
10005fe4:	00ba00ba 	.word	0x00ba00ba
10005fe8:	01bc00ba 	.word	0x01bc00ba
10005fec:	01bc0158 	.word	0x01bc0158
10005ff0:	01370119 	.word	0x01370119
10005ff4:	0119      	.short	0x0119
10005ff6:	2500      	movs	r5, #0
10005ff8:	e000      	b.n	10005ffc <_vsnprintf+0x1a0>
10005ffa:	3201      	adds	r2, #1
10005ffc:	eb05 0585 	add.w	r5, r5, r5, lsl #2
10006000:	eb00 0545 	add.w	r5, r0, r5, lsl #1
10006004:	7810      	ldrb	r0, [r2, #0]
10006006:	3d30      	subs	r5, #48	@ 0x30
10006008:	f1a0 0130 	sub.w	r1, r0, #48	@ 0x30
1000600c:	2909      	cmp	r1, #9
1000600e:	d9f4      	bls.n	10005ffa <_vsnprintf+0x19e>
10006010:	282e      	cmp	r0, #46	@ 0x2e
10006012:	9209      	str	r2, [sp, #36]	@ 0x24
10006014:	f102 0201 	add.w	r2, r2, #1
10006018:	f47f af6a 	bne.w	10005ef0 <_vsnprintf+0x94>
1000601c:	9909      	ldr	r1, [sp, #36]	@ 0x24
1000601e:	f443 6380 	orr.w	r3, r3, #1024	@ 0x400
10006022:	7848      	ldrb	r0, [r1, #1]
10006024:	4611      	mov	r1, r2
10006026:	f1a0 0630 	sub.w	r6, r0, #48	@ 0x30
1000602a:	2e09      	cmp	r6, #9
1000602c:	f240 8121 	bls.w	10006272 <_vsnprintf+0x416>
10006030:	282a      	cmp	r0, #42	@ 0x2a
10006032:	f000 812f 	beq.w	10006294 <_vsnprintf+0x438>
10006036:	9209      	str	r2, [sp, #36]	@ 0x24
10006038:	2600      	movs	r6, #0
1000603a:	3201      	adds	r2, #1
1000603c:	e759      	b.n	10005ef2 <_vsnprintf+0x96>
1000603e:	4644      	mov	r4, r8
10006040:	45c1      	cmp	r9, r8
10006042:	d801      	bhi.n	10006048 <_vsnprintf+0x1ec>
10006044:	f109 38ff 	add.w	r8, r9, #4294967295	@ 0xffffffff
10006048:	464b      	mov	r3, r9
1000604a:	4642      	mov	r2, r8
1000604c:	4651      	mov	r1, sl
1000604e:	2000      	movs	r0, #0
10006050:	47d8      	blx	fp
10006052:	4620      	mov	r0, r4
10006054:	b01b      	add	sp, #108	@ 0x6c
10006056:	e8bd 8ff0 	ldmia.w	sp!, {r4, r5, r6, r7, r8, r9, sl, fp, pc}
1000605a:	f1a0 0269 	sub.w	r2, r0, #105	@ 0x69
1000605e:	b2d2      	uxtb	r2, r2
10006060:	2a0f      	cmp	r2, #15
10006062:	d83f      	bhi.n	100060e4 <_vsnprintf+0x288>
10006064:	2101      	movs	r1, #1
10006066:	f249 0741 	movw	r7, #36929	@ 0x9041
1000606a:	4091      	lsls	r1, r2
1000606c:	4039      	ands	r1, r7
1000606e:	f040 80f3 	bne.w	10006258 <_vsnprintf+0x3fc>
10006072:	2a0a      	cmp	r2, #10
10006074:	d03d      	beq.n	100060f2 <_vsnprintf+0x296>
10006076:	2a07      	cmp	r2, #7
10006078:	d134      	bne.n	100060e4 <_vsnprintf+0x288>
1000607a:	9d0a      	ldr	r5, [sp, #40]	@ 0x28
1000607c:	f855 2b04 	ldr.w	r2, [r5], #4
10006080:	2a00      	cmp	r2, #0
10006082:	f000 8113 	beq.w	100062ac <_vsnprintf+0x450>
10006086:	f043 0021 	orr.w	r0, r3, #33	@ 0x21
1000608a:	ab12      	add	r3, sp, #72	@ 0x48
1000608c:	461f      	mov	r7, r3
1000608e:	930b      	str	r3, [sp, #44]	@ 0x2c
10006090:	e003      	b.n	1000609a <_vsnprintf+0x23e>
10006092:	2920      	cmp	r1, #32
10006094:	f000 8114 	beq.w	100062c0 <_vsnprintf+0x464>
10006098:	461a      	mov	r2, r3
1000609a:	f002 040f 	and.w	r4, r2, #15
1000609e:	4623      	mov	r3, r4
100060a0:	2c09      	cmp	r4, #9
100060a2:	bf94      	ite	ls
100060a4:	3330      	addls	r3, #48	@ 0x30
100060a6:	3337      	addhi	r3, #55	@ 0x37
100060a8:	2a0f      	cmp	r2, #15
100060aa:	f807 3b01 	strb.w	r3, [r7], #1
100060ae:	f101 0101 	add.w	r1, r1, #1
100060b2:	ea4f 1312 	mov.w	r3, r2, lsr #4
100060b6:	d8ec      	bhi.n	10006092 <_vsnprintf+0x236>
100060b8:	e102      	b.n	100062c0 <_vsnprintf+0x464>
100060ba:	bf00      	nop
100060bc:	10005e5d 	.word	0x10005e5d
100060c0:	20001168 	.word	0x20001168
100060c4:	100051a1 	.word	0x100051a1
100060c8:	990a      	ldr	r1, [sp, #40]	@ 0x28
100060ca:	9809      	ldr	r0, [sp, #36]	@ 0x24
100060cc:	f851 5b04 	ldr.w	r5, [r1], #4
100060d0:	7840      	ldrb	r0, [r0, #1]
100060d2:	2d00      	cmp	r5, #0
100060d4:	e9cd 2109 	strd	r2, r1, [sp, #36]	@ 0x24
100060d8:	bfbc      	itt	lt
100060da:	f043 0302 	orrlt.w	r3, r3, #2
100060de:	426d      	neglt	r5, r5
100060e0:	3201      	adds	r2, #1
100060e2:	e702      	b.n	10005eea <_vsnprintf+0x8e>
100060e4:	4642      	mov	r2, r8
100060e6:	464b      	mov	r3, r9
100060e8:	4651      	mov	r1, sl
100060ea:	f108 0801 	add.w	r8, r8, #1
100060ee:	47d8      	blx	fp
100060f0:	e6d2      	b.n	10005e98 <_vsnprintf+0x3c>
100060f2:	990a      	ldr	r1, [sp, #40]	@ 0x28
100060f4:	2e00      	cmp	r6, #0
100060f6:	f851 7b04 	ldr.w	r7, [r1], #4
100060fa:	bf18      	it	ne
100060fc:	4632      	movne	r2, r6
100060fe:	7838      	ldrb	r0, [r7, #0]
10006100:	bf08      	it	eq
10006102:	f04f 32ff 	moveq.w	r2, #4294967295	@ 0xffffffff
10006106:	2800      	cmp	r0, #0
10006108:	f000 837b 	beq.w	10006802 <_vsnprintf+0x9a6>
1000610c:	18bc      	adds	r4, r7, r2
1000610e:	46a4      	mov	ip, r4
10006110:	463a      	mov	r2, r7
10006112:	e004      	b.n	1000611e <_vsnprintf+0x2c2>
10006114:	f812 4f01 	ldrb.w	r4, [r2, #1]!
10006118:	2c00      	cmp	r4, #0
1000611a:	f000 813f 	beq.w	1000639c <_vsnprintf+0x540>
1000611e:	4594      	cmp	ip, r2
10006120:	d1f8      	bne.n	10006114 <_vsnprintf+0x2b8>
10006122:	4664      	mov	r4, ip
10006124:	1be4      	subs	r4, r4, r7
10006126:	055a      	lsls	r2, r3, #21
10006128:	f140 8122 	bpl.w	10006370 <_vsnprintf+0x514>
1000612c:	42b4      	cmp	r4, r6
1000612e:	bf28      	it	cs
10006130:	4634      	movcs	r4, r6
10006132:	f013 0302 	ands.w	r3, r3, #2
10006136:	f000 8288 	beq.w	1000664a <_vsnprintf+0x7ee>
1000613a:	2302      	movs	r3, #2
1000613c:	e9cd 510a 	strd	r5, r1, [sp, #40]	@ 0x28
10006140:	4642      	mov	r2, r8
10006142:	461d      	mov	r5, r3
10006144:	4446      	add	r6, r8
10006146:	e008      	b.n	1000615a <_vsnprintf+0x2fe>
10006148:	464b      	mov	r3, r9
1000614a:	4651      	mov	r1, sl
1000614c:	47d8      	blx	fp
1000614e:	f817 0f01 	ldrb.w	r0, [r7, #1]!
10006152:	f108 0801 	add.w	r8, r8, #1
10006156:	b110      	cbz	r0, 1000615e <_vsnprintf+0x302>
10006158:	4642      	mov	r2, r8
1000615a:	4546      	cmp	r6, r8
1000615c:	d1f4      	bne.n	10006148 <_vsnprintf+0x2ec>
1000615e:	462b      	mov	r3, r5
10006160:	990b      	ldr	r1, [sp, #44]	@ 0x2c
10006162:	9d0a      	ldr	r5, [sp, #40]	@ 0x28
10006164:	2b00      	cmp	r3, #0
10006166:	f040 8141 	bne.w	100063ec <_vsnprintf+0x590>
1000616a:	910a      	str	r1, [sp, #40]	@ 0x28
1000616c:	e694      	b.n	10005e98 <_vsnprintf+0x3c>
1000616e:	9909      	ldr	r1, [sp, #36]	@ 0x24
10006170:	7848      	ldrb	r0, [r1, #1]
10006172:	286c      	cmp	r0, #108	@ 0x6c
10006174:	f47f aeec 	bne.w	10005f50 <_vsnprintf+0xf4>
10006178:	460a      	mov	r2, r1
1000617a:	7888      	ldrb	r0, [r1, #2]
1000617c:	f443 7340 	orr.w	r3, r3, #768	@ 0x300
10006180:	3203      	adds	r2, #3
10006182:	e6e8      	b.n	10005f56 <_vsnprintf+0xfa>
10006184:	9909      	ldr	r1, [sp, #36]	@ 0x24
10006186:	f443 7300 	orr.w	r3, r3, #512	@ 0x200
1000618a:	7848      	ldrb	r0, [r1, #1]
1000618c:	3201      	adds	r2, #1
1000618e:	e6e2      	b.n	10005f56 <_vsnprintf+0xfa>
10006190:	9909      	ldr	r1, [sp, #36]	@ 0x24
10006192:	7848      	ldrb	r0, [r1, #1]
10006194:	2868      	cmp	r0, #104	@ 0x68
10006196:	f000 8103 	beq.w	100063a0 <_vsnprintf+0x544>
1000619a:	f043 0380 	orr.w	r3, r3, #128	@ 0x80
1000619e:	3201      	adds	r2, #1
100061a0:	e6d9      	b.n	10005f56 <_vsnprintf+0xfa>
100061a2:	2867      	cmp	r0, #103	@ 0x67
100061a4:	f000 80d9 	beq.w	1000635a <_vsnprintf+0x4fe>
100061a8:	2847      	cmp	r0, #71	@ 0x47
100061aa:	f000 80dc 	beq.w	10006366 <_vsnprintf+0x50a>
100061ae:	2845      	cmp	r0, #69	@ 0x45
100061b0:	f000 80db 	beq.w	1000636a <_vsnprintf+0x50e>
100061b4:	e9cd 5303 	strd	r5, r3, [sp, #12]
100061b8:	9b0a      	ldr	r3, [sp, #40]	@ 0x28
100061ba:	9602      	str	r6, [sp, #8]
100061bc:	3307      	adds	r3, #7
100061be:	f023 0307 	bic.w	r3, r3, #7
100061c2:	461c      	mov	r4, r3
100061c4:	4642      	mov	r2, r8
100061c6:	e8f4 6702 	ldrd	r6, r7, [r4], #8
100061ca:	464b      	mov	r3, r9
100061cc:	4651      	mov	r1, sl
100061ce:	4658      	mov	r0, fp
100061d0:	e9cd 6700 	strd	r6, r7, [sp]
100061d4:	940a      	str	r4, [sp, #40]	@ 0x28
100061d6:	f7ff fb87 	bl	100058e8 <_etoa>
100061da:	4680      	mov	r8, r0
100061dc:	e65c      	b.n	10005e98 <_vsnprintf+0x3c>
100061de:	2846      	cmp	r0, #70	@ 0x46
100061e0:	bf08      	it	eq
100061e2:	f043 0320 	orreq.w	r3, r3, #32
100061e6:	e9cd 5303 	strd	r5, r3, [sp, #12]
100061ea:	9b0a      	ldr	r3, [sp, #40]	@ 0x28
100061ec:	9602      	str	r6, [sp, #8]
100061ee:	3307      	adds	r3, #7
100061f0:	f023 0307 	bic.w	r3, r3, #7
100061f4:	461c      	mov	r4, r3
100061f6:	4642      	mov	r2, r8
100061f8:	e8f4 6702 	ldrd	r6, r7, [r4], #8
100061fc:	464b      	mov	r3, r9
100061fe:	4651      	mov	r1, sl
10006200:	4658      	mov	r0, fp
10006202:	e9cd 6700 	strd	r6, r7, [sp]
10006206:	940a      	str	r4, [sp, #40]	@ 0x28
10006208:	f7ff f90e 	bl	10005428 <_ftoa>
1000620c:	4680      	mov	r8, r0
1000620e:	e643      	b.n	10005e98 <_vsnprintf+0x3c>
10006210:	4642      	mov	r2, r8
10006212:	464b      	mov	r3, r9
10006214:	4651      	mov	r1, sl
10006216:	2025      	movs	r0, #37	@ 0x25
10006218:	f108 0801 	add.w	r8, r8, #1
1000621c:	47d8      	blx	fp
1000621e:	e63b      	b.n	10005e98 <_vsnprintf+0x3c>
10006220:	9a0a      	ldr	r2, [sp, #40]	@ 0x28
10006222:	0799      	lsls	r1, r3, #30
10006224:	f102 0404 	add.w	r4, r2, #4
10006228:	f108 0601 	add.w	r6, r8, #1
1000622c:	f140 80c6 	bpl.w	100063bc <_vsnprintf+0x560>
10006230:	7810      	ldrb	r0, [r2, #0]
10006232:	464b      	mov	r3, r9
10006234:	4642      	mov	r2, r8
10006236:	4651      	mov	r1, sl
10006238:	47d8      	blx	fp
1000623a:	2d01      	cmp	r5, #1
1000623c:	bf88      	it	hi
1000623e:	44a8      	addhi	r8, r5
10006240:	f240 81bd 	bls.w	100065be <_vsnprintf+0x762>
10006244:	4632      	mov	r2, r6
10006246:	464b      	mov	r3, r9
10006248:	4651      	mov	r1, sl
1000624a:	2020      	movs	r0, #32
1000624c:	3601      	adds	r6, #1
1000624e:	47d8      	blx	fp
10006250:	4546      	cmp	r6, r8
10006252:	d1f7      	bne.n	10006244 <_vsnprintf+0x3e8>
10006254:	940a      	str	r4, [sp, #40]	@ 0x28
10006256:	e61f      	b.n	10005e98 <_vsnprintf+0x3c>
10006258:	286f      	cmp	r0, #111	@ 0x6f
1000625a:	f000 8081 	beq.w	10006360 <_vsnprintf+0x504>
1000625e:	f240 8248 	bls.w	100066f2 <_vsnprintf+0x896>
10006262:	2878      	cmp	r0, #120	@ 0x78
10006264:	f000 8190 	beq.w	10006588 <_vsnprintf+0x72c>
10006268:	270a      	movs	r7, #10
1000626a:	f023 0310 	bic.w	r3, r3, #16
1000626e:	46bc      	mov	ip, r7
10006270:	e041      	b.n	100062f6 <_vsnprintf+0x49a>
10006272:	2600      	movs	r6, #0
10006274:	eb06 0686 	add.w	r6, r6, r6, lsl #2
10006278:	eb00 0046 	add.w	r0, r0, r6, lsl #1
1000627c:	f1a0 0630 	sub.w	r6, r0, #48	@ 0x30
10006280:	f811 0f01 	ldrb.w	r0, [r1, #1]!
10006284:	f1a0 0230 	sub.w	r2, r0, #48	@ 0x30
10006288:	2a09      	cmp	r2, #9
1000628a:	d9f3      	bls.n	10006274 <_vsnprintf+0x418>
1000628c:	460a      	mov	r2, r1
1000628e:	9109      	str	r1, [sp, #36]	@ 0x24
10006290:	3201      	adds	r2, #1
10006292:	e62e      	b.n	10005ef2 <_vsnprintf+0x96>
10006294:	e9dd 2109 	ldrd	r2, r1, [sp, #36]	@ 0x24
10006298:	f851 6b04 	ldr.w	r6, [r1], #4
1000629c:	7890      	ldrb	r0, [r2, #2]
1000629e:	3202      	adds	r2, #2
100062a0:	9209      	str	r2, [sp, #36]	@ 0x24
100062a2:	910a      	str	r1, [sp, #40]	@ 0x28
100062a4:	3201      	adds	r2, #1
100062a6:	ea26 76e6 	bic.w	r6, r6, r6, asr #31
100062aa:	e622      	b.n	10005ef2 <_vsnprintf+0x96>
100062ac:	f023 0010 	bic.w	r0, r3, #16
100062b0:	f413 6280 	ands.w	r2, r3, #1024	@ 0x400
100062b4:	f040 0021 	orr.w	r0, r0, #33	@ 0x21
100062b8:	f43f aee7 	beq.w	1000608a <_vsnprintf+0x22e>
100062bc:	ab12      	add	r3, sp, #72	@ 0x48
100062be:	930b      	str	r3, [sp, #44]	@ 0x2c
100062c0:	9b0b      	ldr	r3, [sp, #44]	@ 0x2c
100062c2:	9006      	str	r0, [sp, #24]
100062c4:	9300      	str	r3, [sp, #0]
100062c6:	2308      	movs	r3, #8
100062c8:	2010      	movs	r0, #16
100062ca:	9305      	str	r3, [sp, #20]
100062cc:	2300      	movs	r3, #0
100062ce:	4642      	mov	r2, r8
100062d0:	e9cd 3002 	strd	r3, r0, [sp, #8]
100062d4:	9101      	str	r1, [sp, #4]
100062d6:	464b      	mov	r3, r9
100062d8:	4651      	mov	r1, sl
100062da:	4658      	mov	r0, fp
100062dc:	9604      	str	r6, [sp, #16]
100062de:	f7fe ffaf 	bl	10005240 <_ntoa_format>
100062e2:	950a      	str	r5, [sp, #40]	@ 0x28
100062e4:	4680      	mov	r8, r0
100062e6:	e5d7      	b.n	10005e98 <_vsnprintf+0x3c>
100062e8:	2858      	cmp	r0, #88	@ 0x58
100062ea:	d062      	beq.n	100063b2 <_vsnprintf+0x556>
100062ec:	2862      	cmp	r0, #98	@ 0x62
100062ee:	f040 808f 	bne.w	10006410 <_vsnprintf+0x5b4>
100062f2:	2702      	movs	r7, #2
100062f4:	46bc      	mov	ip, r7
100062f6:	f413 6080 	ands.w	r0, r3, #1024	@ 0x400
100062fa:	f000 80dd 	beq.w	100064b8 <_vsnprintf+0x65c>
100062fe:	f023 030d 	bic.w	r3, r3, #13
10006302:	f413 7200 	ands.w	r2, r3, #512	@ 0x200
10006306:	f040 8181 	bne.w	1000660c <_vsnprintf+0x7b0>
1000630a:	990a      	ldr	r1, [sp, #40]	@ 0x28
1000630c:	1d0f      	adds	r7, r1, #4
1000630e:	f413 7180 	ands.w	r1, r3, #256	@ 0x100
10006312:	f040 8237 	bne.w	10006784 <_vsnprintf+0x928>
10006316:	065c      	lsls	r4, r3, #25
10006318:	9a0a      	ldr	r2, [sp, #40]	@ 0x28
1000631a:	f140 813b 	bpl.w	10006594 <_vsnprintf+0x738>
1000631e:	7812      	ldrb	r2, [r2, #0]
10006320:	2a00      	cmp	r2, #0
10006322:	f040 814e 	bne.w	100065c2 <_vsnprintf+0x766>
10006326:	f023 0310 	bic.w	r3, r3, #16
1000632a:	2800      	cmp	r0, #0
1000632c:	f000 8149 	beq.w	100065c2 <_vsnprintf+0x766>
10006330:	4611      	mov	r1, r2
10006332:	aa12      	add	r2, sp, #72	@ 0x48
10006334:	920b      	str	r2, [sp, #44]	@ 0x2c
10006336:	e9cd 5305 	strd	r5, r3, [sp, #20]
1000633a:	e9cd c603 	strd	ip, r6, [sp, #12]
1000633e:	9101      	str	r1, [sp, #4]
10006340:	9b0b      	ldr	r3, [sp, #44]	@ 0x2c
10006342:	4642      	mov	r2, r8
10006344:	9300      	str	r3, [sp, #0]
10006346:	2300      	movs	r3, #0
10006348:	4651      	mov	r1, sl
1000634a:	9302      	str	r3, [sp, #8]
1000634c:	4658      	mov	r0, fp
1000634e:	464b      	mov	r3, r9
10006350:	f7fe ff76 	bl	10005240 <_ntoa_format>
10006354:	970a      	str	r7, [sp, #40]	@ 0x28
10006356:	4680      	mov	r8, r0
10006358:	e59e      	b.n	10005e98 <_vsnprintf+0x3c>
1000635a:	f443 6300 	orr.w	r3, r3, #2048	@ 0x800
1000635e:	e729      	b.n	100061b4 <_vsnprintf+0x358>
10006360:	2708      	movs	r7, #8
10006362:	46bc      	mov	ip, r7
10006364:	e7c7      	b.n	100062f6 <_vsnprintf+0x49a>
10006366:	f443 6300 	orr.w	r3, r3, #2048	@ 0x800
1000636a:	f043 0320 	orr.w	r3, r3, #32
1000636e:	e721      	b.n	100061b4 <_vsnprintf+0x358>
10006370:	f013 0302 	ands.w	r3, r3, #2
10006374:	f000 818e 	beq.w	10006694 <_vsnprintf+0x838>
10006378:	2302      	movs	r3, #2
1000637a:	950a      	str	r5, [sp, #40]	@ 0x28
1000637c:	461e      	mov	r6, r3
1000637e:	460d      	mov	r5, r1
10006380:	4642      	mov	r2, r8
10006382:	464b      	mov	r3, r9
10006384:	4651      	mov	r1, sl
10006386:	47d8      	blx	fp
10006388:	f817 0f01 	ldrb.w	r0, [r7, #1]!
1000638c:	f108 0801 	add.w	r8, r8, #1
10006390:	2800      	cmp	r0, #0
10006392:	d1f5      	bne.n	10006380 <_vsnprintf+0x524>
10006394:	4629      	mov	r1, r5
10006396:	4633      	mov	r3, r6
10006398:	9d0a      	ldr	r5, [sp, #40]	@ 0x28
1000639a:	e6e3      	b.n	10006164 <_vsnprintf+0x308>
1000639c:	1bd4      	subs	r4, r2, r7
1000639e:	e6c2      	b.n	10006126 <_vsnprintf+0x2ca>
100063a0:	460a      	mov	r2, r1
100063a2:	7888      	ldrb	r0, [r1, #2]
100063a4:	f043 03c0 	orr.w	r3, r3, #192	@ 0xc0
100063a8:	3203      	adds	r2, #3
100063aa:	e5d4      	b.n	10005f56 <_vsnprintf+0xfa>
100063ac:	4604      	mov	r4, r0
100063ae:	4680      	mov	r8, r0
100063b0:	e646      	b.n	10006040 <_vsnprintf+0x1e4>
100063b2:	2710      	movs	r7, #16
100063b4:	f043 0320 	orr.w	r3, r3, #32
100063b8:	46bc      	mov	ip, r7
100063ba:	e79c      	b.n	100062f6 <_vsnprintf+0x49a>
100063bc:	2d01      	cmp	r5, #1
100063be:	f240 80f8 	bls.w	100065b2 <_vsnprintf+0x756>
100063c2:	4646      	mov	r6, r8
100063c4:	f108 37ff 	add.w	r7, r8, #4294967295	@ 0xffffffff
100063c8:	442f      	add	r7, r5
100063ca:	4632      	mov	r2, r6
100063cc:	464b      	mov	r3, r9
100063ce:	4651      	mov	r1, sl
100063d0:	2020      	movs	r0, #32
100063d2:	3601      	adds	r6, #1
100063d4:	47d8      	blx	fp
100063d6:	42be      	cmp	r6, r7
100063d8:	d1f7      	bne.n	100063ca <_vsnprintf+0x56e>
100063da:	9b0a      	ldr	r3, [sp, #40]	@ 0x28
100063dc:	4632      	mov	r2, r6
100063de:	7818      	ldrb	r0, [r3, #0]
100063e0:	4651      	mov	r1, sl
100063e2:	464b      	mov	r3, r9
100063e4:	47d8      	blx	fp
100063e6:	44a8      	add	r8, r5
100063e8:	940a      	str	r4, [sp, #40]	@ 0x28
100063ea:	e555      	b.n	10005e98 <_vsnprintf+0x3c>
100063ec:	4646      	mov	r6, r8
100063ee:	42a5      	cmp	r5, r4
100063f0:	f67f aebb 	bls.w	1000616a <_vsnprintf+0x30e>
100063f4:	44a8      	add	r8, r5
100063f6:	eba8 0804 	sub.w	r8, r8, r4
100063fa:	460c      	mov	r4, r1
100063fc:	4632      	mov	r2, r6
100063fe:	464b      	mov	r3, r9
10006400:	4651      	mov	r1, sl
10006402:	2020      	movs	r0, #32
10006404:	3601      	adds	r6, #1
10006406:	47d8      	blx	fp
10006408:	4546      	cmp	r6, r8
1000640a:	d1f7      	bne.n	100063fc <_vsnprintf+0x5a0>
1000640c:	4621      	mov	r1, r4
1000640e:	e6ac      	b.n	1000616a <_vsnprintf+0x30e>
10006410:	f413 6280 	ands.w	r2, r3, #1024	@ 0x400
10006414:	f000 80bb 	beq.w	1000658e <_vsnprintf+0x732>
10006418:	f44f 6280 	mov.w	r2, #1024	@ 0x400
1000641c:	f023 0c11 	bic.w	ip, r3, #17
10006420:	f41c 7700 	ands.w	r7, ip, #512	@ 0x200
10006424:	9b0a      	ldr	r3, [sp, #40]	@ 0x28
10006426:	d14a      	bne.n	100064be <_vsnprintf+0x662>
10006428:	f41c 7080 	ands.w	r0, ip, #256	@ 0x100
1000642c:	f103 0404 	add.w	r4, r3, #4
10006430:	f040 8134 	bne.w	1000669c <_vsnprintf+0x840>
10006434:	f01c 0f40 	tst.w	ip, #64	@ 0x40
10006438:	f040 80a3 	bne.w	10006582 <_vsnprintf+0x726>
1000643c:	f01c 0f80 	tst.w	ip, #128	@ 0x80
10006440:	f000 81d3 	beq.w	100067ea <_vsnprintf+0x98e>
10006444:	f9b3 1000 	ldrsh.w	r1, [r3]
10006448:	ea81 77e1 	eor.w	r7, r1, r1, asr #31
1000644c:	eba7 77e1 	sub.w	r7, r7, r1, asr #31
10006450:	b2bf      	uxth	r7, r7
10006452:	0fcb      	lsrs	r3, r1, #31
10006454:	2900      	cmp	r1, #0
10006456:	f000 8156 	beq.w	10006706 <_vsnprintf+0x8aa>
1000645a:	463a      	mov	r2, r7
1000645c:	a912      	add	r1, sp, #72	@ 0x48
1000645e:	460f      	mov	r7, r1
10006460:	f8df e3d8 	ldr.w	lr, [pc, #984]	@ 1000683c <_vsnprintf+0x9e0>
10006464:	910b      	str	r1, [sp, #44]	@ 0x2c
10006466:	930a      	str	r3, [sp, #40]	@ 0x28
10006468:	950c      	str	r5, [sp, #48]	@ 0x30
1000646a:	e001      	b.n	10006470 <_vsnprintf+0x614>
1000646c:	2820      	cmp	r0, #32
1000646e:	d00f      	beq.n	10006490 <_vsnprintf+0x634>
10006470:	4615      	mov	r5, r2
10006472:	fbae 1302 	umull	r1, r3, lr, r2
10006476:	08db      	lsrs	r3, r3, #3
10006478:	eb03 0183 	add.w	r1, r3, r3, lsl #2
1000647c:	eba2 0141 	sub.w	r1, r2, r1, lsl #1
10006480:	3130      	adds	r1, #48	@ 0x30
10006482:	2d09      	cmp	r5, #9
10006484:	461a      	mov	r2, r3
10006486:	f100 0001 	add.w	r0, r0, #1
1000648a:	f807 1b01 	strb.w	r1, [r7], #1
1000648e:	d8ed      	bhi.n	1000646c <_vsnprintf+0x610>
10006490:	9b0a      	ldr	r3, [sp, #40]	@ 0x28
10006492:	9d0c      	ldr	r5, [sp, #48]	@ 0x30
10006494:	e9cd 5c05 	strd	r5, ip, [sp, #20]
10006498:	e9cd 0301 	strd	r0, r3, [sp, #4]
1000649c:	9604      	str	r6, [sp, #16]
1000649e:	9b0b      	ldr	r3, [sp, #44]	@ 0x2c
100064a0:	4642      	mov	r2, r8
100064a2:	9300      	str	r3, [sp, #0]
100064a4:	230a      	movs	r3, #10
100064a6:	4651      	mov	r1, sl
100064a8:	9303      	str	r3, [sp, #12]
100064aa:	4658      	mov	r0, fp
100064ac:	464b      	mov	r3, r9
100064ae:	f7fe fec7 	bl	10005240 <_ntoa_format>
100064b2:	940a      	str	r4, [sp, #40]	@ 0x28
100064b4:	4680      	mov	r8, r0
100064b6:	e4ef      	b.n	10005e98 <_vsnprintf+0x3c>
100064b8:	f023 030c 	bic.w	r3, r3, #12
100064bc:	e721      	b.n	10006302 <_vsnprintf+0x4a6>
100064be:	3307      	adds	r3, #7
100064c0:	f023 0307 	bic.w	r3, r3, #7
100064c4:	4619      	mov	r1, r3
100064c6:	4608      	mov	r0, r1
100064c8:	685b      	ldr	r3, [r3, #4]
100064ca:	f850 1b08 	ldr.w	r1, [r0], #8
100064ce:	0fdf      	lsrs	r7, r3, #31
100064d0:	900a      	str	r0, [sp, #40]	@ 0x28
100064d2:	ea51 0003 	orrs.w	r0, r1, r3
100064d6:	d162      	bne.n	1000659e <_vsnprintf+0x742>
100064d8:	2a00      	cmp	r2, #0
100064da:	f040 819f 	bne.w	1000681c <_vsnprintf+0x9c0>
100064de:	4613      	mov	r3, r2
100064e0:	4611      	mov	r1, r2
100064e2:	aa12      	add	r2, sp, #72	@ 0x48
100064e4:	e9cd 750c 	strd	r7, r5, [sp, #48]	@ 0x30
100064e8:	2000      	movs	r0, #0
100064ea:	4615      	mov	r5, r2
100064ec:	e9cd 680e 	strd	r6, r8, [sp, #56]	@ 0x38
100064f0:	f8df e348 	ldr.w	lr, [pc, #840]	@ 1000683c <_vsnprintf+0x9e0>
100064f4:	920b      	str	r2, [sp, #44]	@ 0x2c
100064f6:	e001      	b.n	100064fc <_vsnprintf+0x6a0>
100064f8:	2820      	cmp	r0, #32
100064fa:	d02d      	beq.n	10006558 <_vsnprintf+0x6fc>
100064fc:	185a      	adds	r2, r3, r1
100064fe:	f142 0200 	adc.w	r2, r2, #0
10006502:	fbae 7802 	umull	r7, r8, lr, r2
10006506:	f028 0703 	bic.w	r7, r8, #3
1000650a:	eb07 0798 	add.w	r7, r7, r8, lsr #2
1000650e:	1bd2      	subs	r2, r2, r7
10006510:	461e      	mov	r6, r3
10006512:	1a9b      	subs	r3, r3, r2
10006514:	f161 0700 	sbc.w	r7, r1, #0
10006518:	460c      	mov	r4, r1
1000651a:	f04f 31cc 	mov.w	r1, #3435973836	@ 0xcccccccc
1000651e:	fb01 f103 	mul.w	r1, r1, r3
10006522:	fb0e 1107 	mla	r1, lr, r7, r1
10006526:	fba3 730e 	umull	r7, r3, r3, lr
1000652a:	4419      	add	r1, r3
1000652c:	2305      	movs	r3, #5
1000652e:	f007 0801 	and.w	r8, r7, #1
10006532:	fba8 3803 	umull	r3, r8, r8, r3
10006536:	189b      	adds	r3, r3, r2
10006538:	2e0a      	cmp	r6, #10
1000653a:	f103 0330 	add.w	r3, r3, #48	@ 0x30
1000653e:	ea4f 0757 	mov.w	r7, r7, lsr #1
10006542:	f174 0400 	sbcs.w	r4, r4, #0
10006546:	f805 3b01 	strb.w	r3, [r5], #1
1000654a:	f100 0001 	add.w	r0, r0, #1
1000654e:	ea47 73c1 	orr.w	r3, r7, r1, lsl #31
10006552:	ea4f 0151 	mov.w	r1, r1, lsr #1
10006556:	d2cf      	bcs.n	100064f8 <_vsnprintf+0x69c>
10006558:	e9dd 750c 	ldrd	r7, r5, [sp, #48]	@ 0x30
1000655c:	e9dd 680e 	ldrd	r6, r8, [sp, #56]	@ 0x38
10006560:	9b0b      	ldr	r3, [sp, #44]	@ 0x2c
10006562:	4642      	mov	r2, r8
10006564:	9300      	str	r3, [sp, #0]
10006566:	230a      	movs	r3, #10
10006568:	e9cd 5c05 	strd	r5, ip, [sp, #20]
1000656c:	e9cd 0701 	strd	r0, r7, [sp, #4]
10006570:	9604      	str	r6, [sp, #16]
10006572:	9303      	str	r3, [sp, #12]
10006574:	464b      	mov	r3, r9
10006576:	4651      	mov	r1, sl
10006578:	4658      	mov	r0, fp
1000657a:	f7fe fe61 	bl	10005240 <_ntoa_format>
1000657e:	4680      	mov	r8, r0
10006580:	e48a      	b.n	10005e98 <_vsnprintf+0x3c>
10006582:	7819      	ldrb	r1, [r3, #0]
10006584:	460f      	mov	r7, r1
10006586:	e764      	b.n	10006452 <_vsnprintf+0x5f6>
10006588:	2710      	movs	r7, #16
1000658a:	46bc      	mov	ip, r7
1000658c:	e6b3      	b.n	100062f6 <_vsnprintf+0x49a>
1000658e:	f023 0c10 	bic.w	ip, r3, #16
10006592:	e745      	b.n	10006420 <_vsnprintf+0x5c4>
10006594:	061c      	lsls	r4, r3, #24
10006596:	bf4c      	ite	mi
10006598:	8812      	ldrhmi	r2, [r2, #0]
1000659a:	6812      	ldrpl	r2, [r2, #0]
1000659c:	e6c0      	b.n	10006320 <_vsnprintf+0x4c4>
1000659e:	460a      	mov	r2, r1
100065a0:	1e19      	subs	r1, r3, #0
100065a2:	db01      	blt.n	100065a8 <_vsnprintf+0x74c>
100065a4:	4613      	mov	r3, r2
100065a6:	e79c      	b.n	100064e2 <_vsnprintf+0x686>
100065a8:	4252      	negs	r2, r2
100065aa:	4613      	mov	r3, r2
100065ac:	eb61 0141 	sbc.w	r1, r1, r1, lsl #1
100065b0:	e797      	b.n	100064e2 <_vsnprintf+0x686>
100065b2:	4613      	mov	r3, r2
100065b4:	4651      	mov	r1, sl
100065b6:	7818      	ldrb	r0, [r3, #0]
100065b8:	4642      	mov	r2, r8
100065ba:	464b      	mov	r3, r9
100065bc:	47d8      	blx	fp
100065be:	46b0      	mov	r8, r6
100065c0:	e648      	b.n	10006254 <_vsnprintf+0x3f8>
100065c2:	f013 0f20 	tst.w	r3, #32
100065c6:	bf14      	ite	ne
100065c8:	2041      	movne	r0, #65	@ 0x41
100065ca:	2061      	moveq	r0, #97	@ 0x61
100065cc:	ac12      	add	r4, sp, #72	@ 0x48
100065ce:	46a6      	mov	lr, r4
100065d0:	940b      	str	r4, [sp, #44]	@ 0x2c
100065d2:	930a      	str	r3, [sp, #40]	@ 0x28
100065d4:	f1a0 040a 	sub.w	r4, r0, #10
100065d8:	950c      	str	r5, [sp, #48]	@ 0x30
100065da:	e002      	b.n	100065e2 <_vsnprintf+0x786>
100065dc:	2920      	cmp	r1, #32
100065de:	d012      	beq.n	10006606 <_vsnprintf+0x7aa>
100065e0:	462a      	mov	r2, r5
100065e2:	fbb2 f5fc 	udiv	r5, r2, ip
100065e6:	fb0c 2015 	mls	r0, ip, r5, r2
100065ea:	b2c3      	uxtb	r3, r0
100065ec:	2809      	cmp	r0, #9
100065ee:	f103 0030 	add.w	r0, r3, #48	@ 0x30
100065f2:	bf8a      	itet	hi
100065f4:	191b      	addhi	r3, r3, r4
100065f6:	b2c3      	uxtbls	r3, r0
100065f8:	b2db      	uxtbhi	r3, r3
100065fa:	4562      	cmp	r2, ip
100065fc:	f80e 3b01 	strb.w	r3, [lr], #1
10006600:	f101 0101 	add.w	r1, r1, #1
10006604:	d2ea      	bcs.n	100065dc <_vsnprintf+0x780>
10006606:	9b0a      	ldr	r3, [sp, #40]	@ 0x28
10006608:	9d0c      	ldr	r5, [sp, #48]	@ 0x30
1000660a:	e694      	b.n	10006336 <_vsnprintf+0x4da>
1000660c:	9a0a      	ldr	r2, [sp, #40]	@ 0x28
1000660e:	3207      	adds	r2, #7
10006610:	f022 0207 	bic.w	r2, r2, #7
10006614:	6851      	ldr	r1, [r2, #4]
10006616:	f852 4b08 	ldr.w	r4, [r2], #8
1000661a:	468e      	mov	lr, r1
1000661c:	920a      	str	r2, [sp, #40]	@ 0x28
1000661e:	ea54 0201 	orrs.w	r2, r4, r1
10006622:	d176      	bne.n	10006712 <_vsnprintf+0x8b6>
10006624:	f023 0310 	bic.w	r3, r3, #16
10006628:	2800      	cmp	r0, #0
1000662a:	d072      	beq.n	10006712 <_vsnprintf+0x8b6>
1000662c:	2200      	movs	r2, #0
1000662e:	4611      	mov	r1, r2
10006630:	aa12      	add	r2, sp, #72	@ 0x48
10006632:	920b      	str	r2, [sp, #44]	@ 0x2c
10006634:	e9cd 5305 	strd	r5, r3, [sp, #20]
10006638:	9b0b      	ldr	r3, [sp, #44]	@ 0x2c
1000663a:	4642      	mov	r2, r8
1000663c:	9300      	str	r3, [sp, #0]
1000663e:	2300      	movs	r3, #0
10006640:	e9cd c603 	strd	ip, r6, [sp, #12]
10006644:	9101      	str	r1, [sp, #4]
10006646:	9302      	str	r3, [sp, #8]
10006648:	e794      	b.n	10006574 <_vsnprintf+0x718>
1000664a:	42a5      	cmp	r5, r4
1000664c:	bf98      	it	ls
1000664e:	3401      	addls	r4, #1
10006650:	f67f ad74 	bls.w	1000613c <_vsnprintf+0x2e0>
10006654:	f44f 6380 	mov.w	r3, #1024	@ 0x400
10006658:	e9cd 750a 	strd	r7, r5, [sp, #40]	@ 0x28
1000665c:	eb05 0208 	add.w	r2, r5, r8
10006660:	461f      	mov	r7, r3
10006662:	460d      	mov	r5, r1
10006664:	1b14      	subs	r4, r2, r4
10006666:	4642      	mov	r2, r8
10006668:	464b      	mov	r3, r9
1000666a:	4651      	mov	r1, sl
1000666c:	2020      	movs	r0, #32
1000666e:	f108 0801 	add.w	r8, r8, #1
10006672:	47d8      	blx	fp
10006674:	45a0      	cmp	r8, r4
10006676:	d1f6      	bne.n	10006666 <_vsnprintf+0x80a>
10006678:	463b      	mov	r3, r7
1000667a:	9f0a      	ldr	r7, [sp, #40]	@ 0x28
1000667c:	4629      	mov	r1, r5
1000667e:	7838      	ldrb	r0, [r7, #0]
10006680:	9d0b      	ldr	r5, [sp, #44]	@ 0x2c
10006682:	1c6c      	adds	r4, r5, #1
10006684:	2800      	cmp	r0, #0
10006686:	f43f ad70 	beq.w	1000616a <_vsnprintf+0x30e>
1000668a:	2b00      	cmp	r3, #0
1000668c:	f43f ae75 	beq.w	1000637a <_vsnprintf+0x51e>
10006690:	2300      	movs	r3, #0
10006692:	e553      	b.n	1000613c <_vsnprintf+0x2e0>
10006694:	42a5      	cmp	r5, r4
10006696:	d8df      	bhi.n	10006658 <_vsnprintf+0x7fc>
10006698:	3401      	adds	r4, #1
1000669a:	e66e      	b.n	1000637a <_vsnprintf+0x51e>
1000669c:	6819      	ldr	r1, [r3, #0]
1000669e:	0fcb      	lsrs	r3, r1, #31
100066a0:	2900      	cmp	r1, #0
100066a2:	f000 80a8 	beq.w	100067f6 <_vsnprintf+0x99a>
100066a6:	ea81 72e1 	eor.w	r2, r1, r1, asr #31
100066aa:	eba2 72e1 	sub.w	r2, r2, r1, asr #31
100066ae:	a912      	add	r1, sp, #72	@ 0x48
100066b0:	4608      	mov	r0, r1
100066b2:	f8df e188 	ldr.w	lr, [pc, #392]	@ 1000683c <_vsnprintf+0x9e0>
100066b6:	910b      	str	r1, [sp, #44]	@ 0x2c
100066b8:	930a      	str	r3, [sp, #40]	@ 0x28
100066ba:	950c      	str	r5, [sp, #48]	@ 0x30
100066bc:	e001      	b.n	100066c2 <_vsnprintf+0x866>
100066be:	2f20      	cmp	r7, #32
100066c0:	d00f      	beq.n	100066e2 <_vsnprintf+0x886>
100066c2:	4615      	mov	r5, r2
100066c4:	fbae 1302 	umull	r1, r3, lr, r2
100066c8:	08db      	lsrs	r3, r3, #3
100066ca:	eb03 0183 	add.w	r1, r3, r3, lsl #2
100066ce:	eba2 0141 	sub.w	r1, r2, r1, lsl #1
100066d2:	3130      	adds	r1, #48	@ 0x30
100066d4:	2d09      	cmp	r5, #9
100066d6:	461a      	mov	r2, r3
100066d8:	f107 0701 	add.w	r7, r7, #1
100066dc:	f800 1b01 	strb.w	r1, [r0], #1
100066e0:	d8ed      	bhi.n	100066be <_vsnprintf+0x862>
100066e2:	9b0a      	ldr	r3, [sp, #40]	@ 0x28
100066e4:	9d0c      	ldr	r5, [sp, #48]	@ 0x30
100066e6:	e9cd 5c05 	strd	r5, ip, [sp, #20]
100066ea:	e9cd 7301 	strd	r7, r3, [sp, #4]
100066ee:	9604      	str	r6, [sp, #16]
100066f0:	e6d5      	b.n	1000649e <_vsnprintf+0x642>
100066f2:	2869      	cmp	r0, #105	@ 0x69
100066f4:	f023 0c10 	bic.w	ip, r3, #16
100066f8:	f040 808c 	bne.w	10006814 <_vsnprintf+0x9b8>
100066fc:	f413 6280 	ands.w	r2, r3, #1024	@ 0x400
10006700:	f43f ae8e 	beq.w	10006420 <_vsnprintf+0x5c4>
10006704:	e688      	b.n	10006418 <_vsnprintf+0x5bc>
10006706:	2a00      	cmp	r2, #0
10006708:	f43f aea8 	beq.w	1000645c <_vsnprintf+0x600>
1000670c:	aa12      	add	r2, sp, #72	@ 0x48
1000670e:	920b      	str	r2, [sp, #44]	@ 0x2c
10006710:	e6c0      	b.n	10006494 <_vsnprintf+0x638>
10006712:	f013 0f20 	tst.w	r3, #32
10006716:	bf14      	ite	ne
10006718:	2241      	movne	r2, #65	@ 0x41
1000671a:	2261      	moveq	r2, #97	@ 0x61
1000671c:	2000      	movs	r0, #0
1000671e:	a912      	add	r1, sp, #72	@ 0x48
10006720:	3a0a      	subs	r2, #10
10006722:	e9cd 680e 	strd	r6, r8, [sp, #56]	@ 0x38
10006726:	e9cd 350c 	strd	r3, r5, [sp, #48]	@ 0x30
1000672a:	f8cd b044 	str.w	fp, [sp, #68]	@ 0x44
1000672e:	4606      	mov	r6, r0
10006730:	4688      	mov	r8, r1
10006732:	4675      	mov	r5, lr
10006734:	4693      	mov	fp, r2
10006736:	910b      	str	r1, [sp, #44]	@ 0x2c
10006738:	f8cd c040 	str.w	ip, [sp, #64]	@ 0x40
1000673c:	e003      	b.n	10006746 <_vsnprintf+0x8ea>
1000673e:	2e20      	cmp	r6, #32
10006740:	d017      	beq.n	10006772 <_vsnprintf+0x916>
10006742:	4604      	mov	r4, r0
10006744:	460d      	mov	r5, r1
10006746:	4629      	mov	r1, r5
10006748:	463a      	mov	r2, r7
1000674a:	2300      	movs	r3, #0
1000674c:	4620      	mov	r0, r4
1000674e:	f006 fae7 	bl	1000cd20 <____aeabi_uldivmod_veneer>
10006752:	b2d2      	uxtb	r2, r2
10006754:	2a09      	cmp	r2, #9
10006756:	f102 0330 	add.w	r3, r2, #48	@ 0x30
1000675a:	bf88      	it	hi
1000675c:	eb02 030b 	addhi.w	r3, r2, fp
10006760:	42bc      	cmp	r4, r7
10006762:	b2db      	uxtb	r3, r3
10006764:	f175 0500 	sbcs.w	r5, r5, #0
10006768:	f808 3b01 	strb.w	r3, [r8], #1
1000676c:	f106 0601 	add.w	r6, r6, #1
10006770:	d2e5      	bcs.n	1000673e <_vsnprintf+0x8e2>
10006772:	4631      	mov	r1, r6
10006774:	e9dd 350c 	ldrd	r3, r5, [sp, #48]	@ 0x30
10006778:	e9dd cb10 	ldrd	ip, fp, [sp, #64]	@ 0x40
1000677c:	f8dd 803c 	ldr.w	r8, [sp, #60]	@ 0x3c
10006780:	9e0e      	ldr	r6, [sp, #56]	@ 0x38
10006782:	e757      	b.n	10006634 <_vsnprintf+0x7d8>
10006784:	990a      	ldr	r1, [sp, #40]	@ 0x28
10006786:	6809      	ldr	r1, [r1, #0]
10006788:	b951      	cbnz	r1, 100067a0 <_vsnprintf+0x944>
1000678a:	f023 0310 	bic.w	r3, r3, #16
1000678e:	b138      	cbz	r0, 100067a0 <_vsnprintf+0x944>
10006790:	a912      	add	r1, sp, #72	@ 0x48
10006792:	910b      	str	r1, [sp, #44]	@ 0x2c
10006794:	e9cd 5305 	strd	r5, r3, [sp, #20]
10006798:	e9cd c603 	strd	ip, r6, [sp, #12]
1000679c:	9201      	str	r2, [sp, #4]
1000679e:	e5cf      	b.n	10006340 <_vsnprintf+0x4e4>
100067a0:	f013 0f20 	tst.w	r3, #32
100067a4:	bf14      	ite	ne
100067a6:	2041      	movne	r0, #65	@ 0x41
100067a8:	2061      	moveq	r0, #97	@ 0x61
100067aa:	ac12      	add	r4, sp, #72	@ 0x48
100067ac:	46a6      	mov	lr, r4
100067ae:	940b      	str	r4, [sp, #44]	@ 0x2c
100067b0:	930a      	str	r3, [sp, #40]	@ 0x28
100067b2:	f1a0 040a 	sub.w	r4, r0, #10
100067b6:	950c      	str	r5, [sp, #48]	@ 0x30
100067b8:	e002      	b.n	100067c0 <_vsnprintf+0x964>
100067ba:	2a20      	cmp	r2, #32
100067bc:	d012      	beq.n	100067e4 <_vsnprintf+0x988>
100067be:	4629      	mov	r1, r5
100067c0:	fbb1 f5fc 	udiv	r5, r1, ip
100067c4:	fb0c 1015 	mls	r0, ip, r5, r1
100067c8:	b2c3      	uxtb	r3, r0
100067ca:	2809      	cmp	r0, #9
100067cc:	f103 0030 	add.w	r0, r3, #48	@ 0x30
100067d0:	bf8a      	itet	hi
100067d2:	191b      	addhi	r3, r3, r4
100067d4:	b2c3      	uxtbls	r3, r0
100067d6:	b2db      	uxtbhi	r3, r3
100067d8:	4561      	cmp	r1, ip
100067da:	f80e 3b01 	strb.w	r3, [lr], #1
100067de:	f102 0201 	add.w	r2, r2, #1
100067e2:	d2ea      	bcs.n	100067ba <_vsnprintf+0x95e>
100067e4:	9b0a      	ldr	r3, [sp, #40]	@ 0x28
100067e6:	9d0c      	ldr	r5, [sp, #48]	@ 0x30
100067e8:	e7d4      	b.n	10006794 <_vsnprintf+0x938>
100067ea:	6819      	ldr	r1, [r3, #0]
100067ec:	ea81 77e1 	eor.w	r7, r1, r1, asr #31
100067f0:	eba7 77e1 	sub.w	r7, r7, r1, asr #31
100067f4:	e62d      	b.n	10006452 <_vsnprintf+0x5f6>
100067f6:	2a00      	cmp	r2, #0
100067f8:	f43f af59 	beq.w	100066ae <_vsnprintf+0x852>
100067fc:	aa12      	add	r2, sp, #72	@ 0x48
100067fe:	920b      	str	r2, [sp, #44]	@ 0x2c
10006800:	e771      	b.n	100066e6 <_vsnprintf+0x88a>
10006802:	f413 6480 	ands.w	r4, r3, #1024	@ 0x400
10006806:	d00d      	beq.n	10006824 <_vsnprintf+0x9c8>
10006808:	f013 0402 	ands.w	r4, r3, #2
1000680c:	d012      	beq.n	10006834 <_vsnprintf+0x9d8>
1000680e:	4604      	mov	r4, r0
10006810:	4646      	mov	r6, r8
10006812:	e5ec      	b.n	100063ee <_vsnprintf+0x592>
10006814:	270a      	movs	r7, #10
10006816:	4663      	mov	r3, ip
10006818:	46bc      	mov	ip, r7
1000681a:	e56c      	b.n	100062f6 <_vsnprintf+0x49a>
1000681c:	ab12      	add	r3, sp, #72	@ 0x48
1000681e:	2000      	movs	r0, #0
10006820:	930b      	str	r3, [sp, #44]	@ 0x2c
10006822:	e69d      	b.n	10006560 <_vsnprintf+0x704>
10006824:	f013 0302 	ands.w	r3, r3, #2
10006828:	f47f ade0 	bne.w	100063ec <_vsnprintf+0x590>
1000682c:	2d00      	cmp	r5, #0
1000682e:	f47f af13 	bne.w	10006658 <_vsnprintf+0x7fc>
10006832:	e49a      	b.n	1000616a <_vsnprintf+0x30e>
10006834:	2d00      	cmp	r5, #0
10006836:	f47f af0d 	bne.w	10006654 <_vsnprintf+0x7f8>
1000683a:	e496      	b.n	1000616a <_vsnprintf+0x30e>
1000683c:	cccccccd 	.word	0xcccccccd

10006840 <__wrap_sprintf>:
10006840:	b40e      	push	{r1, r2, r3}
10006842:	b510      	push	{r4, lr}
10006844:	b085      	sub	sp, #20
10006846:	ac07      	add	r4, sp, #28
10006848:	f854 3b04 	ldr.w	r3, [r4], #4
1000684c:	4601      	mov	r1, r0
1000684e:	f04f 32ff 	mov.w	r2, #4294967295	@ 0xffffffff
10006852:	9400      	str	r4, [sp, #0]
10006854:	4804      	ldr	r0, [pc, #16]	@ (10006868 <__wrap_sprintf+0x28>)
10006856:	9403      	str	r4, [sp, #12]
10006858:	f7ff fb00 	bl	10005e5c <_vsnprintf>
1000685c:	b005      	add	sp, #20
1000685e:	e8bd 4010 	ldmia.w	sp!, {r4, lr}
10006862:	b003      	add	sp, #12
10006864:	4770      	bx	lr
10006866:	bf00      	nop
10006868:	10005199 	.word	0x10005199

1000686c <vfctprintf>:
1000686c:	b570      	push	{r4, r5, r6, lr}
1000686e:	4694      	mov	ip, r2
10006870:	461e      	mov	r6, r3
10006872:	4605      	mov	r5, r0
10006874:	460c      	mov	r4, r1
10006876:	b084      	sub	sp, #16
10006878:	f04f 32ff 	mov.w	r2, #4294967295	@ 0xffffffff
1000687c:	4663      	mov	r3, ip
1000687e:	a902      	add	r1, sp, #8
10006880:	9600      	str	r6, [sp, #0]
10006882:	4803      	ldr	r0, [pc, #12]	@ (10006890 <vfctprintf+0x24>)
10006884:	e9cd 5402 	strd	r5, r4, [sp, #8]
10006888:	f7ff fae8 	bl	10005e5c <_vsnprintf>
1000688c:	b004      	add	sp, #16
1000688e:	bd70      	pop	{r4, r5, r6, pc}
10006890:	1000541d 	.word	0x1000541d

10006894 <weak_raw_printf>:
10006894:	b40f      	push	{r0, r1, r2, r3}
10006896:	b510      	push	{r4, lr}
10006898:	4b0e      	ldr	r3, [pc, #56]	@ (100068d4 <weak_raw_printf+0x40>)
1000689a:	b084      	sub	sp, #16
1000689c:	a906      	add	r1, sp, #24
1000689e:	681c      	ldr	r4, [r3, #0]
100068a0:	f851 3b04 	ldr.w	r3, [r1], #4
100068a4:	9103      	str	r1, [sp, #12]
100068a6:	b15c      	cbz	r4, 100068c0 <weak_raw_printf+0x2c>
100068a8:	9100      	str	r1, [sp, #0]
100068aa:	f04f 32ff 	mov.w	r2, #4294967295	@ 0xffffffff
100068ae:	a902      	add	r1, sp, #8
100068b0:	4809      	ldr	r0, [pc, #36]	@ (100068d8 <weak_raw_printf+0x44>)
100068b2:	47a0      	blx	r4
100068b4:	2001      	movs	r0, #1
100068b6:	b004      	add	sp, #16
100068b8:	e8bd 4010 	ldmia.w	sp!, {r4, lr}
100068bc:	b004      	add	sp, #16
100068be:	4770      	bx	lr
100068c0:	4618      	mov	r0, r3
100068c2:	f000 f9b1 	bl	10006c28 <__wrap_puts>
100068c6:	4620      	mov	r0, r4
100068c8:	b004      	add	sp, #16
100068ca:	e8bd 4010 	ldmia.w	sp!, {r4, lr}
100068ce:	b004      	add	sp, #16
100068d0:	4770      	bx	lr
100068d2:	bf00      	nop
100068d4:	20001168 	.word	0x20001168
100068d8:	10005415 	.word	0x10005415

100068dc <weak_raw_vprintf>:
100068dc:	b510      	push	{r4, lr}
100068de:	4b09      	ldr	r3, [pc, #36]	@ (10006904 <weak_raw_vprintf+0x28>)
100068e0:	b084      	sub	sp, #16
100068e2:	681c      	ldr	r4, [r3, #0]
100068e4:	b14c      	cbz	r4, 100068fa <weak_raw_vprintf+0x1e>
100068e6:	4603      	mov	r3, r0
100068e8:	9100      	str	r1, [sp, #0]
100068ea:	f04f 32ff 	mov.w	r2, #4294967295	@ 0xffffffff
100068ee:	a903      	add	r1, sp, #12
100068f0:	4805      	ldr	r0, [pc, #20]	@ (10006908 <weak_raw_vprintf+0x2c>)
100068f2:	47a0      	blx	r4
100068f4:	2001      	movs	r0, #1
100068f6:	b004      	add	sp, #16
100068f8:	bd10      	pop	{r4, pc}
100068fa:	f000 f995 	bl	10006c28 <__wrap_puts>
100068fe:	4620      	mov	r0, r4
10006900:	b004      	add	sp, #16
10006902:	bd10      	pop	{r4, pc}
10006904:	20001168 	.word	0x20001168
10006908:	10005415 	.word	0x10005415

1000690c <_exit>:
1000690c:	be00      	bkpt	0x0000
1000690e:	e7fd      	b.n	1000690c <_exit>

10006910 <_sbrk>:
10006910:	4a07      	ldr	r2, [pc, #28]	@ (10006930 <_sbrk+0x20>)
10006912:	4603      	mov	r3, r0
10006914:	6810      	ldr	r0, [r2, #0]
10006916:	b138      	cbz	r0, 10006928 <_sbrk+0x18>
10006918:	4906      	ldr	r1, [pc, #24]	@ (10006934 <_sbrk+0x24>)
1000691a:	4403      	add	r3, r0
1000691c:	428b      	cmp	r3, r1
1000691e:	bf8c      	ite	hi
10006920:	f04f 30ff 	movhi.w	r0, #4294967295	@ 0xffffffff
10006924:	6013      	strls	r3, [r2, #0]
10006926:	4770      	bx	lr
10006928:	4903      	ldr	r1, [pc, #12]	@ (10006938 <_sbrk+0x28>)
1000692a:	4608      	mov	r0, r1
1000692c:	6011      	str	r1, [r2, #0]
1000692e:	e7f3      	b.n	10006918 <_sbrk+0x8>
10006930:	2000115c 	.word	0x2000115c
10006934:	20080000 	.word	0x20080000
10006938:	20026d38 	.word	0x20026d38

1000693c <exit>:
1000693c:	b508      	push	{r3, lr}
1000693e:	f7ff ffe5 	bl	1000690c <_exit>
10006942:	bf00      	nop

10006944 <__assert_func>:
10006944:	469c      	mov	ip, r3
10006946:	4614      	mov	r4, r2
10006948:	b500      	push	{lr}
1000694a:	460b      	mov	r3, r1
1000694c:	4602      	mov	r2, r0
1000694e:	4661      	mov	r1, ip
10006950:	b083      	sub	sp, #12
10006952:	b144      	cbz	r4, 10006966 <__assert_func+0x22>
10006954:	4d05      	ldr	r5, [pc, #20]	@ (1000696c <__assert_func+0x28>)
10006956:	4806      	ldr	r0, [pc, #24]	@ (10006970 <__assert_func+0x2c>)
10006958:	9401      	str	r4, [sp, #4]
1000695a:	9500      	str	r5, [sp, #0]
1000695c:	f7ff ff9a 	bl	10006894 <weak_raw_printf>
10006960:	2001      	movs	r0, #1
10006962:	f7ff ffd3 	bl	1000690c <_exit>
10006966:	4d03      	ldr	r5, [pc, #12]	@ (10006974 <__assert_func+0x30>)
10006968:	462c      	mov	r4, r5
1000696a:	e7f4      	b.n	10006956 <__assert_func+0x12>
1000696c:	1000d1cc 	.word	0x1000d1cc
10006970:	1000d1dc 	.word	0x1000d1dc
10006974:	1000d1d8 	.word	0x1000d1d8

10006978 <runtime_init>:
10006978:	b538      	push	{r3, r4, r5, lr}
1000697a:	4c06      	ldr	r4, [pc, #24]	@ (10006994 <runtime_init+0x1c>)
1000697c:	4d06      	ldr	r5, [pc, #24]	@ (10006998 <runtime_init+0x20>)
1000697e:	f7fd ffc9 	bl	10004914 <runtime_run_initializers>
10006982:	42ac      	cmp	r4, r5
10006984:	d204      	bcs.n	10006990 <runtime_init+0x18>
10006986:	f854 3b04 	ldr.w	r3, [r4], #4
1000698a:	4798      	blx	r3
1000698c:	42ac      	cmp	r4, r5
1000698e:	d3fa      	bcc.n	10006986 <runtime_init+0xe>
10006990:	bd38      	pop	{r3, r4, r5, pc}
10006992:	bf00      	nop
10006994:	1000cd80 	.word	0x1000cd80
10006998:	1000cd84 	.word	0x1000cd84

1000699c <stdio_out_chars_no_crlf>:
1000699c:	6803      	ldr	r3, [r0, #0]
1000699e:	4608      	mov	r0, r1
100069a0:	4611      	mov	r1, r2
100069a2:	4718      	bx	r3

100069a4 <stdio_out_chars_crlf>:
100069a4:	e92d 41f0 	stmdb	sp!, {r4, r5, r6, r7, r8, lr}
100069a8:	4615      	mov	r5, r2
100069aa:	7d42      	ldrb	r2, [r0, #21]
100069ac:	4607      	mov	r7, r0
100069ae:	4688      	mov	r8, r1
100069b0:	2a00      	cmp	r2, #0
100069b2:	d046      	beq.n	10006a42 <stdio_out_chars_crlf+0x9e>
100069b4:	2d00      	cmp	r5, #0
100069b6:	dd1d      	ble.n	100069f4 <stdio_out_chars_crlf+0x50>
100069b8:	780b      	ldrb	r3, [r1, #0]
100069ba:	2b0a      	cmp	r3, #10
100069bc:	d023      	beq.n	10006a06 <stdio_out_chars_crlf+0x62>
100069be:	2d01      	cmp	r5, #1
100069c0:	f04f 0c00 	mov.w	ip, #0
100069c4:	d018      	beq.n	100069f8 <stdio_out_chars_crlf+0x54>
100069c6:	4646      	mov	r6, r8
100069c8:	2401      	movs	r4, #1
100069ca:	f816 2f01 	ldrb.w	r2, [r6, #1]!
100069ce:	4621      	mov	r1, r4
100069d0:	2a0a      	cmp	r2, #10
100069d2:	f104 0401 	add.w	r4, r4, #1
100069d6:	d022      	beq.n	10006a1e <stdio_out_chars_crlf+0x7a>
100069d8:	42a5      	cmp	r5, r4
100069da:	d1f6      	bne.n	100069ca <stdio_out_chars_crlf+0x26>
100069dc:	4565      	cmp	r5, ip
100069de:	dc0b      	bgt.n	100069f8 <stdio_out_chars_crlf+0x54>
100069e0:	eb08 0305 	add.w	r3, r8, r5
100069e4:	f813 3c01 	ldrb.w	r3, [r3, #-1]
100069e8:	f1a3 030d 	sub.w	r3, r3, #13
100069ec:	fab3 f383 	clz	r3, r3
100069f0:	095b      	lsrs	r3, r3, #5
100069f2:	753b      	strb	r3, [r7, #20]
100069f4:	e8bd 81f0 	ldmia.w	sp!, {r4, r5, r6, r7, r8, pc}
100069f8:	683b      	ldr	r3, [r7, #0]
100069fa:	eba5 010c 	sub.w	r1, r5, ip
100069fe:	eb08 000c 	add.w	r0, r8, ip
10006a02:	4798      	blx	r3
10006a04:	e7ec      	b.n	100069e0 <stdio_out_chars_crlf+0x3c>
10006a06:	7d03      	ldrb	r3, [r0, #20]
10006a08:	2b00      	cmp	r3, #0
10006a0a:	d1d8      	bne.n	100069be <stdio_out_chars_crlf+0x1a>
10006a0c:	6803      	ldr	r3, [r0, #0]
10006a0e:	2102      	movs	r1, #2
10006a10:	480f      	ldr	r0, [pc, #60]	@ (10006a50 <stdio_out_chars_crlf+0xac>)
10006a12:	4798      	blx	r3
10006a14:	2d01      	cmp	r5, #1
10006a16:	d0e3      	beq.n	100069e0 <stdio_out_chars_crlf+0x3c>
10006a18:	f04f 0c01 	mov.w	ip, #1
10006a1c:	e7d3      	b.n	100069c6 <stdio_out_chars_crlf+0x22>
10006a1e:	f816 3c01 	ldrb.w	r3, [r6, #-1]
10006a22:	2b0d      	cmp	r3, #13
10006a24:	d0d8      	beq.n	100069d8 <stdio_out_chars_crlf+0x34>
10006a26:	458c      	cmp	ip, r1
10006a28:	eb08 000c 	add.w	r0, r8, ip
10006a2c:	eba1 010c 	sub.w	r1, r1, ip
10006a30:	da01      	bge.n	10006a36 <stdio_out_chars_crlf+0x92>
10006a32:	683b      	ldr	r3, [r7, #0]
10006a34:	4798      	blx	r3
10006a36:	2102      	movs	r1, #2
10006a38:	4805      	ldr	r0, [pc, #20]	@ (10006a50 <stdio_out_chars_crlf+0xac>)
10006a3a:	683b      	ldr	r3, [r7, #0]
10006a3c:	4798      	blx	r3
10006a3e:	46a4      	mov	ip, r4
10006a40:	e7ca      	b.n	100069d8 <stdio_out_chars_crlf+0x34>
10006a42:	4629      	mov	r1, r5
10006a44:	4640      	mov	r0, r8
10006a46:	683b      	ldr	r3, [r7, #0]
10006a48:	e8bd 41f0 	ldmia.w	sp!, {r4, r5, r6, r7, r8, lr}
10006a4c:	4718      	bx	r3
10006a4e:	bf00      	nop
10006a50:	1000e1e0 	.word	0x1000e1e0

10006a54 <stdio_buffered_printer>:
10006a54:	680b      	ldr	r3, [r1, #0]
10006a56:	e92d 41f0 	stmdb	sp!, {r4, r5, r6, r7, r8, lr}
10006a5a:	2b80      	cmp	r3, #128	@ 0x80
10006a5c:	460d      	mov	r5, r1
10006a5e:	4606      	mov	r6, r0
10006a60:	d005      	beq.n	10006a6e <stdio_buffered_printer+0x1a>
10006a62:	1c5a      	adds	r2, r3, #1
10006a64:	442b      	add	r3, r5
10006a66:	602a      	str	r2, [r5, #0]
10006a68:	711e      	strb	r6, [r3, #4]
10006a6a:	e8bd 81f0 	ldmia.w	sp!, {r4, r5, r6, r7, r8, pc}
10006a6e:	4b0f      	ldr	r3, [pc, #60]	@ (10006aac <stdio_buffered_printer+0x58>)
10006a70:	681c      	ldr	r4, [r3, #0]
10006a72:	b1a4      	cbz	r4, 10006a9e <stdio_buffered_printer+0x4a>
10006a74:	4f0e      	ldr	r7, [pc, #56]	@ (10006ab0 <stdio_buffered_printer+0x5c>)
10006a76:	f101 0804 	add.w	r8, r1, #4
10006a7a:	e001      	b.n	10006a80 <stdio_buffered_printer+0x2c>
10006a7c:	6924      	ldr	r4, [r4, #16]
10006a7e:	b174      	cbz	r4, 10006a9e <stdio_buffered_printer+0x4a>
10006a80:	6823      	ldr	r3, [r4, #0]
10006a82:	2b00      	cmp	r3, #0
10006a84:	d0fa      	beq.n	10006a7c <stdio_buffered_printer+0x28>
10006a86:	683b      	ldr	r3, [r7, #0]
10006a88:	b10b      	cbz	r3, 10006a8e <stdio_buffered_printer+0x3a>
10006a8a:	42a3      	cmp	r3, r4
10006a8c:	d1f6      	bne.n	10006a7c <stdio_buffered_printer+0x28>
10006a8e:	4620      	mov	r0, r4
10006a90:	4641      	mov	r1, r8
10006a92:	682a      	ldr	r2, [r5, #0]
10006a94:	f7ff ff86 	bl	100069a4 <stdio_out_chars_crlf>
10006a98:	6924      	ldr	r4, [r4, #16]
10006a9a:	2c00      	cmp	r4, #0
10006a9c:	d1f0      	bne.n	10006a80 <stdio_buffered_printer+0x2c>
10006a9e:	2300      	movs	r3, #0
10006aa0:	2201      	movs	r2, #1
10006aa2:	442b      	add	r3, r5
10006aa4:	602a      	str	r2, [r5, #0]
10006aa6:	711e      	strb	r6, [r3, #4]
10006aa8:	e8bd 81f0 	ldmia.w	sp!, {r4, r5, r6, r7, r8, pc}
10006aac:	20001150 	.word	0x20001150
10006ab0:	20001158 	.word	0x20001158

10006ab4 <stdio_put_string>:
10006ab4:	e92d 47f0 	stmdb	sp!, {r4, r5, r6, r7, r8, r9, sl, lr}
10006ab8:	b082      	sub	sp, #8
10006aba:	460d      	mov	r5, r1
10006abc:	4691      	mov	r9, r2
10006abe:	461c      	mov	r4, r3
10006ac0:	4606      	mov	r6, r0
10006ac2:	f7fd fc89 	bl	100043d8 <time_us_64>
10006ac6:	f04f 3cff 	mov.w	ip, #4294967295	@ 0xffffffff
10006aca:	f06f 4700 	mvn.w	r7, #2147483648	@ 0x80000000
10006ace:	4a2e      	ldr	r2, [pc, #184]	@ (10006b88 <stdio_put_string+0xd4>)
10006ad0:	1882      	adds	r2, r0, r2
10006ad2:	f141 0300 	adc.w	r3, r1, #0
10006ad6:	4594      	cmp	ip, r2
10006ad8:	eb77 0103 	sbcs.w	r1, r7, r3
10006adc:	bf3c      	itt	cc
10006ade:	4662      	movcc	r2, ip
10006ae0:	463b      	movcc	r3, r7
10006ae2:	482a      	ldr	r0, [pc, #168]	@ (10006b8c <stdio_put_string+0xd8>)
10006ae4:	f006 f928 	bl	1000cd38 <__mutex_try_enter_block_until_veneer>
10006ae8:	1c6b      	adds	r3, r5, #1
10006aea:	4680      	mov	r8, r0
10006aec:	d040      	beq.n	10006b70 <stdio_put_string+0xbc>
10006aee:	b30c      	cbz	r4, 10006b34 <stdio_put_string+0x80>
10006af0:	4f27      	ldr	r7, [pc, #156]	@ (10006b90 <stdio_put_string+0xdc>)
10006af2:	4b28      	ldr	r3, [pc, #160]	@ (10006b94 <stdio_put_string+0xe0>)
10006af4:	681c      	ldr	r4, [r3, #0]
10006af6:	b1b4      	cbz	r4, 10006b26 <stdio_put_string+0x72>
10006af8:	f1b9 0f00 	cmp.w	r9, #0
10006afc:	d11c      	bne.n	10006b38 <stdio_put_string+0x84>
10006afe:	f8df 909c 	ldr.w	r9, [pc, #156]	@ 10006b9c <stdio_put_string+0xe8>
10006b02:	e001      	b.n	10006b08 <stdio_put_string+0x54>
10006b04:	6924      	ldr	r4, [r4, #16]
10006b06:	b174      	cbz	r4, 10006b26 <stdio_put_string+0x72>
10006b08:	6823      	ldr	r3, [r4, #0]
10006b0a:	2b00      	cmp	r3, #0
10006b0c:	d0fa      	beq.n	10006b04 <stdio_put_string+0x50>
10006b0e:	f8d9 3000 	ldr.w	r3, [r9]
10006b12:	b10b      	cbz	r3, 10006b18 <stdio_put_string+0x64>
10006b14:	429c      	cmp	r4, r3
10006b16:	d1f5      	bne.n	10006b04 <stdio_put_string+0x50>
10006b18:	4620      	mov	r0, r4
10006b1a:	462a      	mov	r2, r5
10006b1c:	4631      	mov	r1, r6
10006b1e:	47b8      	blx	r7
10006b20:	6924      	ldr	r4, [r4, #16]
10006b22:	2c00      	cmp	r4, #0
10006b24:	d1f0      	bne.n	10006b08 <stdio_put_string+0x54>
10006b26:	f1b8 0f00 	cmp.w	r8, #0
10006b2a:	d126      	bne.n	10006b7a <stdio_put_string+0xc6>
10006b2c:	4628      	mov	r0, r5
10006b2e:	b002      	add	sp, #8
10006b30:	e8bd 87f0 	ldmia.w	sp!, {r4, r5, r6, r7, r8, r9, sl, pc}
10006b34:	4f18      	ldr	r7, [pc, #96]	@ (10006b98 <stdio_put_string+0xe4>)
10006b36:	e7dc      	b.n	10006af2 <stdio_put_string+0x3e>
10006b38:	f04f 0a0a 	mov.w	sl, #10
10006b3c:	f8df 905c 	ldr.w	r9, [pc, #92]	@ 10006b9c <stdio_put_string+0xe8>
10006b40:	e002      	b.n	10006b48 <stdio_put_string+0x94>
10006b42:	6924      	ldr	r4, [r4, #16]
10006b44:	2c00      	cmp	r4, #0
10006b46:	d0ee      	beq.n	10006b26 <stdio_put_string+0x72>
10006b48:	6823      	ldr	r3, [r4, #0]
10006b4a:	2b00      	cmp	r3, #0
10006b4c:	d0f9      	beq.n	10006b42 <stdio_put_string+0x8e>
10006b4e:	f8d9 3000 	ldr.w	r3, [r9]
10006b52:	b10b      	cbz	r3, 10006b58 <stdio_put_string+0xa4>
10006b54:	42a3      	cmp	r3, r4
10006b56:	d1f4      	bne.n	10006b42 <stdio_put_string+0x8e>
10006b58:	462a      	mov	r2, r5
10006b5a:	4631      	mov	r1, r6
10006b5c:	4620      	mov	r0, r4
10006b5e:	47b8      	blx	r7
10006b60:	2201      	movs	r2, #1
10006b62:	4620      	mov	r0, r4
10006b64:	f10d 0107 	add.w	r1, sp, #7
10006b68:	f88d a007 	strb.w	sl, [sp, #7]
10006b6c:	47b8      	blx	r7
10006b6e:	e7e8      	b.n	10006b42 <stdio_put_string+0x8e>
10006b70:	4630      	mov	r0, r6
10006b72:	f001 fa3d 	bl	10007ff0 <strlen>
10006b76:	4605      	mov	r5, r0
10006b78:	e7b9      	b.n	10006aee <stdio_put_string+0x3a>
10006b7a:	4804      	ldr	r0, [pc, #16]	@ (10006b8c <stdio_put_string+0xd8>)
10006b7c:	f006 f8d4 	bl	1000cd28 <__mutex_exit_veneer>
10006b80:	4628      	mov	r0, r5
10006b82:	b002      	add	sp, #8
10006b84:	e8bd 87f0 	ldmia.w	sp!, {r4, r5, r6, r7, r8, r9, sl, pc}
10006b88:	000f4240 	.word	0x000f4240
10006b8c:	20000d2c 	.word	0x20000d2c
10006b90:	100069a5 	.word	0x100069a5
10006b94:	20001150 	.word	0x20001150
10006b98:	1000699d 	.word	0x1000699d
10006b9c:	20001158 	.word	0x20001158

10006ba0 <stdio_init_all>:
10006ba0:	2000      	movs	r0, #0
10006ba2:	4770      	bx	lr

10006ba4 <__wrap_putchar>:
10006ba4:	b5f0      	push	{r4, r5, r6, r7, lr}
10006ba6:	b083      	sub	sp, #12
10006ba8:	4606      	mov	r6, r0
10006baa:	f88d 0007 	strb.w	r0, [sp, #7]
10006bae:	f7fd fc13 	bl	100043d8 <time_us_64>
10006bb2:	f04f 35ff 	mov.w	r5, #4294967295	@ 0xffffffff
10006bb6:	f06f 4400 	mvn.w	r4, #2147483648	@ 0x80000000
10006bba:	4a17      	ldr	r2, [pc, #92]	@ (10006c18 <__wrap_putchar+0x74>)
10006bbc:	1882      	adds	r2, r0, r2
10006bbe:	f141 0300 	adc.w	r3, r1, #0
10006bc2:	4295      	cmp	r5, r2
10006bc4:	eb74 0103 	sbcs.w	r1, r4, r3
10006bc8:	bf3c      	itt	cc
10006bca:	4623      	movcc	r3, r4
10006bcc:	462a      	movcc	r2, r5
10006bce:	4813      	ldr	r0, [pc, #76]	@ (10006c1c <__wrap_putchar+0x78>)
10006bd0:	f006 f8b2 	bl	1000cd38 <__mutex_try_enter_block_until_veneer>
10006bd4:	4b12      	ldr	r3, [pc, #72]	@ (10006c20 <__wrap_putchar+0x7c>)
10006bd6:	4607      	mov	r7, r0
10006bd8:	681c      	ldr	r4, [r3, #0]
10006bda:	b19c      	cbz	r4, 10006c04 <__wrap_putchar+0x60>
10006bdc:	4d11      	ldr	r5, [pc, #68]	@ (10006c24 <__wrap_putchar+0x80>)
10006bde:	e001      	b.n	10006be4 <__wrap_putchar+0x40>
10006be0:	6924      	ldr	r4, [r4, #16]
10006be2:	b17c      	cbz	r4, 10006c04 <__wrap_putchar+0x60>
10006be4:	6823      	ldr	r3, [r4, #0]
10006be6:	2b00      	cmp	r3, #0
10006be8:	d0fa      	beq.n	10006be0 <__wrap_putchar+0x3c>
10006bea:	682b      	ldr	r3, [r5, #0]
10006bec:	b10b      	cbz	r3, 10006bf2 <__wrap_putchar+0x4e>
10006bee:	429c      	cmp	r4, r3
10006bf0:	d1f6      	bne.n	10006be0 <__wrap_putchar+0x3c>
10006bf2:	4620      	mov	r0, r4
10006bf4:	2201      	movs	r2, #1
10006bf6:	f10d 0107 	add.w	r1, sp, #7
10006bfa:	f7ff fed3 	bl	100069a4 <stdio_out_chars_crlf>
10006bfe:	6924      	ldr	r4, [r4, #16]
10006c00:	2c00      	cmp	r4, #0
10006c02:	d1ef      	bne.n	10006be4 <__wrap_putchar+0x40>
10006c04:	b917      	cbnz	r7, 10006c0c <__wrap_putchar+0x68>
10006c06:	4630      	mov	r0, r6
10006c08:	b003      	add	sp, #12
10006c0a:	bdf0      	pop	{r4, r5, r6, r7, pc}
10006c0c:	4803      	ldr	r0, [pc, #12]	@ (10006c1c <__wrap_putchar+0x78>)
10006c0e:	f006 f88b 	bl	1000cd28 <__mutex_exit_veneer>
10006c12:	4630      	mov	r0, r6
10006c14:	b003      	add	sp, #12
10006c16:	bdf0      	pop	{r4, r5, r6, r7, pc}
10006c18:	000f4240 	.word	0x000f4240
10006c1c:	20000d2c 	.word	0x20000d2c
10006c20:	20001150 	.word	0x20001150
10006c24:	20001158 	.word	0x20001158

10006c28 <__wrap_puts>:
10006c28:	b538      	push	{r3, r4, r5, lr}
10006c2a:	4604      	mov	r4, r0
10006c2c:	f001 f9e0 	bl	10007ff0 <strlen>
10006c30:	2301      	movs	r3, #1
10006c32:	4605      	mov	r5, r0
10006c34:	461a      	mov	r2, r3
10006c36:	4620      	mov	r0, r4
10006c38:	4629      	mov	r1, r5
10006c3a:	f7ff ff3b 	bl	10006ab4 <stdio_put_string>
10006c3e:	4b08      	ldr	r3, [pc, #32]	@ (10006c60 <__wrap_puts+0x38>)
10006c40:	681c      	ldr	r4, [r3, #0]
10006c42:	b12c      	cbz	r4, 10006c50 <__wrap_puts+0x28>
10006c44:	6863      	ldr	r3, [r4, #4]
10006c46:	b12b      	cbz	r3, 10006c54 <__wrap_puts+0x2c>
10006c48:	4798      	blx	r3
10006c4a:	6924      	ldr	r4, [r4, #16]
10006c4c:	2c00      	cmp	r4, #0
10006c4e:	d1f9      	bne.n	10006c44 <__wrap_puts+0x1c>
10006c50:	4628      	mov	r0, r5
10006c52:	bd38      	pop	{r3, r4, r5, pc}
10006c54:	6924      	ldr	r4, [r4, #16]
10006c56:	2c00      	cmp	r4, #0
10006c58:	d1f4      	bne.n	10006c44 <__wrap_puts+0x1c>
10006c5a:	4628      	mov	r0, r5
10006c5c:	bd38      	pop	{r3, r4, r5, pc}
10006c5e:	bf00      	nop
10006c60:	20001150 	.word	0x20001150

10006c64 <__wrap_vprintf>:
10006c64:	e92d 41f0 	stmdb	sp!, {r4, r5, r6, r7, r8, lr}
10006c68:	b0a2      	sub	sp, #136	@ 0x88
10006c6a:	4604      	mov	r4, r0
10006c6c:	460d      	mov	r5, r1
10006c6e:	f7fd fbb3 	bl	100043d8 <time_us_64>
10006c72:	f04f 37ff 	mov.w	r7, #4294967295	@ 0xffffffff
10006c76:	f06f 4600 	mvn.w	r6, #2147483648	@ 0x80000000
10006c7a:	4a26      	ldr	r2, [pc, #152]	@ (10006d14 <__wrap_vprintf+0xb0>)
10006c7c:	f8df 80a4 	ldr.w	r8, [pc, #164]	@ 10006d24 <__wrap_vprintf+0xc0>
10006c80:	1882      	adds	r2, r0, r2
10006c82:	f141 0300 	adc.w	r3, r1, #0
10006c86:	4297      	cmp	r7, r2
10006c88:	eb76 0103 	sbcs.w	r1, r6, r3
10006c8c:	bf3c      	itt	cc
10006c8e:	463a      	movcc	r2, r7
10006c90:	4633      	movcc	r3, r6
10006c92:	4821      	ldr	r0, [pc, #132]	@ (10006d18 <__wrap_vprintf+0xb4>)
10006c94:	f006 f850 	bl	1000cd38 <__mutex_try_enter_block_until_veneer>
10006c98:	2700      	movs	r7, #0
10006c9a:	462b      	mov	r3, r5
10006c9c:	4622      	mov	r2, r4
10006c9e:	4606      	mov	r6, r0
10006ca0:	a901      	add	r1, sp, #4
10006ca2:	481e      	ldr	r0, [pc, #120]	@ (10006d1c <__wrap_vprintf+0xb8>)
10006ca4:	9701      	str	r7, [sp, #4]
10006ca6:	f7ff fde1 	bl	1000686c <vfctprintf>
10006caa:	9b01      	ldr	r3, [sp, #4]
10006cac:	4605      	mov	r5, r0
10006cae:	f8d8 4000 	ldr.w	r4, [r8]
10006cb2:	b1c3      	cbz	r3, 10006ce6 <__wrap_vprintf+0x82>
10006cb4:	2c00      	cmp	r4, #0
10006cb6:	d02b      	beq.n	10006d10 <__wrap_vprintf+0xac>
10006cb8:	4f19      	ldr	r7, [pc, #100]	@ (10006d20 <__wrap_vprintf+0xbc>)
10006cba:	e001      	b.n	10006cc0 <__wrap_vprintf+0x5c>
10006cbc:	6924      	ldr	r4, [r4, #16]
10006cbe:	b174      	cbz	r4, 10006cde <__wrap_vprintf+0x7a>
10006cc0:	6823      	ldr	r3, [r4, #0]
10006cc2:	2b00      	cmp	r3, #0
10006cc4:	d0fa      	beq.n	10006cbc <__wrap_vprintf+0x58>
10006cc6:	683b      	ldr	r3, [r7, #0]
10006cc8:	b10b      	cbz	r3, 10006cce <__wrap_vprintf+0x6a>
10006cca:	42a3      	cmp	r3, r4
10006ccc:	d1f6      	bne.n	10006cbc <__wrap_vprintf+0x58>
10006cce:	4620      	mov	r0, r4
10006cd0:	9a01      	ldr	r2, [sp, #4]
10006cd2:	a902      	add	r1, sp, #8
10006cd4:	f7ff fe66 	bl	100069a4 <stdio_out_chars_crlf>
10006cd8:	6924      	ldr	r4, [r4, #16]
10006cda:	2c00      	cmp	r4, #0
10006cdc:	d1f0      	bne.n	10006cc0 <__wrap_vprintf+0x5c>
10006cde:	2300      	movs	r3, #0
10006ce0:	f8d8 4000 	ldr.w	r4, [r8]
10006ce4:	9301      	str	r3, [sp, #4]
10006ce6:	b12c      	cbz	r4, 10006cf4 <__wrap_vprintf+0x90>
10006ce8:	6863      	ldr	r3, [r4, #4]
10006cea:	b143      	cbz	r3, 10006cfe <__wrap_vprintf+0x9a>
10006cec:	4798      	blx	r3
10006cee:	6924      	ldr	r4, [r4, #16]
10006cf0:	2c00      	cmp	r4, #0
10006cf2:	d1f9      	bne.n	10006ce8 <__wrap_vprintf+0x84>
10006cf4:	b92e      	cbnz	r6, 10006d02 <__wrap_vprintf+0x9e>
10006cf6:	4628      	mov	r0, r5
10006cf8:	b022      	add	sp, #136	@ 0x88
10006cfa:	e8bd 81f0 	ldmia.w	sp!, {r4, r5, r6, r7, r8, pc}
10006cfe:	6924      	ldr	r4, [r4, #16]
10006d00:	e7f1      	b.n	10006ce6 <__wrap_vprintf+0x82>
10006d02:	4805      	ldr	r0, [pc, #20]	@ (10006d18 <__wrap_vprintf+0xb4>)
10006d04:	f006 f810 	bl	1000cd28 <__mutex_exit_veneer>
10006d08:	4628      	mov	r0, r5
10006d0a:	b022      	add	sp, #136	@ 0x88
10006d0c:	e8bd 81f0 	ldmia.w	sp!, {r4, r5, r6, r7, r8, pc}
10006d10:	9401      	str	r4, [sp, #4]
10006d12:	e7ef      	b.n	10006cf4 <__wrap_vprintf+0x90>
10006d14:	000f4240 	.word	0x000f4240
10006d18:	20000d2c 	.word	0x20000d2c
10006d1c:	10006a55 	.word	0x10006a55
10006d20:	20001158 	.word	0x20001158
10006d24:	20001150 	.word	0x20001150

10006d28 <__wrap_printf>:
10006d28:	b40f      	push	{r0, r1, r2, r3}
10006d2a:	b500      	push	{lr}
10006d2c:	b083      	sub	sp, #12
10006d2e:	a904      	add	r1, sp, #16
10006d30:	f851 0b04 	ldr.w	r0, [r1], #4
10006d34:	9101      	str	r1, [sp, #4]
10006d36:	f7ff ff95 	bl	10006c64 <__wrap_vprintf>
10006d3a:	b003      	add	sp, #12
10006d3c:	f85d eb04 	ldr.w	lr, [sp], #4
10006d40:	b004      	add	sp, #16
10006d42:	4770      	bx	lr

10006d44 <pio_sm_claim>:
10006d44:	f100 402f 	add.w	r0, r0, #2936012800	@ 0xaf000000
10006d48:	f500 0060 	add.w	r0, r0, #14680064	@ 0xe00000
10006d4c:	0d03      	lsrs	r3, r0, #20
10006d4e:	2b02      	cmp	r3, #2
10006d50:	d00d      	beq.n	10006d6e <pio_sm_claim+0x2a>
10006d52:	2b01      	cmp	r3, #1
10006d54:	d005      	beq.n	10006d62 <pio_sm_claim+0x1e>
10006d56:	4a09      	ldr	r2, [pc, #36]	@ (10006d7c <pio_sm_claim+0x38>)
10006d58:	4809      	ldr	r0, [pc, #36]	@ (10006d80 <pio_sm_claim+0x3c>)
10006d5a:	eb01 0183 	add.w	r1, r1, r3, lsl #2
10006d5e:	f7fc becd 	b.w	10003afc <hw_claim_or_assert>
10006d62:	4a08      	ldr	r2, [pc, #32]	@ (10006d84 <pio_sm_claim+0x40>)
10006d64:	4806      	ldr	r0, [pc, #24]	@ (10006d80 <pio_sm_claim+0x3c>)
10006d66:	eb01 0183 	add.w	r1, r1, r3, lsl #2
10006d6a:	f7fc bec7 	b.w	10003afc <hw_claim_or_assert>
10006d6e:	4a06      	ldr	r2, [pc, #24]	@ (10006d88 <pio_sm_claim+0x44>)
10006d70:	4803      	ldr	r0, [pc, #12]	@ (10006d80 <pio_sm_claim+0x3c>)
10006d72:	eb01 0183 	add.w	r1, r1, r3, lsl #2
10006d76:	f7fc bec1 	b.w	10003afc <hw_claim_or_assert>
10006d7a:	bf00      	nop
10006d7c:	1000d20c 	.word	0x1000d20c
10006d80:	20001124 	.word	0x20001124
10006d84:	1000d24c 	.word	0x1000d24c
10006d88:	1000d228 	.word	0x1000d228

10006d8c <pio_add_program>:
10006d8c:	e92d 47f0 	stmdb	sp!, {r4, r5, r6, r7, r8, r9, sl, lr}
10006d90:	460f      	mov	r7, r1
10006d92:	4605      	mov	r5, r0
10006d94:	f7fc fe96 	bl	10003ac4 <hw_claim_lock>
10006d98:	2201      	movs	r2, #1
10006d9a:	f897 a004 	ldrb.w	sl, [r7, #4]
10006d9e:	f997 c005 	ldrsb.w	ip, [r7, #5]
10006da2:	f105 4e2f 	add.w	lr, r5, #2936012800	@ 0xaf000000
10006da6:	f8df 80d4 	ldr.w	r8, [pc, #212]	@ 10006e7c <pio_add_program+0xf0>
10006daa:	f50e 0e60 	add.w	lr, lr, #14680064	@ 0xe00000
10006dae:	fa02 f20a 	lsl.w	r2, r2, sl
10006db2:	ea4f 5e1e 	mov.w	lr, lr, lsr #20
10006db6:	f1bc 0f00 	cmp.w	ip, #0
10006dba:	f858 602e 	ldr.w	r6, [r8, lr, lsl #2]
10006dbe:	f102 32ff 	add.w	r2, r2, #4294967295	@ 0xffffffff
10006dc2:	f1ca 0420 	rsb	r4, sl, #32
10006dc6:	db35      	blt.n	10006e34 <pio_add_program+0xa8>
10006dc8:	45a4      	cmp	ip, r4
10006dca:	dc03      	bgt.n	10006dd4 <pio_add_program+0x48>
10006dcc:	fa02 f30c 	lsl.w	r3, r2, ip
10006dd0:	4233      	tst	r3, r6
10006dd2:	d006      	beq.n	10006de2 <pio_add_program+0x56>
10006dd4:	f04f 34ff 	mov.w	r4, #4294967295	@ 0xffffffff
10006dd8:	f7fc fe86 	bl	10003ae8 <hw_claim_unlock>
10006ddc:	4620      	mov	r0, r4
10006dde:	e8bd 87f0 	ldmia.w	sp!, {r4, r5, r6, r7, r8, r9, sl, pc}
10006de2:	f8d5 3168 	ldr.w	r3, [r5, #360]	@ 0x168
10006de6:	79f9      	ldrb	r1, [r7, #7]
10006de8:	2b00      	cmp	r3, #0
10006dea:	d141      	bne.n	10006e70 <pio_add_program+0xe4>
10006dec:	074b      	lsls	r3, r1, #29
10006dee:	d431      	bmi.n	10006e54 <pio_add_program+0xc8>
10006df0:	4664      	mov	r4, ip
10006df2:	fa02 f20c 	lsl.w	r2, r2, ip
10006df6:	4216      	tst	r6, r2
10006df8:	d133      	bne.n	10006e62 <pio_add_program+0xd6>
10006dfa:	6839      	ldr	r1, [r7, #0]
10006dfc:	f1ba 0f00 	cmp.w	sl, #0
10006e00:	d010      	beq.n	10006e24 <pio_add_program+0x98>
10006e02:	4667      	mov	r7, ip
10006e04:	eb01 0a4a 	add.w	sl, r1, sl, lsl #1
10006e08:	f831 3b02 	ldrh.w	r3, [r1], #2
10006e0c:	f107 0912 	add.w	r9, r7, #18
10006e10:	f5b3 5f00 	cmp.w	r3, #8192	@ 0x2000
10006e14:	bf38      	it	cc
10006e16:	4463      	addcc	r3, ip
10006e18:	4551      	cmp	r1, sl
10006e1a:	f107 0701 	add.w	r7, r7, #1
10006e1e:	f845 3029 	str.w	r3, [r5, r9, lsl #2]
10006e22:	d1f1      	bne.n	10006e08 <pio_add_program+0x7c>
10006e24:	4332      	orrs	r2, r6
10006e26:	f848 202e 	str.w	r2, [r8, lr, lsl #2]
10006e2a:	f7fc fe5d 	bl	10003ae8 <hw_claim_unlock>
10006e2e:	4620      	mov	r0, r4
10006e30:	e8bd 87f0 	ldmia.w	sp!, {r4, r5, r6, r7, r8, r9, sl, pc}
10006e34:	2c00      	cmp	r4, #0
10006e36:	da02      	bge.n	10006e3e <pio_add_program+0xb2>
10006e38:	e013      	b.n	10006e62 <pio_add_program+0xd6>
10006e3a:	3c01      	subs	r4, #1
10006e3c:	d311      	bcc.n	10006e62 <pio_add_program+0xd6>
10006e3e:	fa02 f304 	lsl.w	r3, r2, r4
10006e42:	4233      	tst	r3, r6
10006e44:	46a4      	mov	ip, r4
10006e46:	d1f8      	bne.n	10006e3a <pio_add_program+0xae>
10006e48:	f8d5 1168 	ldr.w	r1, [r5, #360]	@ 0x168
10006e4c:	79fb      	ldrb	r3, [r7, #7]
10006e4e:	b991      	cbnz	r1, 10006e76 <pio_add_program+0xea>
10006e50:	075b      	lsls	r3, r3, #29
10006e52:	d5ce      	bpl.n	10006df2 <pio_add_program+0x66>
10006e54:	f06f 040a 	mvn.w	r4, #10
10006e58:	f7fc fe46 	bl	10003ae8 <hw_claim_unlock>
10006e5c:	4620      	mov	r0, r4
10006e5e:	e8bd 87f0 	ldmia.w	sp!, {r4, r5, r6, r7, r8, r9, sl, pc}
10006e62:	f06f 0408 	mvn.w	r4, #8
10006e66:	f7fc fe3f 	bl	10003ae8 <hw_claim_unlock>
10006e6a:	4620      	mov	r0, r4
10006e6c:	e8bd 87f0 	ldmia.w	sp!, {r4, r5, r6, r7, r8, r9, sl, pc}
10006e70:	07c9      	lsls	r1, r1, #31
10006e72:	d5bd      	bpl.n	10006df0 <pio_add_program+0x64>
10006e74:	e7ee      	b.n	10006e54 <pio_add_program+0xc8>
10006e76:	07d9      	lsls	r1, r3, #31
10006e78:	d5bb      	bpl.n	10006df2 <pio_add_program+0x66>
10006e7a:	e7eb      	b.n	10006e54 <pio_add_program+0xc8>
10006e7c:	20001110 	.word	0x20001110

10006e80 <pio_sm_set_consecutive_pindirs>:
10006e80:	e92d 41f0 	stmdb	sp!, {r4, r5, r6, r7, r8, lr}
10006e84:	f8d0 4168 	ldr.w	r4, [r0, #360]	@ 0x168
10006e88:	f89d 6018 	ldrb.w	r6, [sp, #24]
10006e8c:	1b12      	subs	r2, r2, r4
10006e8e:	2a1f      	cmp	r2, #31
10006e90:	d838      	bhi.n	10006f04 <pio_sm_set_consecutive_pindirs+0x84>
10006e92:	f24e 049f 	movw	r4, #57503	@ 0xe09f
10006e96:	f24e 0580 	movw	r5, #57472	@ 0xe080
10006e9a:	f44f 3800 	mov.w	r8, #131072	@ 0x20000
10006e9e:	eb01 0c41 	add.w	ip, r1, r1, lsl #1
10006ea2:	2e00      	cmp	r6, #0
10006ea4:	bf18      	it	ne
10006ea6:	4625      	movne	r5, r4
10006ea8:	eb00 04cc 	add.w	r4, r0, ip, lsl #3
10006eac:	f504 5443 	add.w	r4, r4, #12480	@ 0x30c0
10006eb0:	eb00 0ccc 	add.w	ip, r0, ip, lsl #3
10006eb4:	2b05      	cmp	r3, #5
10006eb6:	f8dc 70dc 	ldr.w	r7, [ip, #220]	@ 0xdc
10006eba:	ea4f 0e41 	mov.w	lr, r1, lsl #1
10006ebe:	f8dc 60cc 	ldr.w	r6, [ip, #204]	@ 0xcc
10006ec2:	f8c4 800c 	str.w	r8, [r4, #12]
10006ec6:	d90c      	bls.n	10006ee2 <pio_sm_set_consecutive_pindirs+0x62>
10006ec8:	0154      	lsls	r4, r2, #5
10006eca:	3b05      	subs	r3, #5
10006ecc:	f044 54a0 	orr.w	r4, r4, #335544320	@ 0x14000000
10006ed0:	3205      	adds	r2, #5
10006ed2:	2b05      	cmp	r3, #5
10006ed4:	f8cc 40dc 	str.w	r4, [ip, #220]	@ 0xdc
10006ed8:	f002 021f 	and.w	r2, r2, #31
10006edc:	f8cc 50d8 	str.w	r5, [ip, #216]	@ 0xd8
10006ee0:	d8f2      	bhi.n	10006ec8 <pio_sm_set_consecutive_pindirs+0x48>
10006ee2:	4471      	add	r1, lr
10006ee4:	eb00 01c1 	add.w	r1, r0, r1, lsl #3
10006ee8:	2000      	movs	r0, #0
10006eea:	0152      	lsls	r2, r2, #5
10006eec:	ea42 6383 	orr.w	r3, r2, r3, lsl #26
10006ef0:	f8c1 30dc 	str.w	r3, [r1, #220]	@ 0xdc
10006ef4:	f8c1 50d8 	str.w	r5, [r1, #216]	@ 0xd8
10006ef8:	f8c1 70dc 	str.w	r7, [r1, #220]	@ 0xdc
10006efc:	f8c1 60cc 	str.w	r6, [r1, #204]	@ 0xcc
10006f00:	e8bd 81f0 	ldmia.w	sp!, {r4, r5, r6, r7, r8, pc}
10006f04:	f06f 0004 	mvn.w	r0, #4
10006f08:	e7fa      	b.n	10006f00 <pio_sm_set_consecutive_pindirs+0x80>
10006f0a:	bf00      	nop

10006f0c <pio_sm_init>:
10006f0c:	b5f0      	push	{r4, r5, r6, r7, lr}
10006f0e:	2501      	movs	r5, #1
10006f10:	6804      	ldr	r4, [r0, #0]
10006f12:	408d      	lsls	r5, r1
10006f14:	ea24 0405 	bic.w	r4, r4, r5
10006f18:	6004      	str	r4, [r0, #0]
10006f1a:	b3b3      	cbz	r3, 10006f8a <pio_sm_init+0x7e>
10006f1c:	e9d3 5601 	ldrd	r5, r6, [r3, #4]
10006f20:	681f      	ldr	r7, [r3, #0]
10006f22:	68dc      	ldr	r4, [r3, #12]
10006f24:	eb01 0341 	add.w	r3, r1, r1, lsl #1
10006f28:	eb00 03c3 	add.w	r3, r0, r3, lsl #3
10006f2c:	f8c3 70c8 	str.w	r7, [r3, #200]	@ 0xc8
10006f30:	ea4f 0c41 	mov.w	ip, r1, lsl #1
10006f34:	f8c3 60d0 	str.w	r6, [r3, #208]	@ 0xd0
10006f38:	f8c3 50cc 	str.w	r5, [r3, #204]	@ 0xcc
10006f3c:	f8c3 40dc 	str.w	r4, [r3, #220]	@ 0xdc
10006f40:	eb0c 0301 	add.w	r3, ip, r1
10006f44:	f04f 3501 	mov.w	r5, #16843009	@ 0x1010101
10006f48:	eb00 0cc3 	add.w	ip, r0, r3, lsl #3
10006f4c:	f04f 4600 	mov.w	r6, #2147483648	@ 0x80000000
10006f50:	eb00 0ec3 	add.w	lr, r0, r3, lsl #3
10006f54:	2301      	movs	r3, #1
10006f56:	f50e 5e86 	add.w	lr, lr, #4288	@ 0x10c0
10006f5a:	1d0c      	adds	r4, r1, #4
10006f5c:	f101 0708 	add.w	r7, r1, #8
10006f60:	408d      	lsls	r5, r1
10006f62:	f8ce 6010 	str.w	r6, [lr, #16]
10006f66:	fa03 f404 	lsl.w	r4, r3, r4
10006f6a:	f8ce 6010 	str.w	r6, [lr, #16]
10006f6e:	f002 021f 	and.w	r2, r2, #31
10006f72:	6085      	str	r5, [r0, #8]
10006f74:	40bb      	lsls	r3, r7
10006f76:	f500 5000 	add.w	r0, r0, #8192	@ 0x2000
10006f7a:	6004      	str	r4, [r0, #0]
10006f7c:	f10e 0e10 	add.w	lr, lr, #16
10006f80:	6003      	str	r3, [r0, #0]
10006f82:	2000      	movs	r0, #0
10006f84:	f8cc 20d8 	str.w	r2, [ip, #216]	@ 0xd8
10006f88:	bdf0      	pop	{r4, r5, r6, r7, pc}
10006f8a:	f44f 3780 	mov.w	r7, #65536	@ 0x10000
10006f8e:	f44f 2640 	mov.w	r6, #786432	@ 0xc0000
10006f92:	f44f 35f8 	mov.w	r5, #126976	@ 0x1f000
10006f96:	eb01 0441 	add.w	r4, r1, r1, lsl #1
10006f9a:	eb00 04c4 	add.w	r4, r0, r4, lsl #3
10006f9e:	f8c4 70c8 	str.w	r7, [r4, #200]	@ 0xc8
10006fa2:	ea4f 0c41 	mov.w	ip, r1, lsl #1
10006fa6:	f8c4 60d0 	str.w	r6, [r4, #208]	@ 0xd0
10006faa:	f8c4 50cc 	str.w	r5, [r4, #204]	@ 0xcc
10006fae:	f8c4 30dc 	str.w	r3, [r4, #220]	@ 0xdc
10006fb2:	e7c5      	b.n	10006f40 <pio_sm_init+0x34>

10006fb4 <dma_claim_unused_channel>:
10006fb4:	b510      	push	{r4, lr}
10006fb6:	4c05      	ldr	r4, [pc, #20]	@ (10006fcc <dma_claim_unused_channel+0x18>)
10006fb8:	b082      	sub	sp, #8
10006fba:	4601      	mov	r1, r0
10006fbc:	230f      	movs	r3, #15
10006fbe:	2200      	movs	r2, #0
10006fc0:	9400      	str	r4, [sp, #0]
10006fc2:	4803      	ldr	r0, [pc, #12]	@ (10006fd0 <dma_claim_unused_channel+0x1c>)
10006fc4:	f7fc fdc6 	bl	10003b54 <hw_claim_unused_from_range>
10006fc8:	b002      	add	sp, #8
10006fca:	bd10      	pop	{r4, pc}
10006fcc:	1000d270 	.word	0x1000d270
10006fd0:	20026d28 	.word	0x20026d28

10006fd4 <core1_trampoline>:
10006fd4:	bd03      	pop	{r0, r1, pc}
10006fd6:	bf00      	nop

10006fd8 <core1_wrapper>:
10006fd8:	b510      	push	{r4, lr}
10006fda:	4604      	mov	r4, r0
10006fdc:	f7fd fcaa 	bl	10004934 <runtime_run_per_core_initializers>
10006fe0:	4623      	mov	r3, r4
10006fe2:	e8bd 4010 	ldmia.w	sp!, {r4, lr}
10006fe6:	4718      	bx	r3

10006fe8 <multicore_reset_core1>:
10006fe8:	f04f 7180 	mov.w	r1, #16777216	@ 0x1000000
10006fec:	4b14      	ldr	r3, [pc, #80]	@ (10007040 <multicore_reset_core1+0x58>)
10006fee:	4a15      	ldr	r2, [pc, #84]	@ (10007044 <multicore_reset_core1+0x5c>)
10006ff0:	b510      	push	{r4, lr}
10006ff2:	6059      	str	r1, [r3, #4]
10006ff4:	6853      	ldr	r3, [r2, #4]
10006ff6:	01d8      	lsls	r0, r3, #7
10006ff8:	d5fc      	bpl.n	10006ff4 <multicore_reset_core1+0xc>
10006ffa:	2019      	movs	r0, #25
10006ffc:	f7fc fe40 	bl	10003c80 <irq_is_enabled>
10007000:	2100      	movs	r1, #0
10007002:	4604      	mov	r4, r0
10007004:	2019      	movs	r0, #25
10007006:	f7fc fe25 	bl	10003c54 <irq_set_enabled>
1000700a:	f04f 7180 	mov.w	r1, #16777216	@ 0x1000000
1000700e:	f04f 0c00 	mov.w	ip, #0
10007012:	f04f 4250 	mov.w	r2, #3489660928	@ 0xd0000000
10007016:	4b0c      	ldr	r3, [pc, #48]	@ (10007048 <multicore_reset_core1+0x60>)
10007018:	480c      	ldr	r0, [pc, #48]	@ (1000704c <multicore_reset_core1+0x64>)
1000701a:	f880 c001 	strb.w	ip, [r0, #1]
1000701e:	6059      	str	r1, [r3, #4]
10007020:	6d13      	ldr	r3, [r2, #80]	@ 0x50
10007022:	07d9      	lsls	r1, r3, #31
10007024:	d403      	bmi.n	1000702e <multicore_reset_core1+0x46>
10007026:	bf20      	wfe
10007028:	6d13      	ldr	r3, [r2, #80]	@ 0x50
1000702a:	07db      	lsls	r3, r3, #31
1000702c:	d5fb      	bpl.n	10007026 <multicore_reset_core1+0x3e>
1000702e:	f04f 4350 	mov.w	r3, #3489660928	@ 0xd0000000
10007032:	4621      	mov	r1, r4
10007034:	e8bd 4010 	ldmia.w	sp!, {r4, lr}
10007038:	2019      	movs	r0, #25
1000703a:	6d9b      	ldr	r3, [r3, #88]	@ 0x58
1000703c:	f7fc be0a 	b.w	10003c54 <irq_set_enabled>
10007040:	4001a000 	.word	0x4001a000
10007044:	40018000 	.word	0x40018000
10007048:	4001b000 	.word	0x4001b000
1000704c:	2000116c 	.word	0x2000116c

10007050 <multicore_launch_core1_raw>:
10007050:	b5f0      	push	{r4, r5, r6, r7, lr}
10007052:	4605      	mov	r5, r0
10007054:	b087      	sub	sp, #28
10007056:	2019      	movs	r0, #25
10007058:	4617      	mov	r7, r2
1000705a:	460e      	mov	r6, r1
1000705c:	f7fc fe10 	bl	10003c80 <irq_is_enabled>
10007060:	2100      	movs	r1, #0
10007062:	4604      	mov	r4, r0
10007064:	2019      	movs	r0, #25
10007066:	f7fc fdf5 	bl	10003c54 <irq_set_enabled>
1000706a:	2100      	movs	r1, #0
1000706c:	e9cd 6504 	strd	r6, r5, [sp, #16]
10007070:	9703      	str	r7, [sp, #12]
10007072:	2600      	movs	r6, #0
10007074:	2700      	movs	r7, #0
10007076:	2201      	movs	r2, #1
10007078:	f04f 4350 	mov.w	r3, #3489660928	@ 0xd0000000
1000707c:	468c      	mov	ip, r1
1000707e:	e9cd 6700 	strd	r6, r7, [sp]
10007082:	9202      	str	r2, [sp, #8]
10007084:	b1a9      	cbz	r1, 100070b2 <multicore_launch_core1_raw+0x62>
10007086:	6d1a      	ldr	r2, [r3, #80]	@ 0x50
10007088:	0795      	lsls	r5, r2, #30
1000708a:	d5fc      	bpl.n	10007086 <multicore_launch_core1_raw+0x36>
1000708c:	6559      	str	r1, [r3, #84]	@ 0x54
1000708e:	bf40      	sev
10007090:	6d1a      	ldr	r2, [r3, #80]	@ 0x50
10007092:	07d0      	lsls	r0, r2, #31
10007094:	d403      	bmi.n	1000709e <multicore_launch_core1_raw+0x4e>
10007096:	bf20      	wfe
10007098:	6d1a      	ldr	r2, [r3, #80]	@ 0x50
1000709a:	07d2      	lsls	r2, r2, #31
1000709c:	d5fb      	bpl.n	10007096 <multicore_launch_core1_raw+0x46>
1000709e:	6d9a      	ldr	r2, [r3, #88]	@ 0x58
100070a0:	428a      	cmp	r2, r1
100070a2:	d00b      	beq.n	100070bc <multicore_launch_core1_raw+0x6c>
100070a4:	f04f 0c00 	mov.w	ip, #0
100070a8:	eb0d 028c 	add.w	r2, sp, ip, lsl #2
100070ac:	6811      	ldr	r1, [r2, #0]
100070ae:	e7e9      	b.n	10007084 <multicore_launch_core1_raw+0x34>
100070b0:	6d9a      	ldr	r2, [r3, #88]	@ 0x58
100070b2:	6d1a      	ldr	r2, [r3, #80]	@ 0x50
100070b4:	07d6      	lsls	r6, r2, #31
100070b6:	d4fb      	bmi.n	100070b0 <multicore_launch_core1_raw+0x60>
100070b8:	bf40      	sev
100070ba:	e7e4      	b.n	10007086 <multicore_launch_core1_raw+0x36>
100070bc:	f10c 0c01 	add.w	ip, ip, #1
100070c0:	f1bc 0f06 	cmp.w	ip, #6
100070c4:	d1f0      	bne.n	100070a8 <multicore_launch_core1_raw+0x58>
100070c6:	4621      	mov	r1, r4
100070c8:	2019      	movs	r0, #25
100070ca:	b007      	add	sp, #28
100070cc:	e8bd 40f0 	ldmia.w	sp!, {r4, r5, r6, r7, lr}
100070d0:	f7fc bdc0 	b.w	10003c54 <irq_set_enabled>

100070d4 <multicore_launch_core1>:
100070d4:	4b0c      	ldr	r3, [pc, #48]	@ (10007108 <multicore_launch_core1+0x34>)
100070d6:	4a0d      	ldr	r2, [pc, #52]	@ (1000710c <multicore_launch_core1+0x38>)
100070d8:	4293      	cmp	r3, r2
100070da:	d30e      	bcc.n	100070fa <multicore_launch_core1+0x26>
100070dc:	469c      	mov	ip, r3
100070de:	f203 71f4 	addw	r1, r3, #2036	@ 0x7f4
100070e2:	4a0b      	ldr	r2, [pc, #44]	@ (10007110 <multicore_launch_core1+0x3c>)
100070e4:	6892      	ldr	r2, [r2, #8]
100070e6:	f8cc 07f4 	str.w	r0, [ip, #2036]	@ 0x7f4
100070ea:	480a      	ldr	r0, [pc, #40]	@ (10007114 <multicore_launch_core1+0x40>)
100070ec:	f8cc 37f8 	str.w	r3, [ip, #2040]	@ 0x7f8
100070f0:	f8cc 07fc 	str.w	r0, [ip, #2044]	@ 0x7fc
100070f4:	4808      	ldr	r0, [pc, #32]	@ (10007118 <multicore_launch_core1+0x44>)
100070f6:	f7ff bfab 	b.w	10007050 <multicore_launch_core1_raw>
100070fa:	f04f 33ff 	mov.w	r3, #4294967295	@ 0xffffffff
100070fe:	f240 71f3 	movw	r1, #2035	@ 0x7f3
10007102:	469c      	mov	ip, r3
10007104:	e7ed      	b.n	100070e2 <multicore_launch_core1+0xe>
10007106:	bf00      	nop
10007108:	20080800 	.word	0x20080800
1000710c:	20080000 	.word	0x20080000
10007110:	e000ed00 	.word	0xe000ed00
10007114:	10006fd9 	.word	0x10006fd9
10007118:	10006fd5 	.word	0x10006fd5

1000711c <_calloc_r>:
1000711c:	b538      	push	{r3, r4, r5, lr}
1000711e:	fba1 1402 	umull	r1, r4, r1, r2
10007122:	bb34      	cbnz	r4, 10007172 <_calloc_r+0x56>
10007124:	f000 f842 	bl	100071ac <_malloc_r>
10007128:	4605      	mov	r5, r0
1000712a:	b330      	cbz	r0, 1000717a <_calloc_r+0x5e>
1000712c:	f850 2c04 	ldr.w	r2, [r0, #-4]
10007130:	f022 0203 	bic.w	r2, r2, #3
10007134:	3a04      	subs	r2, #4
10007136:	2a24      	cmp	r2, #36	@ 0x24
10007138:	d80c      	bhi.n	10007154 <_calloc_r+0x38>
1000713a:	2a13      	cmp	r2, #19
1000713c:	d90f      	bls.n	1000715e <_calloc_r+0x42>
1000713e:	2a1b      	cmp	r2, #27
10007140:	e9c0 4400 	strd	r4, r4, [r0]
10007144:	d912      	bls.n	1000716c <_calloc_r+0x50>
10007146:	2a24      	cmp	r2, #36	@ 0x24
10007148:	e9c0 4402 	strd	r4, r4, [r0, #8]
1000714c:	d018      	beq.n	10007180 <_calloc_r+0x64>
1000714e:	f100 0210 	add.w	r2, r0, #16
10007152:	e005      	b.n	10007160 <_calloc_r+0x44>
10007154:	4621      	mov	r1, r4
10007156:	f000 fd7f 	bl	10007c58 <memset>
1000715a:	4628      	mov	r0, r5
1000715c:	bd38      	pop	{r3, r4, r5, pc}
1000715e:	4602      	mov	r2, r0
10007160:	2300      	movs	r3, #0
10007162:	4628      	mov	r0, r5
10007164:	e9c2 3300 	strd	r3, r3, [r2]
10007168:	6093      	str	r3, [r2, #8]
1000716a:	bd38      	pop	{r3, r4, r5, pc}
1000716c:	f100 0208 	add.w	r2, r0, #8
10007170:	e7f6      	b.n	10007160 <_calloc_r+0x44>
10007172:	f000 fdd1 	bl	10007d18 <__errno>
10007176:	230c      	movs	r3, #12
10007178:	6003      	str	r3, [r0, #0]
1000717a:	2500      	movs	r5, #0
1000717c:	4628      	mov	r0, r5
1000717e:	bd38      	pop	{r3, r4, r5, pc}
10007180:	f100 0218 	add.w	r2, r0, #24
10007184:	e9c0 4404 	strd	r4, r4, [r0, #16]
10007188:	e7ea      	b.n	10007160 <_calloc_r+0x44>
1000718a:	bf00      	nop

1000718c <malloc>:
1000718c:	4b02      	ldr	r3, [pc, #8]	@ (10007198 <malloc+0xc>)
1000718e:	4601      	mov	r1, r0
10007190:	6818      	ldr	r0, [r3, #0]
10007192:	f000 b80b 	b.w	100071ac <_malloc_r>
10007196:	bf00      	nop
10007198:	20000a70 	.word	0x20000a70

1000719c <free>:
1000719c:	4b02      	ldr	r3, [pc, #8]	@ (100071a8 <free+0xc>)
1000719e:	4601      	mov	r1, r0
100071a0:	6818      	ldr	r0, [r3, #0]
100071a2:	f000 bfaf 	b.w	10008104 <_free_r>
100071a6:	bf00      	nop
100071a8:	20000a70 	.word	0x20000a70

100071ac <_malloc_r>:
100071ac:	f101 030b 	add.w	r3, r1, #11
100071b0:	2b16      	cmp	r3, #22
100071b2:	e92d 4ff0 	stmdb	sp!, {r4, r5, r6, r7, r8, r9, sl, fp, lr}
100071b6:	4607      	mov	r7, r0
100071b8:	b083      	sub	sp, #12
100071ba:	d823      	bhi.n	10007204 <_malloc_r+0x58>
100071bc:	2910      	cmp	r1, #16
100071be:	f200 80af 	bhi.w	10007320 <_malloc_r+0x174>
100071c2:	f000 faaf 	bl	10007724 <__malloc_lock>
100071c6:	2510      	movs	r5, #16
100071c8:	2318      	movs	r3, #24
100071ca:	2002      	movs	r0, #2
100071cc:	4eba      	ldr	r6, [pc, #744]	@ (100074b8 <_malloc_r+0x30c>)
100071ce:	4433      	add	r3, r6
100071d0:	685c      	ldr	r4, [r3, #4]
100071d2:	f1a3 0208 	sub.w	r2, r3, #8
100071d6:	4294      	cmp	r4, r2
100071d8:	f000 8156 	beq.w	10007488 <_malloc_r+0x2dc>
100071dc:	6863      	ldr	r3, [r4, #4]
100071de:	4638      	mov	r0, r7
100071e0:	f023 0303 	bic.w	r3, r3, #3
100071e4:	e9d4 1202 	ldrd	r1, r2, [r4, #8]
100071e8:	4423      	add	r3, r4
100071ea:	60ca      	str	r2, [r1, #12]
100071ec:	6091      	str	r1, [r2, #8]
100071ee:	685a      	ldr	r2, [r3, #4]
100071f0:	3408      	adds	r4, #8
100071f2:	f042 0201 	orr.w	r2, r2, #1
100071f6:	605a      	str	r2, [r3, #4]
100071f8:	f000 fa9a 	bl	10007730 <__malloc_unlock>
100071fc:	4620      	mov	r0, r4
100071fe:	b003      	add	sp, #12
10007200:	e8bd 8ff0 	ldmia.w	sp!, {r4, r5, r6, r7, r8, r9, sl, fp, pc}
10007204:	2b00      	cmp	r3, #0
10007206:	f023 0507 	bic.w	r5, r3, #7
1000720a:	f2c0 8089 	blt.w	10007320 <_malloc_r+0x174>
1000720e:	42a9      	cmp	r1, r5
10007210:	f200 8086 	bhi.w	10007320 <_malloc_r+0x174>
10007214:	f000 fa86 	bl	10007724 <__malloc_lock>
10007218:	f5b5 7ffc 	cmp.w	r5, #504	@ 0x1f8
1000721c:	f0c0 827b 	bcc.w	10007716 <_malloc_r+0x56a>
10007220:	0a6b      	lsrs	r3, r5, #9
10007222:	f000 8084 	beq.w	1000732e <_malloc_r+0x182>
10007226:	2b04      	cmp	r3, #4
10007228:	f200 8162 	bhi.w	100074f0 <_malloc_r+0x344>
1000722c:	09ab      	lsrs	r3, r5, #6
1000722e:	f103 0039 	add.w	r0, r3, #57	@ 0x39
10007232:	f103 0e38 	add.w	lr, r3, #56	@ 0x38
10007236:	00c3      	lsls	r3, r0, #3
10007238:	4e9f      	ldr	r6, [pc, #636]	@ (100074b8 <_malloc_r+0x30c>)
1000723a:	4433      	add	r3, r6
1000723c:	f1a3 0c08 	sub.w	ip, r3, #8
10007240:	685c      	ldr	r4, [r3, #4]
10007242:	45a4      	cmp	ip, r4
10007244:	d107      	bne.n	10007256 <_malloc_r+0xaa>
10007246:	e00d      	b.n	10007264 <_malloc_r+0xb8>
10007248:	2a00      	cmp	r2, #0
1000724a:	68e1      	ldr	r1, [r4, #12]
1000724c:	f280 8116 	bge.w	1000747c <_malloc_r+0x2d0>
10007250:	458c      	cmp	ip, r1
10007252:	460c      	mov	r4, r1
10007254:	d006      	beq.n	10007264 <_malloc_r+0xb8>
10007256:	6863      	ldr	r3, [r4, #4]
10007258:	f023 0303 	bic.w	r3, r3, #3
1000725c:	1b5a      	subs	r2, r3, r5
1000725e:	2a0f      	cmp	r2, #15
10007260:	ddf2      	ble.n	10007248 <_malloc_r+0x9c>
10007262:	4670      	mov	r0, lr
10007264:	f8df 8268 	ldr.w	r8, [pc, #616]	@ 100074d0 <_malloc_r+0x324>
10007268:	6934      	ldr	r4, [r6, #16]
1000726a:	4544      	cmp	r4, r8
1000726c:	f000 80f2 	beq.w	10007454 <_malloc_r+0x2a8>
10007270:	6863      	ldr	r3, [r4, #4]
10007272:	f023 0c03 	bic.w	ip, r3, #3
10007276:	ebac 0305 	sub.w	r3, ip, r5
1000727a:	2b0f      	cmp	r3, #15
1000727c:	f300 8174 	bgt.w	10007568 <_malloc_r+0x3bc>
10007280:	2b00      	cmp	r3, #0
10007282:	e9c6 8804 	strd	r8, r8, [r6, #16]
10007286:	f280 8163 	bge.w	10007550 <_malloc_r+0x3a4>
1000728a:	f5bc 7f00 	cmp.w	ip, #512	@ 0x200
1000728e:	f8d6 e004 	ldr.w	lr, [r6, #4]
10007292:	f080 80ff 	bcs.w	10007494 <_malloc_r+0x2e8>
10007296:	ea4f 03dc 	mov.w	r3, ip, lsr #3
1000729a:	2201      	movs	r2, #1
1000729c:	ea4f 1c5c 	mov.w	ip, ip, lsr #5
100072a0:	3301      	adds	r3, #1
100072a2:	fa02 f20c 	lsl.w	r2, r2, ip
100072a6:	f856 1033 	ldr.w	r1, [r6, r3, lsl #3]
100072aa:	ea4e 0e02 	orr.w	lr, lr, r2
100072ae:	eb06 02c3 	add.w	r2, r6, r3, lsl #3
100072b2:	3a08      	subs	r2, #8
100072b4:	f8c6 e004 	str.w	lr, [r6, #4]
100072b8:	e9c4 1202 	strd	r1, r2, [r4, #8]
100072bc:	f846 4033 	str.w	r4, [r6, r3, lsl #3]
100072c0:	60cc      	str	r4, [r1, #12]
100072c2:	1083      	asrs	r3, r0, #2
100072c4:	f04f 0c01 	mov.w	ip, #1
100072c8:	fa0c fc03 	lsl.w	ip, ip, r3
100072cc:	45f4      	cmp	ip, lr
100072ce:	d834      	bhi.n	1000733a <_malloc_r+0x18e>
100072d0:	ea1c 0f0e 	tst.w	ip, lr
100072d4:	d107      	bne.n	100072e6 <_malloc_r+0x13a>
100072d6:	f020 0003 	bic.w	r0, r0, #3
100072da:	ea4f 0c4c 	mov.w	ip, ip, lsl #1
100072de:	3004      	adds	r0, #4
100072e0:	ea1c 0f0e 	tst.w	ip, lr
100072e4:	d0f9      	beq.n	100072da <_malloc_r+0x12e>
100072e6:	eb06 0ac0 	add.w	sl, r6, r0, lsl #3
100072ea:	4681      	mov	r9, r0
100072ec:	46d6      	mov	lr, sl
100072ee:	f8de 300c 	ldr.w	r3, [lr, #12]
100072f2:	e00b      	b.n	1000730c <_malloc_r+0x160>
100072f4:	685a      	ldr	r2, [r3, #4]
100072f6:	461c      	mov	r4, r3
100072f8:	68db      	ldr	r3, [r3, #12]
100072fa:	f022 0203 	bic.w	r2, r2, #3
100072fe:	1b51      	subs	r1, r2, r5
10007300:	290f      	cmp	r1, #15
10007302:	f300 8101 	bgt.w	10007508 <_malloc_r+0x35c>
10007306:	2900      	cmp	r1, #0
10007308:	f280 8115 	bge.w	10007536 <_malloc_r+0x38a>
1000730c:	459e      	cmp	lr, r3
1000730e:	d1f1      	bne.n	100072f4 <_malloc_r+0x148>
10007310:	f109 0901 	add.w	r9, r9, #1
10007314:	f10e 0e08 	add.w	lr, lr, #8
10007318:	f019 0f03 	tst.w	r9, #3
1000731c:	d1e7      	bne.n	100072ee <_malloc_r+0x142>
1000731e:	e158      	b.n	100075d2 <_malloc_r+0x426>
10007320:	230c      	movs	r3, #12
10007322:	603b      	str	r3, [r7, #0]
10007324:	2400      	movs	r4, #0
10007326:	4620      	mov	r0, r4
10007328:	b003      	add	sp, #12
1000732a:	e8bd 8ff0 	ldmia.w	sp!, {r4, r5, r6, r7, r8, r9, sl, fp, pc}
1000732e:	f44f 7300 	mov.w	r3, #512	@ 0x200
10007332:	2040      	movs	r0, #64	@ 0x40
10007334:	f04f 0e3f 	mov.w	lr, #63	@ 0x3f
10007338:	e77e      	b.n	10007238 <_malloc_r+0x8c>
1000733a:	68b4      	ldr	r4, [r6, #8]
1000733c:	6863      	ldr	r3, [r4, #4]
1000733e:	f023 0903 	bic.w	r9, r3, #3
10007342:	45a9      	cmp	r9, r5
10007344:	eba9 0305 	sub.w	r3, r9, r5
10007348:	d302      	bcc.n	10007350 <_malloc_r+0x1a4>
1000734a:	2b0f      	cmp	r3, #15
1000734c:	f300 8085 	bgt.w	1000745a <_malloc_r+0x2ae>
10007350:	4b5a      	ldr	r3, [pc, #360]	@ (100074bc <_malloc_r+0x310>)
10007352:	2008      	movs	r0, #8
10007354:	681b      	ldr	r3, [r3, #0]
10007356:	f103 0810 	add.w	r8, r3, #16
1000735a:	eb04 0309 	add.w	r3, r4, r9
1000735e:	9300      	str	r3, [sp, #0]
10007360:	f000 fce4 	bl	10007d2c <sysconf>
10007364:	4a56      	ldr	r2, [pc, #344]	@ (100074c0 <_malloc_r+0x314>)
10007366:	44a8      	add	r8, r5
10007368:	4683      	mov	fp, r0
1000736a:	6813      	ldr	r3, [r2, #0]
1000736c:	3301      	adds	r3, #1
1000736e:	d005      	beq.n	1000737c <_malloc_r+0x1d0>
10007370:	f108 38ff 	add.w	r8, r8, #4294967295	@ 0xffffffff
10007374:	4243      	negs	r3, r0
10007376:	4480      	add	r8, r0
10007378:	ea03 0808 	and.w	r8, r3, r8
1000737c:	4641      	mov	r1, r8
1000737e:	4638      	mov	r0, r7
10007380:	f000 fcb8 	bl	10007cf4 <_sbrk_r>
10007384:	f1b0 3fff 	cmp.w	r0, #4294967295	@ 0xffffffff
10007388:	4682      	mov	sl, r0
1000738a:	4a4d      	ldr	r2, [pc, #308]	@ (100074c0 <_malloc_r+0x314>)
1000738c:	f000 8107 	beq.w	1000759e <_malloc_r+0x3f2>
10007390:	eb04 0309 	add.w	r3, r4, r9
10007394:	4283      	cmp	r3, r0
10007396:	f200 8100 	bhi.w	1000759a <_malloc_r+0x3ee>
1000739a:	4b4a      	ldr	r3, [pc, #296]	@ (100074c4 <_malloc_r+0x318>)
1000739c:	f10b 3cff 	add.w	ip, fp, #4294967295	@ 0xffffffff
100073a0:	6818      	ldr	r0, [r3, #0]
100073a2:	4440      	add	r0, r8
100073a4:	6018      	str	r0, [r3, #0]
100073a6:	f000 8164 	beq.w	10007672 <_malloc_r+0x4c6>
100073aa:	6811      	ldr	r1, [r2, #0]
100073ac:	3101      	adds	r1, #1
100073ae:	f000 816c 	beq.w	1000768a <_malloc_r+0x4de>
100073b2:	eb04 0209 	add.w	r2, r4, r9
100073b6:	ebaa 0202 	sub.w	r2, sl, r2
100073ba:	4402      	add	r2, r0
100073bc:	601a      	str	r2, [r3, #0]
100073be:	f01a 0207 	ands.w	r2, sl, #7
100073c2:	e9cd 2300 	strd	r2, r3, [sp]
100073c6:	f000 8127 	beq.w	10007618 <_malloc_r+0x46c>
100073ca:	f1c2 0208 	rsb	r2, r2, #8
100073ce:	4638      	mov	r0, r7
100073d0:	4492      	add	sl, r2
100073d2:	445a      	add	r2, fp
100073d4:	44d0      	add	r8, sl
100073d6:	ea08 010c 	and.w	r1, r8, ip
100073da:	1a52      	subs	r2, r2, r1
100073dc:	ea02 0b0c 	and.w	fp, r2, ip
100073e0:	4659      	mov	r1, fp
100073e2:	f000 fc87 	bl	10007cf4 <_sbrk_r>
100073e6:	1c42      	adds	r2, r0, #1
100073e8:	9b01      	ldr	r3, [sp, #4]
100073ea:	f000 816a 	beq.w	100076c2 <_malloc_r+0x516>
100073ee:	eba0 000a 	sub.w	r0, r0, sl
100073f2:	eb00 080b 	add.w	r8, r0, fp
100073f6:	6818      	ldr	r0, [r3, #0]
100073f8:	f048 0201 	orr.w	r2, r8, #1
100073fc:	42b4      	cmp	r4, r6
100073fe:	f8c6 a008 	str.w	sl, [r6, #8]
10007402:	4458      	add	r0, fp
10007404:	f8ca 2004 	str.w	r2, [sl, #4]
10007408:	6018      	str	r0, [r3, #0]
1000740a:	d017      	beq.n	1000743c <_malloc_r+0x290>
1000740c:	f1b9 0f0f 	cmp.w	r9, #15
10007410:	f240 813e 	bls.w	10007690 <_malloc_r+0x4e4>
10007414:	6861      	ldr	r1, [r4, #4]
10007416:	f1a9 020c 	sub.w	r2, r9, #12
1000741a:	f04f 0c05 	mov.w	ip, #5
1000741e:	f022 0207 	bic.w	r2, r2, #7
10007422:	f001 0101 	and.w	r1, r1, #1
10007426:	4311      	orrs	r1, r2
10007428:	2a0f      	cmp	r2, #15
1000742a:	6061      	str	r1, [r4, #4]
1000742c:	eb04 0102 	add.w	r1, r4, r2
10007430:	e9c1 cc01 	strd	ip, ip, [r1, #4]
10007434:	f200 814d 	bhi.w	100076d2 <_malloc_r+0x526>
10007438:	f8da 2004 	ldr.w	r2, [sl, #4]
1000743c:	4b22      	ldr	r3, [pc, #136]	@ (100074c8 <_malloc_r+0x31c>)
1000743e:	4654      	mov	r4, sl
10007440:	6819      	ldr	r1, [r3, #0]
10007442:	4281      	cmp	r1, r0
10007444:	bf38      	it	cc
10007446:	6018      	strcc	r0, [r3, #0]
10007448:	4b20      	ldr	r3, [pc, #128]	@ (100074cc <_malloc_r+0x320>)
1000744a:	6819      	ldr	r1, [r3, #0]
1000744c:	4281      	cmp	r1, r0
1000744e:	bf38      	it	cc
10007450:	6018      	strcc	r0, [r3, #0]
10007452:	e0a6      	b.n	100075a2 <_malloc_r+0x3f6>
10007454:	f8d6 e004 	ldr.w	lr, [r6, #4]
10007458:	e733      	b.n	100072c2 <_malloc_r+0x116>
1000745a:	1962      	adds	r2, r4, r5
1000745c:	f045 0501 	orr.w	r5, r5, #1
10007460:	f043 0301 	orr.w	r3, r3, #1
10007464:	3408      	adds	r4, #8
10007466:	f844 5c04 	str.w	r5, [r4, #-4]
1000746a:	4638      	mov	r0, r7
1000746c:	60b2      	str	r2, [r6, #8]
1000746e:	6053      	str	r3, [r2, #4]
10007470:	f000 f95e 	bl	10007730 <__malloc_unlock>
10007474:	4620      	mov	r0, r4
10007476:	b003      	add	sp, #12
10007478:	e8bd 8ff0 	ldmia.w	sp!, {r4, r5, r6, r7, r8, r9, sl, fp, pc}
1000747c:	68a2      	ldr	r2, [r4, #8]
1000747e:	4423      	add	r3, r4
10007480:	4638      	mov	r0, r7
10007482:	60d1      	str	r1, [r2, #12]
10007484:	608a      	str	r2, [r1, #8]
10007486:	e6b2      	b.n	100071ee <_malloc_r+0x42>
10007488:	68dc      	ldr	r4, [r3, #12]
1000748a:	42a3      	cmp	r3, r4
1000748c:	f47f aea6 	bne.w	100071dc <_malloc_r+0x30>
10007490:	3002      	adds	r0, #2
10007492:	e6e7      	b.n	10007264 <_malloc_r+0xb8>
10007494:	f5bc 6f20 	cmp.w	ip, #2560	@ 0xa00
10007498:	ea4f 225c 	mov.w	r2, ip, lsr #9
1000749c:	d376      	bcc.n	1000758c <_malloc_r+0x3e0>
1000749e:	2a14      	cmp	r2, #20
100074a0:	f200 80cd 	bhi.w	1000763e <_malloc_r+0x492>
100074a4:	f102 035c 	add.w	r3, r2, #92	@ 0x5c
100074a8:	325b      	adds	r2, #91	@ 0x5b
100074aa:	00db      	lsls	r3, r3, #3
100074ac:	18f1      	adds	r1, r6, r3
100074ae:	58f3      	ldr	r3, [r6, r3]
100074b0:	3908      	subs	r1, #8
100074b2:	4299      	cmp	r1, r3
100074b4:	d111      	bne.n	100074da <_malloc_r+0x32e>
100074b6:	e0a5      	b.n	10007604 <_malloc_r+0x458>
100074b8:	20000668 	.word	0x20000668
100074bc:	20000fb4 	.word	0x20000fb4
100074c0:	20000660 	.word	0x20000660
100074c4:	20000f84 	.word	0x20000f84
100074c8:	20000fac 	.word	0x20000fac
100074cc:	20000fb0 	.word	0x20000fb0
100074d0:	20000670 	.word	0x20000670
100074d4:	689b      	ldr	r3, [r3, #8]
100074d6:	4299      	cmp	r1, r3
100074d8:	d004      	beq.n	100074e4 <_malloc_r+0x338>
100074da:	685a      	ldr	r2, [r3, #4]
100074dc:	f022 0203 	bic.w	r2, r2, #3
100074e0:	4562      	cmp	r2, ip
100074e2:	d8f7      	bhi.n	100074d4 <_malloc_r+0x328>
100074e4:	68d9      	ldr	r1, [r3, #12]
100074e6:	e9c4 3102 	strd	r3, r1, [r4, #8]
100074ea:	608c      	str	r4, [r1, #8]
100074ec:	60dc      	str	r4, [r3, #12]
100074ee:	e6e8      	b.n	100072c2 <_malloc_r+0x116>
100074f0:	2b14      	cmp	r3, #20
100074f2:	d963      	bls.n	100075bc <_malloc_r+0x410>
100074f4:	2b54      	cmp	r3, #84	@ 0x54
100074f6:	f200 80ab 	bhi.w	10007650 <_malloc_r+0x4a4>
100074fa:	0b2b      	lsrs	r3, r5, #12
100074fc:	f103 006f 	add.w	r0, r3, #111	@ 0x6f
10007500:	f103 0e6e 	add.w	lr, r3, #110	@ 0x6e
10007504:	00c3      	lsls	r3, r0, #3
10007506:	e697      	b.n	10007238 <_malloc_r+0x8c>
10007508:	f8d4 c008 	ldr.w	ip, [r4, #8]
1000750c:	4638      	mov	r0, r7
1000750e:	1967      	adds	r7, r4, r5
10007510:	f045 0501 	orr.w	r5, r5, #1
10007514:	6065      	str	r5, [r4, #4]
10007516:	f8cc 300c 	str.w	r3, [ip, #12]
1000751a:	f8c3 c008 	str.w	ip, [r3, #8]
1000751e:	f041 0301 	orr.w	r3, r1, #1
10007522:	e9c6 7704 	strd	r7, r7, [r6, #16]
10007526:	e9c7 8802 	strd	r8, r8, [r7, #8]
1000752a:	607b      	str	r3, [r7, #4]
1000752c:	50a1      	str	r1, [r4, r2]
1000752e:	3408      	adds	r4, #8
10007530:	f000 f8fe 	bl	10007730 <__malloc_unlock>
10007534:	e6f7      	b.n	10007326 <_malloc_r+0x17a>
10007536:	4422      	add	r2, r4
10007538:	4638      	mov	r0, r7
1000753a:	6851      	ldr	r1, [r2, #4]
1000753c:	f041 0101 	orr.w	r1, r1, #1
10007540:	6051      	str	r1, [r2, #4]
10007542:	f854 2f08 	ldr.w	r2, [r4, #8]!
10007546:	60d3      	str	r3, [r2, #12]
10007548:	609a      	str	r2, [r3, #8]
1000754a:	f000 f8f1 	bl	10007730 <__malloc_unlock>
1000754e:	e6ea      	b.n	10007326 <_malloc_r+0x17a>
10007550:	44a4      	add	ip, r4
10007552:	4638      	mov	r0, r7
10007554:	3408      	adds	r4, #8
10007556:	f8dc 3004 	ldr.w	r3, [ip, #4]
1000755a:	f043 0301 	orr.w	r3, r3, #1
1000755e:	f8cc 3004 	str.w	r3, [ip, #4]
10007562:	f000 f8e5 	bl	10007730 <__malloc_unlock>
10007566:	e6de      	b.n	10007326 <_malloc_r+0x17a>
10007568:	1962      	adds	r2, r4, r5
1000756a:	f043 0101 	orr.w	r1, r3, #1
1000756e:	f045 0501 	orr.w	r5, r5, #1
10007572:	4638      	mov	r0, r7
10007574:	6065      	str	r5, [r4, #4]
10007576:	e9c6 2204 	strd	r2, r2, [r6, #16]
1000757a:	e9c2 8802 	strd	r8, r8, [r2, #8]
1000757e:	6051      	str	r1, [r2, #4]
10007580:	f844 300c 	str.w	r3, [r4, ip]
10007584:	3408      	adds	r4, #8
10007586:	f000 f8d3 	bl	10007730 <__malloc_unlock>
1000758a:	e6cc      	b.n	10007326 <_malloc_r+0x17a>
1000758c:	ea4f 129c 	mov.w	r2, ip, lsr #6
10007590:	f102 0339 	add.w	r3, r2, #57	@ 0x39
10007594:	3238      	adds	r2, #56	@ 0x38
10007596:	00db      	lsls	r3, r3, #3
10007598:	e788      	b.n	100074ac <_malloc_r+0x300>
1000759a:	42b4      	cmp	r4, r6
1000759c:	d062      	beq.n	10007664 <_malloc_r+0x4b8>
1000759e:	68b4      	ldr	r4, [r6, #8]
100075a0:	6862      	ldr	r2, [r4, #4]
100075a2:	f022 0803 	bic.w	r8, r2, #3
100075a6:	45a8      	cmp	r8, r5
100075a8:	eba8 0305 	sub.w	r3, r8, r5
100075ac:	d302      	bcc.n	100075b4 <_malloc_r+0x408>
100075ae:	2b0f      	cmp	r3, #15
100075b0:	f73f af53 	bgt.w	1000745a <_malloc_r+0x2ae>
100075b4:	4638      	mov	r0, r7
100075b6:	f000 f8bb 	bl	10007730 <__malloc_unlock>
100075ba:	e6b3      	b.n	10007324 <_malloc_r+0x178>
100075bc:	f103 005c 	add.w	r0, r3, #92	@ 0x5c
100075c0:	f103 0e5b 	add.w	lr, r3, #91	@ 0x5b
100075c4:	00c3      	lsls	r3, r0, #3
100075c6:	e637      	b.n	10007238 <_malloc_r+0x8c>
100075c8:	f85a 3908 	ldr.w	r3, [sl], #-8
100075cc:	4553      	cmp	r3, sl
100075ce:	f040 80a0 	bne.w	10007712 <_malloc_r+0x566>
100075d2:	f010 0f03 	tst.w	r0, #3
100075d6:	f100 30ff 	add.w	r0, r0, #4294967295	@ 0xffffffff
100075da:	d1f5      	bne.n	100075c8 <_malloc_r+0x41c>
100075dc:	6873      	ldr	r3, [r6, #4]
100075de:	ea23 030c 	bic.w	r3, r3, ip
100075e2:	6073      	str	r3, [r6, #4]
100075e4:	ea4f 0c4c 	mov.w	ip, ip, lsl #1
100075e8:	f10c 32ff 	add.w	r2, ip, #4294967295	@ 0xffffffff
100075ec:	429a      	cmp	r2, r3
100075ee:	d304      	bcc.n	100075fa <_malloc_r+0x44e>
100075f0:	e6a3      	b.n	1000733a <_malloc_r+0x18e>
100075f2:	ea4f 0c4c 	mov.w	ip, ip, lsl #1
100075f6:	f109 0904 	add.w	r9, r9, #4
100075fa:	ea1c 0f03 	tst.w	ip, r3
100075fe:	d0f8      	beq.n	100075f2 <_malloc_r+0x446>
10007600:	4648      	mov	r0, r9
10007602:	e670      	b.n	100072e6 <_malloc_r+0x13a>
10007604:	1092      	asrs	r2, r2, #2
10007606:	f04f 0c01 	mov.w	ip, #1
1000760a:	fa0c f202 	lsl.w	r2, ip, r2
1000760e:	ea4e 0e02 	orr.w	lr, lr, r2
10007612:	f8c6 e004 	str.w	lr, [r6, #4]
10007616:	e766      	b.n	100074e6 <_malloc_r+0x33a>
10007618:	eb0a 0208 	add.w	r2, sl, r8
1000761c:	4638      	mov	r0, r7
1000761e:	ea02 020c 	and.w	r2, r2, ip
10007622:	ebab 0b02 	sub.w	fp, fp, r2
10007626:	ea0b 0b0c 	and.w	fp, fp, ip
1000762a:	4659      	mov	r1, fp
1000762c:	f000 fb62 	bl	10007cf4 <_sbrk_r>
10007630:	1c43      	adds	r3, r0, #1
10007632:	9b01      	ldr	r3, [sp, #4]
10007634:	f47f aedb 	bne.w	100073ee <_malloc_r+0x242>
10007638:	f8dd b000 	ldr.w	fp, [sp]
1000763c:	e6db      	b.n	100073f6 <_malloc_r+0x24a>
1000763e:	2a54      	cmp	r2, #84	@ 0x54
10007640:	d82a      	bhi.n	10007698 <_malloc_r+0x4ec>
10007642:	ea4f 321c 	mov.w	r2, ip, lsr #12
10007646:	f102 036f 	add.w	r3, r2, #111	@ 0x6f
1000764a:	326e      	adds	r2, #110	@ 0x6e
1000764c:	00db      	lsls	r3, r3, #3
1000764e:	e72d      	b.n	100074ac <_malloc_r+0x300>
10007650:	f5b3 7faa 	cmp.w	r3, #340	@ 0x154
10007654:	d82a      	bhi.n	100076ac <_malloc_r+0x500>
10007656:	0beb      	lsrs	r3, r5, #15
10007658:	f103 0078 	add.w	r0, r3, #120	@ 0x78
1000765c:	f103 0e77 	add.w	lr, r3, #119	@ 0x77
10007660:	00c3      	lsls	r3, r0, #3
10007662:	e5e9      	b.n	10007238 <_malloc_r+0x8c>
10007664:	4b2e      	ldr	r3, [pc, #184]	@ (10007720 <_malloc_r+0x574>)
10007666:	f10b 3cff 	add.w	ip, fp, #4294967295	@ 0xffffffff
1000766a:	6818      	ldr	r0, [r3, #0]
1000766c:	4440      	add	r0, r8
1000766e:	6018      	str	r0, [r3, #0]
10007670:	e69b      	b.n	100073aa <_malloc_r+0x1fe>
10007672:	ea1a 0f0c 	tst.w	sl, ip
10007676:	f47f ae98 	bne.w	100073aa <_malloc_r+0x1fe>
1000767a:	44c8      	add	r8, r9
1000767c:	f8d6 a008 	ldr.w	sl, [r6, #8]
10007680:	f048 0201 	orr.w	r2, r8, #1
10007684:	f8ca 2004 	str.w	r2, [sl, #4]
10007688:	e6d8      	b.n	1000743c <_malloc_r+0x290>
1000768a:	f8c2 a000 	str.w	sl, [r2]
1000768e:	e696      	b.n	100073be <_malloc_r+0x212>
10007690:	2301      	movs	r3, #1
10007692:	f8ca 3004 	str.w	r3, [sl, #4]
10007696:	e78d      	b.n	100075b4 <_malloc_r+0x408>
10007698:	f5b2 7faa 	cmp.w	r2, #340	@ 0x154
1000769c:	d824      	bhi.n	100076e8 <_malloc_r+0x53c>
1000769e:	ea4f 32dc 	mov.w	r2, ip, lsr #15
100076a2:	f102 0378 	add.w	r3, r2, #120	@ 0x78
100076a6:	3277      	adds	r2, #119	@ 0x77
100076a8:	00db      	lsls	r3, r3, #3
100076aa:	e6ff      	b.n	100074ac <_malloc_r+0x300>
100076ac:	f240 5254 	movw	r2, #1364	@ 0x554
100076b0:	4293      	cmp	r3, r2
100076b2:	d824      	bhi.n	100076fe <_malloc_r+0x552>
100076b4:	0cab      	lsrs	r3, r5, #18
100076b6:	f103 007d 	add.w	r0, r3, #125	@ 0x7d
100076ba:	f103 0e7c 	add.w	lr, r3, #124	@ 0x7c
100076be:	00c3      	lsls	r3, r0, #3
100076c0:	e5ba      	b.n	10007238 <_malloc_r+0x8c>
100076c2:	9a00      	ldr	r2, [sp, #0]
100076c4:	f04f 0b00 	mov.w	fp, #0
100076c8:	3a08      	subs	r2, #8
100076ca:	4490      	add	r8, r2
100076cc:	eba8 080a 	sub.w	r8, r8, sl
100076d0:	e691      	b.n	100073f6 <_malloc_r+0x24a>
100076d2:	4638      	mov	r0, r7
100076d4:	f104 0108 	add.w	r1, r4, #8
100076d8:	9300      	str	r3, [sp, #0]
100076da:	f000 fd13 	bl	10008104 <_free_r>
100076de:	9b00      	ldr	r3, [sp, #0]
100076e0:	f8d6 a008 	ldr.w	sl, [r6, #8]
100076e4:	6818      	ldr	r0, [r3, #0]
100076e6:	e6a7      	b.n	10007438 <_malloc_r+0x28c>
100076e8:	f240 5354 	movw	r3, #1364	@ 0x554
100076ec:	429a      	cmp	r2, r3
100076ee:	d80c      	bhi.n	1000770a <_malloc_r+0x55e>
100076f0:	ea4f 429c 	mov.w	r2, ip, lsr #18
100076f4:	f102 037d 	add.w	r3, r2, #125	@ 0x7d
100076f8:	327c      	adds	r2, #124	@ 0x7c
100076fa:	00db      	lsls	r3, r3, #3
100076fc:	e6d6      	b.n	100074ac <_malloc_r+0x300>
100076fe:	f44f 737e 	mov.w	r3, #1016	@ 0x3f8
10007702:	207f      	movs	r0, #127	@ 0x7f
10007704:	f04f 0e7e 	mov.w	lr, #126	@ 0x7e
10007708:	e596      	b.n	10007238 <_malloc_r+0x8c>
1000770a:	f44f 737e 	mov.w	r3, #1016	@ 0x3f8
1000770e:	227e      	movs	r2, #126	@ 0x7e
10007710:	e6cc      	b.n	100074ac <_malloc_r+0x300>
10007712:	6873      	ldr	r3, [r6, #4]
10007714:	e766      	b.n	100075e4 <_malloc_r+0x438>
10007716:	08e8      	lsrs	r0, r5, #3
10007718:	f105 0308 	add.w	r3, r5, #8
1000771c:	e556      	b.n	100071cc <_malloc_r+0x20>
1000771e:	bf00      	nop
10007720:	20000f84 	.word	0x20000f84

10007724 <__malloc_lock>:
10007724:	4801      	ldr	r0, [pc, #4]	@ (1000772c <__malloc_lock+0x8>)
10007726:	f000 bafd 	b.w	10007d24 <__retarget_lock_acquire_recursive>
1000772a:	bf00      	nop
1000772c:	20000f80 	.word	0x20000f80

10007730 <__malloc_unlock>:
10007730:	4801      	ldr	r0, [pc, #4]	@ (10007738 <__malloc_unlock+0x8>)
10007732:	f000 baf9 	b.w	10007d28 <__retarget_lock_release_recursive>
10007736:	bf00      	nop
10007738:	20000f80 	.word	0x20000f80

1000773c <rand>:
1000773c:	4b0c      	ldr	r3, [pc, #48]	@ (10007770 <rand+0x34>)
1000773e:	480d      	ldr	r0, [pc, #52]	@ (10007774 <rand+0x38>)
10007740:	6819      	ldr	r1, [r3, #0]
10007742:	4a0d      	ldr	r2, [pc, #52]	@ (10007778 <rand+0x3c>)
10007744:	f8d1 3098 	ldr.w	r3, [r1, #152]	@ 0x98
10007748:	b410      	push	{r4}
1000774a:	fb03 f000 	mul.w	r0, r3, r0
1000774e:	f8d1 409c 	ldr.w	r4, [r1, #156]	@ 0x9c
10007752:	fb02 0004 	mla	r0, r2, r4, r0
10007756:	f85d 4b04 	ldr.w	r4, [sp], #4
1000775a:	fba3 3202 	umull	r3, r2, r3, r2
1000775e:	3301      	adds	r3, #1
10007760:	eb40 0002 	adc.w	r0, r0, r2
10007764:	e9c1 3026 	strd	r3, r0, [r1, #152]	@ 0x98
10007768:	f020 4000 	bic.w	r0, r0, #2147483648	@ 0x80000000
1000776c:	4770      	bx	lr
1000776e:	bf00      	nop
10007770:	20000a70 	.word	0x20000a70
10007774:	5851f42d 	.word	0x5851f42d
10007778:	4c957f2d 	.word	0x4c957f2d

1000777c <realloc>:
1000777c:	4b02      	ldr	r3, [pc, #8]	@ (10007788 <realloc+0xc>)
1000777e:	460a      	mov	r2, r1
10007780:	4601      	mov	r1, r0
10007782:	6818      	ldr	r0, [r3, #0]
10007784:	f000 b802 	b.w	1000778c <_realloc_r>
10007788:	20000a70 	.word	0x20000a70

1000778c <_realloc_r>:
1000778c:	e92d 4ff0 	stmdb	sp!, {r4, r5, r6, r7, r8, r9, sl, fp, lr}
10007790:	4616      	mov	r6, r2
10007792:	b083      	sub	sp, #12
10007794:	2900      	cmp	r1, #0
10007796:	f000 809e 	beq.w	100078d6 <_realloc_r+0x14a>
1000779a:	460c      	mov	r4, r1
1000779c:	f106 050b 	add.w	r5, r6, #11
100077a0:	4680      	mov	r8, r0
100077a2:	f7ff ffbf 	bl	10007724 <__malloc_lock>
100077a6:	f854 0c04 	ldr.w	r0, [r4, #-4]
100077aa:	2d16      	cmp	r5, #22
100077ac:	f1a4 0908 	sub.w	r9, r4, #8
100077b0:	f020 0703 	bic.w	r7, r0, #3
100077b4:	d862      	bhi.n	1000787c <_realloc_r+0xf0>
100077b6:	2210      	movs	r2, #16
100077b8:	2300      	movs	r3, #0
100077ba:	4615      	mov	r5, r2
100077bc:	42b5      	cmp	r5, r6
100077be:	f0c0 80a2 	bcc.w	10007906 <_realloc_r+0x17a>
100077c2:	2b00      	cmp	r3, #0
100077c4:	f040 809f 	bne.w	10007906 <_realloc_r+0x17a>
100077c8:	4297      	cmp	r7, r2
100077ca:	da61      	bge.n	10007890 <_realloc_r+0x104>
100077cc:	f8df b32c 	ldr.w	fp, [pc, #812]	@ 10007afc <_realloc_r+0x370>
100077d0:	eb09 0107 	add.w	r1, r9, r7
100077d4:	f8db 3008 	ldr.w	r3, [fp, #8]
100077d8:	f8d1 c004 	ldr.w	ip, [r1, #4]
100077dc:	428b      	cmp	r3, r1
100077de:	f000 809a 	beq.w	10007916 <_realloc_r+0x18a>
100077e2:	f02c 0301 	bic.w	r3, ip, #1
100077e6:	440b      	add	r3, r1
100077e8:	685b      	ldr	r3, [r3, #4]
100077ea:	07db      	lsls	r3, r3, #31
100077ec:	d468      	bmi.n	100078c0 <_realloc_r+0x134>
100077ee:	f02c 0c03 	bic.w	ip, ip, #3
100077f2:	eb07 030c 	add.w	r3, r7, ip
100077f6:	4293      	cmp	r3, r2
100077f8:	da45      	bge.n	10007886 <_realloc_r+0xfa>
100077fa:	07c3      	lsls	r3, r0, #31
100077fc:	d412      	bmi.n	10007824 <_realloc_r+0x98>
100077fe:	f854 3c08 	ldr.w	r3, [r4, #-8]
10007802:	eba9 0a03 	sub.w	sl, r9, r3
10007806:	f8da 3004 	ldr.w	r3, [sl, #4]
1000780a:	f023 0003 	bic.w	r0, r3, #3
1000780e:	4484      	add	ip, r0
10007810:	eb0c 0b07 	add.w	fp, ip, r7
10007814:	455a      	cmp	r2, fp
10007816:	f340 8101 	ble.w	10007a1c <_realloc_r+0x290>
1000781a:	eb07 0b00 	add.w	fp, r7, r0
1000781e:	455a      	cmp	r2, fp
10007820:	f340 80d7 	ble.w	100079d2 <_realloc_r+0x246>
10007824:	4631      	mov	r1, r6
10007826:	4640      	mov	r0, r8
10007828:	f7ff fcc0 	bl	100071ac <_malloc_r>
1000782c:	4606      	mov	r6, r0
1000782e:	2800      	cmp	r0, #0
10007830:	f000 812c 	beq.w	10007a8c <_realloc_r+0x300>
10007834:	f854 3c04 	ldr.w	r3, [r4, #-4]
10007838:	f1a0 0208 	sub.w	r2, r0, #8
1000783c:	f023 0301 	bic.w	r3, r3, #1
10007840:	444b      	add	r3, r9
10007842:	4293      	cmp	r3, r2
10007844:	f000 80b4 	beq.w	100079b0 <_realloc_r+0x224>
10007848:	1f3a      	subs	r2, r7, #4
1000784a:	2a24      	cmp	r2, #36	@ 0x24
1000784c:	f200 80e2 	bhi.w	10007a14 <_realloc_r+0x288>
10007850:	2a13      	cmp	r2, #19
10007852:	f200 80b3 	bhi.w	100079bc <_realloc_r+0x230>
10007856:	4603      	mov	r3, r0
10007858:	4622      	mov	r2, r4
1000785a:	6811      	ldr	r1, [r2, #0]
1000785c:	6019      	str	r1, [r3, #0]
1000785e:	6851      	ldr	r1, [r2, #4]
10007860:	6059      	str	r1, [r3, #4]
10007862:	6892      	ldr	r2, [r2, #8]
10007864:	609a      	str	r2, [r3, #8]
10007866:	4621      	mov	r1, r4
10007868:	4640      	mov	r0, r8
1000786a:	f000 fc4b 	bl	10008104 <_free_r>
1000786e:	4640      	mov	r0, r8
10007870:	f7ff ff5e 	bl	10007730 <__malloc_unlock>
10007874:	4630      	mov	r0, r6
10007876:	b003      	add	sp, #12
10007878:	e8bd 8ff0 	ldmia.w	sp!, {r4, r5, r6, r7, r8, r9, sl, fp, pc}
1000787c:	f025 0507 	bic.w	r5, r5, #7
10007880:	462a      	mov	r2, r5
10007882:	0feb      	lsrs	r3, r5, #31
10007884:	e79a      	b.n	100077bc <_realloc_r+0x30>
10007886:	461f      	mov	r7, r3
10007888:	e9d1 2302 	ldrd	r2, r3, [r1, #8]
1000788c:	60d3      	str	r3, [r2, #12]
1000788e:	609a      	str	r2, [r3, #8]
10007890:	1b78      	subs	r0, r7, r5
10007892:	f8d9 3004 	ldr.w	r3, [r9, #4]
10007896:	eb09 0207 	add.w	r2, r9, r7
1000789a:	280f      	cmp	r0, #15
1000789c:	f003 0301 	and.w	r3, r3, #1
100078a0:	d81f      	bhi.n	100078e2 <_realloc_r+0x156>
100078a2:	433b      	orrs	r3, r7
100078a4:	f8c9 3004 	str.w	r3, [r9, #4]
100078a8:	6853      	ldr	r3, [r2, #4]
100078aa:	f043 0301 	orr.w	r3, r3, #1
100078ae:	6053      	str	r3, [r2, #4]
100078b0:	4626      	mov	r6, r4
100078b2:	4640      	mov	r0, r8
100078b4:	f7ff ff3c 	bl	10007730 <__malloc_unlock>
100078b8:	4630      	mov	r0, r6
100078ba:	b003      	add	sp, #12
100078bc:	e8bd 8ff0 	ldmia.w	sp!, {r4, r5, r6, r7, r8, r9, sl, fp, pc}
100078c0:	07c3      	lsls	r3, r0, #31
100078c2:	d4af      	bmi.n	10007824 <_realloc_r+0x98>
100078c4:	f854 3c08 	ldr.w	r3, [r4, #-8]
100078c8:	eba9 0a03 	sub.w	sl, r9, r3
100078cc:	f8da 3004 	ldr.w	r3, [sl, #4]
100078d0:	f023 0003 	bic.w	r0, r3, #3
100078d4:	e7a1      	b.n	1000781a <_realloc_r+0x8e>
100078d6:	4611      	mov	r1, r2
100078d8:	b003      	add	sp, #12
100078da:	e8bd 4ff0 	ldmia.w	sp!, {r4, r5, r6, r7, r8, r9, sl, fp, lr}
100078de:	f7ff bc65 	b.w	100071ac <_malloc_r>
100078e2:	432b      	orrs	r3, r5
100078e4:	eb09 0105 	add.w	r1, r9, r5
100078e8:	f040 0001 	orr.w	r0, r0, #1
100078ec:	f8c9 3004 	str.w	r3, [r9, #4]
100078f0:	3108      	adds	r1, #8
100078f2:	f841 0c04 	str.w	r0, [r1, #-4]
100078f6:	4640      	mov	r0, r8
100078f8:	6853      	ldr	r3, [r2, #4]
100078fa:	f043 0301 	orr.w	r3, r3, #1
100078fe:	6053      	str	r3, [r2, #4]
10007900:	f000 fc00 	bl	10008104 <_free_r>
10007904:	e7d4      	b.n	100078b0 <_realloc_r+0x124>
10007906:	230c      	movs	r3, #12
10007908:	f8c8 3000 	str.w	r3, [r8]
1000790c:	2600      	movs	r6, #0
1000790e:	4630      	mov	r0, r6
10007910:	b003      	add	sp, #12
10007912:	e8bd 8ff0 	ldmia.w	sp!, {r4, r5, r6, r7, r8, r9, sl, fp, pc}
10007916:	f02c 0c03 	bic.w	ip, ip, #3
1000791a:	f105 0110 	add.w	r1, r5, #16
1000791e:	eb0c 0307 	add.w	r3, ip, r7
10007922:	428b      	cmp	r3, r1
10007924:	f280 8092 	bge.w	10007a4c <_realloc_r+0x2c0>
10007928:	07c0      	lsls	r0, r0, #31
1000792a:	f53f af7b 	bmi.w	10007824 <_realloc_r+0x98>
1000792e:	f854 3c08 	ldr.w	r3, [r4, #-8]
10007932:	eba9 0a03 	sub.w	sl, r9, r3
10007936:	f8da 3004 	ldr.w	r3, [sl, #4]
1000793a:	f023 0003 	bic.w	r0, r3, #3
1000793e:	4484      	add	ip, r0
10007940:	eb0c 0307 	add.w	r3, ip, r7
10007944:	4299      	cmp	r1, r3
10007946:	f73f af68 	bgt.w	1000781a <_realloc_r+0x8e>
1000794a:	1f3a      	subs	r2, r7, #4
1000794c:	4656      	mov	r6, sl
1000794e:	f8da 100c 	ldr.w	r1, [sl, #12]
10007952:	f856 0f08 	ldr.w	r0, [r6, #8]!
10007956:	2a24      	cmp	r2, #36	@ 0x24
10007958:	60c1      	str	r1, [r0, #12]
1000795a:	6088      	str	r0, [r1, #8]
1000795c:	f200 80b0 	bhi.w	10007ac0 <_realloc_r+0x334>
10007960:	2a13      	cmp	r2, #19
10007962:	f240 80ab 	bls.w	10007abc <_realloc_r+0x330>
10007966:	6821      	ldr	r1, [r4, #0]
10007968:	2a1b      	cmp	r2, #27
1000796a:	f8ca 1008 	str.w	r1, [sl, #8]
1000796e:	6861      	ldr	r1, [r4, #4]
10007970:	f8ca 100c 	str.w	r1, [sl, #12]
10007974:	f200 80ab 	bhi.w	10007ace <_realloc_r+0x342>
10007978:	3408      	adds	r4, #8
1000797a:	f10a 0210 	add.w	r2, sl, #16
1000797e:	6821      	ldr	r1, [r4, #0]
10007980:	6011      	str	r1, [r2, #0]
10007982:	6861      	ldr	r1, [r4, #4]
10007984:	6051      	str	r1, [r2, #4]
10007986:	68a1      	ldr	r1, [r4, #8]
10007988:	6091      	str	r1, [r2, #8]
1000798a:	1b5b      	subs	r3, r3, r5
1000798c:	eb0a 0205 	add.w	r2, sl, r5
10007990:	4640      	mov	r0, r8
10007992:	f043 0301 	orr.w	r3, r3, #1
10007996:	f8cb 2008 	str.w	r2, [fp, #8]
1000799a:	6053      	str	r3, [r2, #4]
1000799c:	f8da 3004 	ldr.w	r3, [sl, #4]
100079a0:	f003 0301 	and.w	r3, r3, #1
100079a4:	432b      	orrs	r3, r5
100079a6:	f8ca 3004 	str.w	r3, [sl, #4]
100079aa:	f7ff fec1 	bl	10007730 <__malloc_unlock>
100079ae:	e783      	b.n	100078b8 <_realloc_r+0x12c>
100079b0:	f850 3c04 	ldr.w	r3, [r0, #-4]
100079b4:	f023 0303 	bic.w	r3, r3, #3
100079b8:	441f      	add	r7, r3
100079ba:	e769      	b.n	10007890 <_realloc_r+0x104>
100079bc:	6823      	ldr	r3, [r4, #0]
100079be:	2a1b      	cmp	r2, #27
100079c0:	6003      	str	r3, [r0, #0]
100079c2:	6863      	ldr	r3, [r4, #4]
100079c4:	6043      	str	r3, [r0, #4]
100079c6:	d836      	bhi.n	10007a36 <_realloc_r+0x2aa>
100079c8:	f104 0208 	add.w	r2, r4, #8
100079cc:	f100 0308 	add.w	r3, r0, #8
100079d0:	e743      	b.n	1000785a <_realloc_r+0xce>
100079d2:	1f3a      	subs	r2, r7, #4
100079d4:	4656      	mov	r6, sl
100079d6:	f8da 300c 	ldr.w	r3, [sl, #12]
100079da:	2a24      	cmp	r2, #36	@ 0x24
100079dc:	f856 1f08 	ldr.w	r1, [r6, #8]!
100079e0:	60cb      	str	r3, [r1, #12]
100079e2:	6099      	str	r1, [r3, #8]
100079e4:	d822      	bhi.n	10007a2c <_realloc_r+0x2a0>
100079e6:	2a13      	cmp	r2, #19
100079e8:	d91e      	bls.n	10007a28 <_realloc_r+0x29c>
100079ea:	6823      	ldr	r3, [r4, #0]
100079ec:	2a1b      	cmp	r2, #27
100079ee:	f8ca 3008 	str.w	r3, [sl, #8]
100079f2:	6863      	ldr	r3, [r4, #4]
100079f4:	f8ca 300c 	str.w	r3, [sl, #12]
100079f8:	d83c      	bhi.n	10007a74 <_realloc_r+0x2e8>
100079fa:	3408      	adds	r4, #8
100079fc:	f10a 0310 	add.w	r3, sl, #16
10007a00:	6822      	ldr	r2, [r4, #0]
10007a02:	601a      	str	r2, [r3, #0]
10007a04:	6862      	ldr	r2, [r4, #4]
10007a06:	605a      	str	r2, [r3, #4]
10007a08:	68a2      	ldr	r2, [r4, #8]
10007a0a:	609a      	str	r2, [r3, #8]
10007a0c:	4634      	mov	r4, r6
10007a0e:	465f      	mov	r7, fp
10007a10:	46d1      	mov	r9, sl
10007a12:	e73d      	b.n	10007890 <_realloc_r+0x104>
10007a14:	4621      	mov	r1, r4
10007a16:	f000 f8a1 	bl	10007b5c <memmove>
10007a1a:	e724      	b.n	10007866 <_realloc_r+0xda>
10007a1c:	e9d1 1302 	ldrd	r1, r3, [r1, #8]
10007a20:	1f3a      	subs	r2, r7, #4
10007a22:	60cb      	str	r3, [r1, #12]
10007a24:	6099      	str	r1, [r3, #8]
10007a26:	e7d5      	b.n	100079d4 <_realloc_r+0x248>
10007a28:	4633      	mov	r3, r6
10007a2a:	e7e9      	b.n	10007a00 <_realloc_r+0x274>
10007a2c:	4621      	mov	r1, r4
10007a2e:	4630      	mov	r0, r6
10007a30:	f000 f894 	bl	10007b5c <memmove>
10007a34:	e7ea      	b.n	10007a0c <_realloc_r+0x280>
10007a36:	68a3      	ldr	r3, [r4, #8]
10007a38:	2a24      	cmp	r2, #36	@ 0x24
10007a3a:	6083      	str	r3, [r0, #8]
10007a3c:	68e3      	ldr	r3, [r4, #12]
10007a3e:	60c3      	str	r3, [r0, #12]
10007a40:	d028      	beq.n	10007a94 <_realloc_r+0x308>
10007a42:	f104 0210 	add.w	r2, r4, #16
10007a46:	f100 0310 	add.w	r3, r0, #16
10007a4a:	e706      	b.n	1000785a <_realloc_r+0xce>
10007a4c:	1b5b      	subs	r3, r3, r5
10007a4e:	eb09 0205 	add.w	r2, r9, r5
10007a52:	4640      	mov	r0, r8
10007a54:	4626      	mov	r6, r4
10007a56:	f043 0301 	orr.w	r3, r3, #1
10007a5a:	f8cb 2008 	str.w	r2, [fp, #8]
10007a5e:	6053      	str	r3, [r2, #4]
10007a60:	f854 3c04 	ldr.w	r3, [r4, #-4]
10007a64:	f003 0301 	and.w	r3, r3, #1
10007a68:	432b      	orrs	r3, r5
10007a6a:	f844 3c04 	str.w	r3, [r4, #-4]
10007a6e:	f7ff fe5f 	bl	10007730 <__malloc_unlock>
10007a72:	e721      	b.n	100078b8 <_realloc_r+0x12c>
10007a74:	68a3      	ldr	r3, [r4, #8]
10007a76:	2a24      	cmp	r2, #36	@ 0x24
10007a78:	f8ca 3010 	str.w	r3, [sl, #16]
10007a7c:	68e3      	ldr	r3, [r4, #12]
10007a7e:	f8ca 3014 	str.w	r3, [sl, #20]
10007a82:	d010      	beq.n	10007aa6 <_realloc_r+0x31a>
10007a84:	3410      	adds	r4, #16
10007a86:	f10a 0318 	add.w	r3, sl, #24
10007a8a:	e7b9      	b.n	10007a00 <_realloc_r+0x274>
10007a8c:	4640      	mov	r0, r8
10007a8e:	f7ff fe4f 	bl	10007730 <__malloc_unlock>
10007a92:	e73b      	b.n	1000790c <_realloc_r+0x180>
10007a94:	6923      	ldr	r3, [r4, #16]
10007a96:	f104 0218 	add.w	r2, r4, #24
10007a9a:	6103      	str	r3, [r0, #16]
10007a9c:	6963      	ldr	r3, [r4, #20]
10007a9e:	6143      	str	r3, [r0, #20]
10007aa0:	f100 0318 	add.w	r3, r0, #24
10007aa4:	e6d9      	b.n	1000785a <_realloc_r+0xce>
10007aa6:	6923      	ldr	r3, [r4, #16]
10007aa8:	3418      	adds	r4, #24
10007aaa:	f8ca 3018 	str.w	r3, [sl, #24]
10007aae:	f854 3c04 	ldr.w	r3, [r4, #-4]
10007ab2:	f8ca 301c 	str.w	r3, [sl, #28]
10007ab6:	f10a 0320 	add.w	r3, sl, #32
10007aba:	e7a1      	b.n	10007a00 <_realloc_r+0x274>
10007abc:	4632      	mov	r2, r6
10007abe:	e75e      	b.n	1000797e <_realloc_r+0x1f2>
10007ac0:	4621      	mov	r1, r4
10007ac2:	4630      	mov	r0, r6
10007ac4:	9301      	str	r3, [sp, #4]
10007ac6:	f000 f849 	bl	10007b5c <memmove>
10007aca:	9b01      	ldr	r3, [sp, #4]
10007acc:	e75d      	b.n	1000798a <_realloc_r+0x1fe>
10007ace:	68a1      	ldr	r1, [r4, #8]
10007ad0:	2a24      	cmp	r2, #36	@ 0x24
10007ad2:	f8ca 1010 	str.w	r1, [sl, #16]
10007ad6:	68e1      	ldr	r1, [r4, #12]
10007ad8:	f8ca 1014 	str.w	r1, [sl, #20]
10007adc:	d003      	beq.n	10007ae6 <_realloc_r+0x35a>
10007ade:	3410      	adds	r4, #16
10007ae0:	f10a 0218 	add.w	r2, sl, #24
10007ae4:	e74b      	b.n	1000797e <_realloc_r+0x1f2>
10007ae6:	6922      	ldr	r2, [r4, #16]
10007ae8:	3418      	adds	r4, #24
10007aea:	f8ca 2018 	str.w	r2, [sl, #24]
10007aee:	f854 2c04 	ldr.w	r2, [r4, #-4]
10007af2:	f8ca 201c 	str.w	r2, [sl, #28]
10007af6:	f10a 0220 	add.w	r2, sl, #32
10007afa:	e740      	b.n	1000797e <_realloc_r+0x1f2>
10007afc:	20000668 	.word	0x20000668

10007b00 <sscanf>:
10007b00:	b40e      	push	{r1, r2, r3}
10007b02:	b570      	push	{r4, r5, r6, lr}
10007b04:	b09d      	sub	sp, #116	@ 0x74
10007b06:	2500      	movs	r5, #0
10007b08:	f44f 7201 	mov.w	r2, #516	@ 0x204
10007b0c:	ac21      	add	r4, sp, #132	@ 0x84
10007b0e:	951b      	str	r5, [sp, #108]	@ 0x6c
10007b10:	f8ad 2014 	strh.w	r2, [sp, #20]
10007b14:	f854 6b04 	ldr.w	r6, [r4], #4
10007b18:	9002      	str	r0, [sp, #8]
10007b1a:	9006      	str	r0, [sp, #24]
10007b1c:	f000 fa68 	bl	10007ff0 <strlen>
10007b20:	490b      	ldr	r1, [pc, #44]	@ (10007b50 <sscanf+0x50>)
10007b22:	4603      	mov	r3, r0
10007b24:	f64f 70ff 	movw	r0, #65535	@ 0xffff
10007b28:	4632      	mov	r2, r6
10007b2a:	910a      	str	r1, [sp, #40]	@ 0x28
10007b2c:	4909      	ldr	r1, [pc, #36]	@ (10007b54 <sscanf+0x54>)
10007b2e:	f8ad 0016 	strh.w	r0, [sp, #22]
10007b32:	9303      	str	r3, [sp, #12]
10007b34:	9307      	str	r3, [sp, #28]
10007b36:	4623      	mov	r3, r4
10007b38:	6808      	ldr	r0, [r1, #0]
10007b3a:	a902      	add	r1, sp, #8
10007b3c:	950e      	str	r5, [sp, #56]	@ 0x38
10007b3e:	9513      	str	r5, [sp, #76]	@ 0x4c
10007b40:	9401      	str	r4, [sp, #4]
10007b42:	f000 fd15 	bl	10008570 <__ssvfscanf_r>
10007b46:	b01d      	add	sp, #116	@ 0x74
10007b48:	e8bd 4070 	ldmia.w	sp!, {r4, r5, r6, lr}
10007b4c:	b003      	add	sp, #12
10007b4e:	4770      	bx	lr
10007b50:	10007b59 	.word	0x10007b59
10007b54:	20000a70 	.word	0x20000a70

10007b58 <__seofread>:
10007b58:	2000      	movs	r0, #0
10007b5a:	4770      	bx	lr

10007b5c <memmove>:
10007b5c:	4288      	cmp	r0, r1
10007b5e:	d90d      	bls.n	10007b7c <memmove+0x20>
10007b60:	188b      	adds	r3, r1, r2
10007b62:	4283      	cmp	r3, r0
10007b64:	d90a      	bls.n	10007b7c <memmove+0x20>
10007b66:	eb00 0c02 	add.w	ip, r0, r2
10007b6a:	b35a      	cbz	r2, 10007bc4 <memmove+0x68>
10007b6c:	4662      	mov	r2, ip
10007b6e:	f813 cd01 	ldrb.w	ip, [r3, #-1]!
10007b72:	4299      	cmp	r1, r3
10007b74:	f802 cd01 	strb.w	ip, [r2, #-1]!
10007b78:	d1f9      	bne.n	10007b6e <memmove+0x12>
10007b7a:	4770      	bx	lr
10007b7c:	2a0f      	cmp	r2, #15
10007b7e:	d80d      	bhi.n	10007b9c <memmove+0x40>
10007b80:	f102 3cff 	add.w	ip, r2, #4294967295	@ 0xffffffff
10007b84:	b1f2      	cbz	r2, 10007bc4 <memmove+0x68>
10007b86:	f10c 0c01 	add.w	ip, ip, #1
10007b8a:	1e43      	subs	r3, r0, #1
10007b8c:	448c      	add	ip, r1
10007b8e:	f811 2b01 	ldrb.w	r2, [r1], #1
10007b92:	4561      	cmp	r1, ip
10007b94:	f803 2f01 	strb.w	r2, [r3, #1]!
10007b98:	d1f9      	bne.n	10007b8e <memmove+0x32>
10007b9a:	4770      	bx	lr
10007b9c:	ea40 0301 	orr.w	r3, r0, r1
10007ba0:	079b      	lsls	r3, r3, #30
10007ba2:	b5f0      	push	{r4, r5, r6, r7, lr}
10007ba4:	460c      	mov	r4, r1
10007ba6:	d00e      	beq.n	10007bc6 <memmove+0x6a>
10007ba8:	f102 3cff 	add.w	ip, r2, #4294967295	@ 0xffffffff
10007bac:	4603      	mov	r3, r0
10007bae:	f10c 0c01 	add.w	ip, ip, #1
10007bb2:	3b01      	subs	r3, #1
10007bb4:	448c      	add	ip, r1
10007bb6:	f811 2b01 	ldrb.w	r2, [r1], #1
10007bba:	4561      	cmp	r1, ip
10007bbc:	f803 2f01 	strb.w	r2, [r3, #1]!
10007bc0:	d1f9      	bne.n	10007bb6 <memmove+0x5a>
10007bc2:	bdf0      	pop	{r4, r5, r6, r7, pc}
10007bc4:	4770      	bx	lr
10007bc6:	f1a2 0510 	sub.w	r5, r2, #16
10007bca:	f101 0e20 	add.w	lr, r1, #32
10007bce:	f101 0310 	add.w	r3, r1, #16
10007bd2:	f100 0c10 	add.w	ip, r0, #16
10007bd6:	f025 050f 	bic.w	r5, r5, #15
10007bda:	44ae      	add	lr, r5
10007bdc:	f853 6c10 	ldr.w	r6, [r3, #-16]
10007be0:	3310      	adds	r3, #16
10007be2:	f10c 0c10 	add.w	ip, ip, #16
10007be6:	f84c 6c20 	str.w	r6, [ip, #-32]
10007bea:	f853 6c1c 	ldr.w	r6, [r3, #-28]
10007bee:	f84c 6c1c 	str.w	r6, [ip, #-28]
10007bf2:	f853 6c18 	ldr.w	r6, [r3, #-24]
10007bf6:	4573      	cmp	r3, lr
10007bf8:	f84c 6c18 	str.w	r6, [ip, #-24]
10007bfc:	f853 6c14 	ldr.w	r6, [r3, #-20]
10007c00:	f84c 6c14 	str.w	r6, [ip, #-20]
10007c04:	d1ea      	bne.n	10007bdc <memmove+0x80>
10007c06:	eb01 0c05 	add.w	ip, r1, r5
10007c0a:	f012 0f0c 	tst.w	r2, #12
10007c0e:	4405      	add	r5, r0
10007c10:	f10c 0110 	add.w	r1, ip, #16
10007c14:	f105 0310 	add.w	r3, r5, #16
10007c18:	f002 050f 	and.w	r5, r2, #15
10007c1c:	460e      	mov	r6, r1
10007c1e:	d018      	beq.n	10007c52 <memmove+0xf6>
10007c20:	3d04      	subs	r5, #4
10007c22:	eba0 0e04 	sub.w	lr, r0, r4
10007c26:	f025 0403 	bic.w	r4, r5, #3
10007c2a:	44a4      	add	ip, r4
10007c2c:	f10c 0c14 	add.w	ip, ip, #20
10007c30:	680f      	ldr	r7, [r1, #0]
10007c32:	eb01 050e 	add.w	r5, r1, lr
10007c36:	3104      	adds	r1, #4
10007c38:	602f      	str	r7, [r5, #0]
10007c3a:	4561      	cmp	r1, ip
10007c3c:	d1f8      	bne.n	10007c30 <memmove+0xd4>
10007c3e:	3404      	adds	r4, #4
10007c40:	f002 0203 	and.w	r2, r2, #3
10007c44:	19a1      	adds	r1, r4, r6
10007c46:	4423      	add	r3, r4
10007c48:	f102 3cff 	add.w	ip, r2, #4294967295	@ 0xffffffff
10007c4c:	2a00      	cmp	r2, #0
10007c4e:	d1ae      	bne.n	10007bae <memmove+0x52>
10007c50:	bdf0      	pop	{r4, r5, r6, r7, pc}
10007c52:	462a      	mov	r2, r5
10007c54:	e7f8      	b.n	10007c48 <memmove+0xec>
10007c56:	bf00      	nop

10007c58 <memset>:
10007c58:	0783      	lsls	r3, r0, #30
10007c5a:	b530      	push	{r4, r5, lr}
10007c5c:	d046      	beq.n	10007cec <memset+0x94>
10007c5e:	1884      	adds	r4, r0, r2
10007c60:	4684      	mov	ip, r0
10007c62:	e004      	b.n	10007c6e <memset+0x16>
10007c64:	f803 1b01 	strb.w	r1, [r3], #1
10007c68:	079d      	lsls	r5, r3, #30
10007c6a:	d004      	beq.n	10007c76 <memset+0x1e>
10007c6c:	469c      	mov	ip, r3
10007c6e:	45a4      	cmp	ip, r4
10007c70:	4663      	mov	r3, ip
10007c72:	d1f7      	bne.n	10007c64 <memset+0xc>
10007c74:	bd30      	pop	{r4, r5, pc}
10007c76:	3a01      	subs	r2, #1
10007c78:	4402      	add	r2, r0
10007c7a:	eba2 020c 	sub.w	r2, r2, ip
10007c7e:	2a03      	cmp	r2, #3
10007c80:	d929      	bls.n	10007cd6 <memset+0x7e>
10007c82:	b2cc      	uxtb	r4, r1
10007c84:	2a0f      	cmp	r2, #15
10007c86:	eb04 2404 	add.w	r4, r4, r4, lsl #8
10007c8a:	eb04 4404 	add.w	r4, r4, r4, lsl #16
10007c8e:	d92f      	bls.n	10007cf0 <memset+0x98>
10007c90:	f1a2 0c10 	sub.w	ip, r2, #16
10007c94:	f103 0510 	add.w	r5, r3, #16
10007c98:	f02c 0c0f 	bic.w	ip, ip, #15
10007c9c:	44ac      	add	ip, r5
10007c9e:	e9c3 4400 	strd	r4, r4, [r3]
10007ca2:	e9c3 4402 	strd	r4, r4, [r3, #8]
10007ca6:	3310      	adds	r3, #16
10007ca8:	4563      	cmp	r3, ip
10007caa:	d1f8      	bne.n	10007c9e <memset+0x46>
10007cac:	f012 0f0c 	tst.w	r2, #12
10007cb0:	f002 0e0f 	and.w	lr, r2, #15
10007cb4:	d018      	beq.n	10007ce8 <memset+0x90>
10007cb6:	f02e 0c03 	bic.w	ip, lr, #3
10007cba:	f1ae 0504 	sub.w	r5, lr, #4
10007cbe:	461a      	mov	r2, r3
10007cc0:	449c      	add	ip, r3
10007cc2:	f842 4b04 	str.w	r4, [r2], #4
10007cc6:	4562      	cmp	r2, ip
10007cc8:	d1fb      	bne.n	10007cc2 <memset+0x6a>
10007cca:	f025 0403 	bic.w	r4, r5, #3
10007cce:	3304      	adds	r3, #4
10007cd0:	f00e 0203 	and.w	r2, lr, #3
10007cd4:	4423      	add	r3, r4
10007cd6:	2a00      	cmp	r2, #0
10007cd8:	d0cc      	beq.n	10007c74 <memset+0x1c>
10007cda:	b2c9      	uxtb	r1, r1
10007cdc:	441a      	add	r2, r3
10007cde:	f803 1b01 	strb.w	r1, [r3], #1
10007ce2:	4293      	cmp	r3, r2
10007ce4:	d1fb      	bne.n	10007cde <memset+0x86>
10007ce6:	bd30      	pop	{r4, r5, pc}
10007ce8:	4672      	mov	r2, lr
10007cea:	e7f4      	b.n	10007cd6 <memset+0x7e>
10007cec:	4603      	mov	r3, r0
10007cee:	e7c6      	b.n	10007c7e <memset+0x26>
10007cf0:	4696      	mov	lr, r2
10007cf2:	e7e0      	b.n	10007cb6 <memset+0x5e>

10007cf4 <_sbrk_r>:
10007cf4:	b538      	push	{r3, r4, r5, lr}
10007cf6:	2200      	movs	r2, #0
10007cf8:	4d06      	ldr	r5, [pc, #24]	@ (10007d14 <_sbrk_r+0x20>)
10007cfa:	4604      	mov	r4, r0
10007cfc:	4608      	mov	r0, r1
10007cfe:	602a      	str	r2, [r5, #0]
10007d00:	f7fe fe06 	bl	10006910 <_sbrk>
10007d04:	1c43      	adds	r3, r0, #1
10007d06:	d000      	beq.n	10007d0a <_sbrk_r+0x16>
10007d08:	bd38      	pop	{r3, r4, r5, pc}
10007d0a:	682b      	ldr	r3, [r5, #0]
10007d0c:	2b00      	cmp	r3, #0
10007d0e:	d0fb      	beq.n	10007d08 <_sbrk_r+0x14>
10007d10:	6023      	str	r3, [r4, #0]
10007d12:	bd38      	pop	{r3, r4, r5, pc}
10007d14:	20001154 	.word	0x20001154

10007d18 <__errno>:
10007d18:	4b01      	ldr	r3, [pc, #4]	@ (10007d20 <__errno+0x8>)
10007d1a:	6818      	ldr	r0, [r3, #0]
10007d1c:	4770      	bx	lr
10007d1e:	bf00      	nop
10007d20:	20000a70 	.word	0x20000a70

10007d24 <__retarget_lock_acquire_recursive>:
10007d24:	4770      	bx	lr
10007d26:	bf00      	nop

10007d28 <__retarget_lock_release_recursive>:
10007d28:	4770      	bx	lr
10007d2a:	bf00      	nop

10007d2c <sysconf>:
10007d2c:	2808      	cmp	r0, #8
10007d2e:	d102      	bne.n	10007d36 <sysconf+0xa>
10007d30:	f44f 5080 	mov.w	r0, #4096	@ 0x1000
10007d34:	4770      	bx	lr
10007d36:	b508      	push	{r3, lr}
10007d38:	f7ff ffee 	bl	10007d18 <__errno>
10007d3c:	2216      	movs	r2, #22
10007d3e:	4603      	mov	r3, r0
10007d40:	f04f 30ff 	mov.w	r0, #4294967295	@ 0xffffffff
10007d44:	601a      	str	r2, [r3, #0]
10007d46:	bd08      	pop	{r3, pc}

10007d48 <strcmp>:
10007d48:	ea80 0c01 	eor.w	ip, r0, r1
10007d4c:	f01c 0f03 	tst.w	ip, #3
10007d50:	d137      	bne.n	10007dc2 <strcmp+0x7a>
10007d52:	f010 0c03 	ands.w	ip, r0, #3
10007d56:	f020 0003 	bic.w	r0, r0, #3
10007d5a:	f021 0103 	bic.w	r1, r1, #3
10007d5e:	f850 2b04 	ldr.w	r2, [r0], #4
10007d62:	bf08      	it	eq
10007d64:	f851 3b04 	ldreq.w	r3, [r1], #4
10007d68:	d00e      	beq.n	10007d88 <strcmp+0x40>
10007d6a:	f08c 0c03 	eor.w	ip, ip, #3
10007d6e:	f06f 437f 	mvn.w	r3, #4278190080	@ 0xff000000
10007d72:	ea4f 0ccc 	mov.w	ip, ip, lsl #3
10007d76:	fa23 fc0c 	lsr.w	ip, r3, ip
10007d7a:	f851 3b04 	ldr.w	r3, [r1], #4
10007d7e:	ea42 020c 	orr.w	r2, r2, ip
10007d82:	ea43 030c 	orr.w	r3, r3, ip
10007d86:	bf00      	nop
10007d88:	f1a2 3c01 	sub.w	ip, r2, #16843009	@ 0x1010101
10007d8c:	429a      	cmp	r2, r3
10007d8e:	bf01      	itttt	eq
10007d90:	ea2c 0c02 	biceq.w	ip, ip, r2
10007d94:	f01c 3f80 	tsteq.w	ip, #2155905152	@ 0x80808080
10007d98:	f850 2b04 	ldreq.w	r2, [r0], #4
10007d9c:	f851 3b04 	ldreq.w	r3, [r1], #4
10007da0:	d0f2      	beq.n	10007d88 <strcmp+0x40>
10007da2:	ea4f 6002 	mov.w	r0, r2, lsl #24
10007da6:	ea4f 2212 	mov.w	r2, r2, lsr #8
10007daa:	2801      	cmp	r0, #1
10007dac:	bf28      	it	cs
10007dae:	ebb0 6f03 	cmpcs.w	r0, r3, lsl #24
10007db2:	bf08      	it	eq
10007db4:	0a1b      	lsreq	r3, r3, #8
10007db6:	d0f4      	beq.n	10007da2 <strcmp+0x5a>
10007db8:	f003 03ff 	and.w	r3, r3, #255	@ 0xff
10007dbc:	0e00      	lsrs	r0, r0, #24
10007dbe:	1ac0      	subs	r0, r0, r3
10007dc0:	4770      	bx	lr
10007dc2:	f010 0f03 	tst.w	r0, #3
10007dc6:	d00a      	beq.n	10007dde <strcmp+0x96>
10007dc8:	f810 2b01 	ldrb.w	r2, [r0], #1
10007dcc:	f811 3b01 	ldrb.w	r3, [r1], #1
10007dd0:	2a01      	cmp	r2, #1
10007dd2:	bf28      	it	cs
10007dd4:	429a      	cmpcs	r2, r3
10007dd6:	d0f4      	beq.n	10007dc2 <strcmp+0x7a>
10007dd8:	eba2 0003 	sub.w	r0, r2, r3
10007ddc:	4770      	bx	lr
10007dde:	f84d 5d04 	str.w	r5, [sp, #-4]!
10007de2:	f850 2b04 	ldr.w	r2, [r0], #4
10007de6:	f001 0503 	and.w	r5, r1, #3
10007dea:	f021 0103 	bic.w	r1, r1, #3
10007dee:	f851 3b04 	ldr.w	r3, [r1], #4
10007df2:	2d02      	cmp	r5, #2
10007df4:	d026      	beq.n	10007e44 <strcmp+0xfc>
10007df6:	d84d      	bhi.n	10007e94 <strcmp+0x14c>
10007df8:	f022 457f 	bic.w	r5, r2, #4278190080	@ 0xff000000
10007dfc:	ebb5 2f13 	cmp.w	r5, r3, lsr #8
10007e00:	f1a2 3c01 	sub.w	ip, r2, #16843009	@ 0x1010101
10007e04:	ea2c 0c02 	bic.w	ip, ip, r2
10007e08:	d10d      	bne.n	10007e26 <strcmp+0xde>
10007e0a:	f01c 3c80 	ands.w	ip, ip, #2155905152	@ 0x80808080
10007e0e:	bf08      	it	eq
10007e10:	f851 3b04 	ldreq.w	r3, [r1], #4
10007e14:	d10a      	bne.n	10007e2c <strcmp+0xe4>
10007e16:	ea85 0502 	eor.w	r5, r5, r2
10007e1a:	ebb5 6f03 	cmp.w	r5, r3, lsl #24
10007e1e:	d10c      	bne.n	10007e3a <strcmp+0xf2>
10007e20:	f850 2b04 	ldr.w	r2, [r0], #4
10007e24:	e7e8      	b.n	10007df8 <strcmp+0xb0>
10007e26:	ea4f 2313 	mov.w	r3, r3, lsr #8
10007e2a:	e05b      	b.n	10007ee4 <strcmp+0x19c>
10007e2c:	f03c 4c7f 	bics.w	ip, ip, #4278190080	@ 0xff000000
10007e30:	d154      	bne.n	10007edc <strcmp+0x194>
10007e32:	780b      	ldrb	r3, [r1, #0]
10007e34:	ea4f 6512 	mov.w	r5, r2, lsr #24
10007e38:	e054      	b.n	10007ee4 <strcmp+0x19c>
10007e3a:	ea4f 6512 	mov.w	r5, r2, lsr #24
10007e3e:	f003 03ff 	and.w	r3, r3, #255	@ 0xff
10007e42:	e04f      	b.n	10007ee4 <strcmp+0x19c>
10007e44:	ea4f 4502 	mov.w	r5, r2, lsl #16
10007e48:	f1a2 3c01 	sub.w	ip, r2, #16843009	@ 0x1010101
10007e4c:	ea4f 4515 	mov.w	r5, r5, lsr #16
10007e50:	ea2c 0c02 	bic.w	ip, ip, r2
10007e54:	ebb5 4f13 	cmp.w	r5, r3, lsr #16
10007e58:	d118      	bne.n	10007e8c <strcmp+0x144>
10007e5a:	f01c 3c80 	ands.w	ip, ip, #2155905152	@ 0x80808080
10007e5e:	bf08      	it	eq
10007e60:	f851 3b04 	ldreq.w	r3, [r1], #4
10007e64:	d107      	bne.n	10007e76 <strcmp+0x12e>
10007e66:	ea85 0502 	eor.w	r5, r5, r2
10007e6a:	ebb5 4f03 	cmp.w	r5, r3, lsl #16
10007e6e:	d109      	bne.n	10007e84 <strcmp+0x13c>
10007e70:	f850 2b04 	ldr.w	r2, [r0], #4
10007e74:	e7e6      	b.n	10007e44 <strcmp+0xfc>
10007e76:	ea5f 4c0c 	movs.w	ip, ip, lsl #16
10007e7a:	d12f      	bne.n	10007edc <strcmp+0x194>
10007e7c:	880b      	ldrh	r3, [r1, #0]
10007e7e:	ea4f 4512 	mov.w	r5, r2, lsr #16
10007e82:	e02f      	b.n	10007ee4 <strcmp+0x19c>
10007e84:	ea4f 4303 	mov.w	r3, r3, lsl #16
10007e88:	ea4f 4512 	mov.w	r5, r2, lsr #16
10007e8c:	ea4f 4313 	mov.w	r3, r3, lsr #16
10007e90:	e028      	b.n	10007ee4 <strcmp+0x19c>
10007e92:	bf00      	nop
10007e94:	f002 05ff 	and.w	r5, r2, #255	@ 0xff
10007e98:	ebb5 6f13 	cmp.w	r5, r3, lsr #24
10007e9c:	f1a2 3c01 	sub.w	ip, r2, #16843009	@ 0x1010101
10007ea0:	ea2c 0c02 	bic.w	ip, ip, r2
10007ea4:	d10d      	bne.n	10007ec2 <strcmp+0x17a>
10007ea6:	f01c 3c80 	ands.w	ip, ip, #2155905152	@ 0x80808080
10007eaa:	bf08      	it	eq
10007eac:	f851 3b04 	ldreq.w	r3, [r1], #4
10007eb0:	d10a      	bne.n	10007ec8 <strcmp+0x180>
10007eb2:	ea85 0502 	eor.w	r5, r5, r2
10007eb6:	ebb5 2f03 	cmp.w	r5, r3, lsl #8
10007eba:	d10a      	bne.n	10007ed2 <strcmp+0x18a>
10007ebc:	f850 2b04 	ldr.w	r2, [r0], #4
10007ec0:	e7e8      	b.n	10007e94 <strcmp+0x14c>
10007ec2:	ea4f 6313 	mov.w	r3, r3, lsr #24
10007ec6:	e00d      	b.n	10007ee4 <strcmp+0x19c>
10007ec8:	f012 0fff 	tst.w	r2, #255	@ 0xff
10007ecc:	d006      	beq.n	10007edc <strcmp+0x194>
10007ece:	f851 3b04 	ldr.w	r3, [r1], #4
10007ed2:	ea4f 2512 	mov.w	r5, r2, lsr #8
10007ed6:	f023 437f 	bic.w	r3, r3, #4278190080	@ 0xff000000
10007eda:	e003      	b.n	10007ee4 <strcmp+0x19c>
10007edc:	f04f 0000 	mov.w	r0, #0
10007ee0:	bc20      	pop	{r5}
10007ee2:	4770      	bx	lr
10007ee4:	f005 02ff 	and.w	r2, r5, #255	@ 0xff
10007ee8:	f003 00ff 	and.w	r0, r3, #255	@ 0xff
10007eec:	2801      	cmp	r0, #1
10007eee:	bf28      	it	cs
10007ef0:	4290      	cmpcs	r0, r2
10007ef2:	bf04      	itt	eq
10007ef4:	0a2d      	lsreq	r5, r5, #8
10007ef6:	0a1b      	lsreq	r3, r3, #8
10007ef8:	d0f4      	beq.n	10007ee4 <strcmp+0x19c>
10007efa:	eba2 0000 	sub.w	r0, r2, r0
10007efe:	bc20      	pop	{r5}
10007f00:	4770      	bx	lr
10007f02:	bf00      	nop

10007f04 <memcpy>:
10007f04:	4684      	mov	ip, r0
10007f06:	ea41 0300 	orr.w	r3, r1, r0
10007f0a:	f013 0303 	ands.w	r3, r3, #3
10007f0e:	d149      	bne.n	10007fa4 <memcpy+0xa0>
10007f10:	3a40      	subs	r2, #64	@ 0x40
10007f12:	d323      	bcc.n	10007f5c <memcpy+0x58>
10007f14:	680b      	ldr	r3, [r1, #0]
10007f16:	6003      	str	r3, [r0, #0]
10007f18:	684b      	ldr	r3, [r1, #4]
10007f1a:	6043      	str	r3, [r0, #4]
10007f1c:	688b      	ldr	r3, [r1, #8]
10007f1e:	6083      	str	r3, [r0, #8]
10007f20:	68cb      	ldr	r3, [r1, #12]
10007f22:	60c3      	str	r3, [r0, #12]
10007f24:	690b      	ldr	r3, [r1, #16]
10007f26:	6103      	str	r3, [r0, #16]
10007f28:	694b      	ldr	r3, [r1, #20]
10007f2a:	6143      	str	r3, [r0, #20]
10007f2c:	698b      	ldr	r3, [r1, #24]
10007f2e:	6183      	str	r3, [r0, #24]
10007f30:	69cb      	ldr	r3, [r1, #28]
10007f32:	61c3      	str	r3, [r0, #28]
10007f34:	6a0b      	ldr	r3, [r1, #32]
10007f36:	6203      	str	r3, [r0, #32]
10007f38:	6a4b      	ldr	r3, [r1, #36]	@ 0x24
10007f3a:	6243      	str	r3, [r0, #36]	@ 0x24
10007f3c:	6a8b      	ldr	r3, [r1, #40]	@ 0x28
10007f3e:	6283      	str	r3, [r0, #40]	@ 0x28
10007f40:	6acb      	ldr	r3, [r1, #44]	@ 0x2c
10007f42:	62c3      	str	r3, [r0, #44]	@ 0x2c
10007f44:	6b0b      	ldr	r3, [r1, #48]	@ 0x30
10007f46:	6303      	str	r3, [r0, #48]	@ 0x30
10007f48:	6b4b      	ldr	r3, [r1, #52]	@ 0x34
10007f4a:	6343      	str	r3, [r0, #52]	@ 0x34
10007f4c:	6b8b      	ldr	r3, [r1, #56]	@ 0x38
10007f4e:	6383      	str	r3, [r0, #56]	@ 0x38
10007f50:	6bcb      	ldr	r3, [r1, #60]	@ 0x3c
10007f52:	63c3      	str	r3, [r0, #60]	@ 0x3c
10007f54:	3040      	adds	r0, #64	@ 0x40
10007f56:	3140      	adds	r1, #64	@ 0x40
10007f58:	3a40      	subs	r2, #64	@ 0x40
10007f5a:	d2db      	bcs.n	10007f14 <memcpy+0x10>
10007f5c:	3230      	adds	r2, #48	@ 0x30
10007f5e:	d30b      	bcc.n	10007f78 <memcpy+0x74>
10007f60:	680b      	ldr	r3, [r1, #0]
10007f62:	6003      	str	r3, [r0, #0]
10007f64:	684b      	ldr	r3, [r1, #4]
10007f66:	6043      	str	r3, [r0, #4]
10007f68:	688b      	ldr	r3, [r1, #8]
10007f6a:	6083      	str	r3, [r0, #8]
10007f6c:	68cb      	ldr	r3, [r1, #12]
10007f6e:	60c3      	str	r3, [r0, #12]
10007f70:	3010      	adds	r0, #16
10007f72:	3110      	adds	r1, #16
10007f74:	3a10      	subs	r2, #16
10007f76:	d2f3      	bcs.n	10007f60 <memcpy+0x5c>
10007f78:	320c      	adds	r2, #12
10007f7a:	d305      	bcc.n	10007f88 <memcpy+0x84>
10007f7c:	f851 3b04 	ldr.w	r3, [r1], #4
10007f80:	f840 3b04 	str.w	r3, [r0], #4
10007f84:	3a04      	subs	r2, #4
10007f86:	d2f9      	bcs.n	10007f7c <memcpy+0x78>
10007f88:	3204      	adds	r2, #4
10007f8a:	d008      	beq.n	10007f9e <memcpy+0x9a>
10007f8c:	07d2      	lsls	r2, r2, #31
10007f8e:	bf1c      	itt	ne
10007f90:	f811 3b01 	ldrbne.w	r3, [r1], #1
10007f94:	f800 3b01 	strbne.w	r3, [r0], #1
10007f98:	d301      	bcc.n	10007f9e <memcpy+0x9a>
10007f9a:	880b      	ldrh	r3, [r1, #0]
10007f9c:	8003      	strh	r3, [r0, #0]
10007f9e:	4660      	mov	r0, ip
10007fa0:	4770      	bx	lr
10007fa2:	bf00      	nop
10007fa4:	2a08      	cmp	r2, #8
10007fa6:	d313      	bcc.n	10007fd0 <memcpy+0xcc>
10007fa8:	078b      	lsls	r3, r1, #30
10007faa:	d0b1      	beq.n	10007f10 <memcpy+0xc>
10007fac:	f010 0303 	ands.w	r3, r0, #3
10007fb0:	d0ae      	beq.n	10007f10 <memcpy+0xc>
10007fb2:	f1c3 0304 	rsb	r3, r3, #4
10007fb6:	1ad2      	subs	r2, r2, r3
10007fb8:	07db      	lsls	r3, r3, #31
10007fba:	bf1c      	itt	ne
10007fbc:	f811 3b01 	ldrbne.w	r3, [r1], #1
10007fc0:	f800 3b01 	strbne.w	r3, [r0], #1
10007fc4:	d3a4      	bcc.n	10007f10 <memcpy+0xc>
10007fc6:	f831 3b02 	ldrh.w	r3, [r1], #2
10007fca:	f820 3b02 	strh.w	r3, [r0], #2
10007fce:	e79f      	b.n	10007f10 <memcpy+0xc>
10007fd0:	3a04      	subs	r2, #4
10007fd2:	d3d9      	bcc.n	10007f88 <memcpy+0x84>
10007fd4:	3a01      	subs	r2, #1
10007fd6:	f811 3b01 	ldrb.w	r3, [r1], #1
10007fda:	f800 3b01 	strb.w	r3, [r0], #1
10007fde:	d2f9      	bcs.n	10007fd4 <memcpy+0xd0>
10007fe0:	780b      	ldrb	r3, [r1, #0]
10007fe2:	7003      	strb	r3, [r0, #0]
10007fe4:	784b      	ldrb	r3, [r1, #1]
10007fe6:	7043      	strb	r3, [r0, #1]
10007fe8:	788b      	ldrb	r3, [r1, #2]
10007fea:	7083      	strb	r3, [r0, #2]
10007fec:	4660      	mov	r0, ip
10007fee:	4770      	bx	lr

10007ff0 <strlen>:
10007ff0:	f020 0103 	bic.w	r1, r0, #3
10007ff4:	f010 0003 	ands.w	r0, r0, #3
10007ff8:	f1c0 0000 	rsb	r0, r0, #0
10007ffc:	f851 3b04 	ldr.w	r3, [r1], #4
10008000:	f100 0c04 	add.w	ip, r0, #4
10008004:	ea4f 0ccc 	mov.w	ip, ip, lsl #3
10008008:	f06f 0200 	mvn.w	r2, #0
1000800c:	bf1c      	itt	ne
1000800e:	fa22 f20c 	lsrne.w	r2, r2, ip
10008012:	4313      	orrne	r3, r2
10008014:	f04f 0c01 	mov.w	ip, #1
10008018:	ea4c 2c0c 	orr.w	ip, ip, ip, lsl #8
1000801c:	ea4c 4c0c 	orr.w	ip, ip, ip, lsl #16
10008020:	eba3 020c 	sub.w	r2, r3, ip
10008024:	ea22 0203 	bic.w	r2, r2, r3
10008028:	ea12 12cc 	ands.w	r2, r2, ip, lsl #7
1000802c:	bf04      	itt	eq
1000802e:	f851 3b04 	ldreq.w	r3, [r1], #4
10008032:	3004      	addeq	r0, #4
10008034:	d0f4      	beq.n	10008020 <strlen+0x30>
10008036:	f1c2 0100 	rsb	r1, r2, #0
1000803a:	ea02 0201 	and.w	r2, r2, r1
1000803e:	fab2 f282 	clz	r2, r2
10008042:	f1c2 021f 	rsb	r2, r2, #31
10008046:	eb00 00d2 	add.w	r0, r0, r2, lsr #3
1000804a:	4770      	bx	lr

1000804c <_malloc_trim_r>:
1000804c:	e92d 43f8 	stmdb	sp!, {r3, r4, r5, r6, r7, r8, r9, lr}
10008050:	4606      	mov	r6, r0
10008052:	f8df 80ac 	ldr.w	r8, [pc, #172]	@ 10008100 <_malloc_trim_r+0xb4>
10008056:	2008      	movs	r0, #8
10008058:	4689      	mov	r9, r1
1000805a:	f7ff fe67 	bl	10007d2c <sysconf>
1000805e:	4605      	mov	r5, r0
10008060:	4630      	mov	r0, r6
10008062:	f7ff fb5f 	bl	10007724 <__malloc_lock>
10008066:	f8d8 3008 	ldr.w	r3, [r8, #8]
1000806a:	685f      	ldr	r7, [r3, #4]
1000806c:	f027 0703 	bic.w	r7, r7, #3
10008070:	f1a7 0411 	sub.w	r4, r7, #17
10008074:	eba4 0409 	sub.w	r4, r4, r9
10008078:	442c      	add	r4, r5
1000807a:	fbb4 f4f5 	udiv	r4, r4, r5
1000807e:	3c01      	subs	r4, #1
10008080:	fb05 f404 	mul.w	r4, r5, r4
10008084:	42a5      	cmp	r5, r4
10008086:	dc08      	bgt.n	1000809a <_malloc_trim_r+0x4e>
10008088:	2100      	movs	r1, #0
1000808a:	4630      	mov	r0, r6
1000808c:	f7ff fe32 	bl	10007cf4 <_sbrk_r>
10008090:	f8d8 3008 	ldr.w	r3, [r8, #8]
10008094:	443b      	add	r3, r7
10008096:	4298      	cmp	r0, r3
10008098:	d005      	beq.n	100080a6 <_malloc_trim_r+0x5a>
1000809a:	4630      	mov	r0, r6
1000809c:	f7ff fb48 	bl	10007730 <__malloc_unlock>
100080a0:	2000      	movs	r0, #0
100080a2:	e8bd 83f8 	ldmia.w	sp!, {r3, r4, r5, r6, r7, r8, r9, pc}
100080a6:	4261      	negs	r1, r4
100080a8:	4630      	mov	r0, r6
100080aa:	f7ff fe23 	bl	10007cf4 <_sbrk_r>
100080ae:	3001      	adds	r0, #1
100080b0:	d00f      	beq.n	100080d2 <_malloc_trim_r+0x86>
100080b2:	1b3f      	subs	r7, r7, r4
100080b4:	4a10      	ldr	r2, [pc, #64]	@ (100080f8 <_malloc_trim_r+0xac>)
100080b6:	f8d8 3008 	ldr.w	r3, [r8, #8]
100080ba:	4630      	mov	r0, r6
100080bc:	f047 0701 	orr.w	r7, r7, #1
100080c0:	605f      	str	r7, [r3, #4]
100080c2:	6813      	ldr	r3, [r2, #0]
100080c4:	1b1b      	subs	r3, r3, r4
100080c6:	6013      	str	r3, [r2, #0]
100080c8:	f7ff fb32 	bl	10007730 <__malloc_unlock>
100080cc:	2001      	movs	r0, #1
100080ce:	e8bd 83f8 	ldmia.w	sp!, {r3, r4, r5, r6, r7, r8, r9, pc}
100080d2:	2100      	movs	r1, #0
100080d4:	4630      	mov	r0, r6
100080d6:	f7ff fe0d 	bl	10007cf4 <_sbrk_r>
100080da:	f8d8 2008 	ldr.w	r2, [r8, #8]
100080de:	1a83      	subs	r3, r0, r2
100080e0:	2b0f      	cmp	r3, #15
100080e2:	ddda      	ble.n	1000809a <_malloc_trim_r+0x4e>
100080e4:	f043 0301 	orr.w	r3, r3, #1
100080e8:	4903      	ldr	r1, [pc, #12]	@ (100080f8 <_malloc_trim_r+0xac>)
100080ea:	6053      	str	r3, [r2, #4]
100080ec:	4b03      	ldr	r3, [pc, #12]	@ (100080fc <_malloc_trim_r+0xb0>)
100080ee:	681b      	ldr	r3, [r3, #0]
100080f0:	1ac0      	subs	r0, r0, r3
100080f2:	6008      	str	r0, [r1, #0]
100080f4:	e7d1      	b.n	1000809a <_malloc_trim_r+0x4e>
100080f6:	bf00      	nop
100080f8:	20000f84 	.word	0x20000f84
100080fc:	20000660 	.word	0x20000660
10008100:	20000668 	.word	0x20000668

10008104 <_free_r>:
10008104:	2900      	cmp	r1, #0
10008106:	d05a      	beq.n	100081be <_free_r+0xba>
10008108:	b5f8      	push	{r3, r4, r5, r6, r7, lr}
1000810a:	460c      	mov	r4, r1
1000810c:	4607      	mov	r7, r0
1000810e:	f7ff fb09 	bl	10007724 <__malloc_lock>
10008112:	4d73      	ldr	r5, [pc, #460]	@ (100082e0 <_free_r+0x1dc>)
10008114:	f854 cc04 	ldr.w	ip, [r4, #-4]
10008118:	f1a4 0208 	sub.w	r2, r4, #8
1000811c:	68a8      	ldr	r0, [r5, #8]
1000811e:	f02c 0301 	bic.w	r3, ip, #1
10008122:	f00c 0e01 	and.w	lr, ip, #1
10008126:	18d1      	adds	r1, r2, r3
10008128:	684e      	ldr	r6, [r1, #4]
1000812a:	4288      	cmp	r0, r1
1000812c:	f026 0603 	bic.w	r6, r6, #3
10008130:	d07c      	beq.n	1000822c <_free_r+0x128>
10008132:	1988      	adds	r0, r1, r6
10008134:	604e      	str	r6, [r1, #4]
10008136:	6840      	ldr	r0, [r0, #4]
10008138:	f000 0001 	and.w	r0, r0, #1
1000813c:	f1be 0f00 	cmp.w	lr, #0
10008140:	d12e      	bne.n	100081a0 <_free_r+0x9c>
10008142:	f854 4c08 	ldr.w	r4, [r4, #-8]
10008146:	f105 0c08 	add.w	ip, r5, #8
1000814a:	1b12      	subs	r2, r2, r4
1000814c:	4423      	add	r3, r4
1000814e:	6894      	ldr	r4, [r2, #8]
10008150:	4564      	cmp	r4, ip
10008152:	d060      	beq.n	10008216 <_free_r+0x112>
10008154:	f8d2 e00c 	ldr.w	lr, [r2, #12]
10008158:	f8c4 e00c 	str.w	lr, [r4, #12]
1000815c:	f8ce 4008 	str.w	r4, [lr, #8]
10008160:	2800      	cmp	r0, #0
10008162:	d07d      	beq.n	10008260 <_free_r+0x15c>
10008164:	f043 0001 	orr.w	r0, r3, #1
10008168:	6050      	str	r0, [r2, #4]
1000816a:	600b      	str	r3, [r1, #0]
1000816c:	f5b3 7f00 	cmp.w	r3, #512	@ 0x200
10008170:	d22e      	bcs.n	100081d0 <_free_r+0xcc>
10008172:	0958      	lsrs	r0, r3, #5
10008174:	08d9      	lsrs	r1, r3, #3
10008176:	2301      	movs	r3, #1
10008178:	4083      	lsls	r3, r0
1000817a:	6868      	ldr	r0, [r5, #4]
1000817c:	3101      	adds	r1, #1
1000817e:	4303      	orrs	r3, r0
10008180:	f855 0031 	ldr.w	r0, [r5, r1, lsl #3]
10008184:	606b      	str	r3, [r5, #4]
10008186:	eb05 03c1 	add.w	r3, r5, r1, lsl #3
1000818a:	3b08      	subs	r3, #8
1000818c:	e9c2 0302 	strd	r0, r3, [r2, #8]
10008190:	f845 2031 	str.w	r2, [r5, r1, lsl #3]
10008194:	60c2      	str	r2, [r0, #12]
10008196:	4638      	mov	r0, r7
10008198:	e8bd 40f8 	ldmia.w	sp!, {r3, r4, r5, r6, r7, lr}
1000819c:	f7ff bac8 	b.w	10007730 <__malloc_unlock>
100081a0:	b970      	cbnz	r0, 100081c0 <_free_r+0xbc>
100081a2:	4433      	add	r3, r6
100081a4:	f105 0c08 	add.w	ip, r5, #8
100081a8:	6888      	ldr	r0, [r1, #8]
100081aa:	f043 0401 	orr.w	r4, r3, #1
100081ae:	4560      	cmp	r0, ip
100081b0:	d06e      	beq.n	10008290 <_free_r+0x18c>
100081b2:	68c9      	ldr	r1, [r1, #12]
100081b4:	60c1      	str	r1, [r0, #12]
100081b6:	6088      	str	r0, [r1, #8]
100081b8:	6054      	str	r4, [r2, #4]
100081ba:	50d3      	str	r3, [r2, r3]
100081bc:	e7d6      	b.n	1000816c <_free_r+0x68>
100081be:	4770      	bx	lr
100081c0:	f04c 0101 	orr.w	r1, ip, #1
100081c4:	f5b3 7f00 	cmp.w	r3, #512	@ 0x200
100081c8:	f844 1c04 	str.w	r1, [r4, #-4]
100081cc:	50d3      	str	r3, [r2, r3]
100081ce:	d3d0      	bcc.n	10008172 <_free_r+0x6e>
100081d0:	f5b3 6f20 	cmp.w	r3, #2560	@ 0xa00
100081d4:	ea4f 2153 	mov.w	r1, r3, lsr #9
100081d8:	d244      	bcs.n	10008264 <_free_r+0x160>
100081da:	0999      	lsrs	r1, r3, #6
100081dc:	f101 0039 	add.w	r0, r1, #57	@ 0x39
100081e0:	f101 0438 	add.w	r4, r1, #56	@ 0x38
100081e4:	00c1      	lsls	r1, r0, #3
100081e6:	1868      	adds	r0, r5, r1
100081e8:	5869      	ldr	r1, [r5, r1]
100081ea:	3808      	subs	r0, #8
100081ec:	4288      	cmp	r0, r1
100081ee:	d103      	bne.n	100081f8 <_free_r+0xf4>
100081f0:	e055      	b.n	1000829e <_free_r+0x19a>
100081f2:	6889      	ldr	r1, [r1, #8]
100081f4:	4288      	cmp	r0, r1
100081f6:	d004      	beq.n	10008202 <_free_r+0xfe>
100081f8:	684c      	ldr	r4, [r1, #4]
100081fa:	f024 0403 	bic.w	r4, r4, #3
100081fe:	429c      	cmp	r4, r3
10008200:	d8f7      	bhi.n	100081f2 <_free_r+0xee>
10008202:	68c8      	ldr	r0, [r1, #12]
10008204:	e9c2 1002 	strd	r1, r0, [r2, #8]
10008208:	6082      	str	r2, [r0, #8]
1000820a:	4638      	mov	r0, r7
1000820c:	60ca      	str	r2, [r1, #12]
1000820e:	e8bd 40f8 	ldmia.w	sp!, {r3, r4, r5, r6, r7, lr}
10008212:	f7ff ba8d 	b.w	10007730 <__malloc_unlock>
10008216:	bb80      	cbnz	r0, 1000827a <_free_r+0x176>
10008218:	441e      	add	r6, r3
1000821a:	e9d1 1302 	ldrd	r1, r3, [r1, #8]
1000821e:	60cb      	str	r3, [r1, #12]
10008220:	6099      	str	r1, [r3, #8]
10008222:	f046 0301 	orr.w	r3, r6, #1
10008226:	6053      	str	r3, [r2, #4]
10008228:	5196      	str	r6, [r2, r6]
1000822a:	e7b4      	b.n	10008196 <_free_r+0x92>
1000822c:	441e      	add	r6, r3
1000822e:	f1be 0f00 	cmp.w	lr, #0
10008232:	d107      	bne.n	10008244 <_free_r+0x140>
10008234:	f854 3c08 	ldr.w	r3, [r4, #-8]
10008238:	1ad2      	subs	r2, r2, r3
1000823a:	441e      	add	r6, r3
1000823c:	e9d2 1302 	ldrd	r1, r3, [r2, #8]
10008240:	60cb      	str	r3, [r1, #12]
10008242:	6099      	str	r1, [r3, #8]
10008244:	f046 0301 	orr.w	r3, r6, #1
10008248:	6053      	str	r3, [r2, #4]
1000824a:	4b26      	ldr	r3, [pc, #152]	@ (100082e4 <_free_r+0x1e0>)
1000824c:	60aa      	str	r2, [r5, #8]
1000824e:	681b      	ldr	r3, [r3, #0]
10008250:	42b3      	cmp	r3, r6
10008252:	d8a0      	bhi.n	10008196 <_free_r+0x92>
10008254:	4b24      	ldr	r3, [pc, #144]	@ (100082e8 <_free_r+0x1e4>)
10008256:	4638      	mov	r0, r7
10008258:	6819      	ldr	r1, [r3, #0]
1000825a:	f7ff fef7 	bl	1000804c <_malloc_trim_r>
1000825e:	e79a      	b.n	10008196 <_free_r+0x92>
10008260:	4433      	add	r3, r6
10008262:	e7a1      	b.n	100081a8 <_free_r+0xa4>
10008264:	2914      	cmp	r1, #20
10008266:	d90d      	bls.n	10008284 <_free_r+0x180>
10008268:	2954      	cmp	r1, #84	@ 0x54
1000826a:	d81f      	bhi.n	100082ac <_free_r+0x1a8>
1000826c:	0b19      	lsrs	r1, r3, #12
1000826e:	f101 006f 	add.w	r0, r1, #111	@ 0x6f
10008272:	f101 046e 	add.w	r4, r1, #110	@ 0x6e
10008276:	00c1      	lsls	r1, r0, #3
10008278:	e7b5      	b.n	100081e6 <_free_r+0xe2>
1000827a:	f043 0001 	orr.w	r0, r3, #1
1000827e:	6050      	str	r0, [r2, #4]
10008280:	600b      	str	r3, [r1, #0]
10008282:	e788      	b.n	10008196 <_free_r+0x92>
10008284:	f101 005c 	add.w	r0, r1, #92	@ 0x5c
10008288:	f101 045b 	add.w	r4, r1, #91	@ 0x5b
1000828c:	00c1      	lsls	r1, r0, #3
1000828e:	e7aa      	b.n	100081e6 <_free_r+0xe2>
10008290:	e9c5 2204 	strd	r2, r2, [r5, #16]
10008294:	e9c2 cc02 	strd	ip, ip, [r2, #8]
10008298:	6054      	str	r4, [r2, #4]
1000829a:	50d3      	str	r3, [r2, r3]
1000829c:	e77b      	b.n	10008196 <_free_r+0x92>
1000829e:	10a4      	asrs	r4, r4, #2
100082a0:	2301      	movs	r3, #1
100082a2:	40a3      	lsls	r3, r4
100082a4:	686c      	ldr	r4, [r5, #4]
100082a6:	4323      	orrs	r3, r4
100082a8:	606b      	str	r3, [r5, #4]
100082aa:	e7ab      	b.n	10008204 <_free_r+0x100>
100082ac:	f5b1 7faa 	cmp.w	r1, #340	@ 0x154
100082b0:	d806      	bhi.n	100082c0 <_free_r+0x1bc>
100082b2:	0bd9      	lsrs	r1, r3, #15
100082b4:	f101 0078 	add.w	r0, r1, #120	@ 0x78
100082b8:	f101 0477 	add.w	r4, r1, #119	@ 0x77
100082bc:	00c1      	lsls	r1, r0, #3
100082be:	e792      	b.n	100081e6 <_free_r+0xe2>
100082c0:	f240 5054 	movw	r0, #1364	@ 0x554
100082c4:	4281      	cmp	r1, r0
100082c6:	d806      	bhi.n	100082d6 <_free_r+0x1d2>
100082c8:	0c99      	lsrs	r1, r3, #18
100082ca:	f101 007d 	add.w	r0, r1, #125	@ 0x7d
100082ce:	f101 047c 	add.w	r4, r1, #124	@ 0x7c
100082d2:	00c1      	lsls	r1, r0, #3
100082d4:	e787      	b.n	100081e6 <_free_r+0xe2>
100082d6:	f44f 717e 	mov.w	r1, #1016	@ 0x3f8
100082da:	247e      	movs	r4, #126	@ 0x7e
100082dc:	e783      	b.n	100081e6 <_free_r+0xe2>
100082de:	bf00      	nop
100082e0:	20000668 	.word	0x20000668
100082e4:	20000664 	.word	0x20000664
100082e8:	20000fb4 	.word	0x20000fb4

100082ec <_strtoul_l.isra.0>:
100082ec:	e92d 47f0 	stmdb	sp!, {r4, r5, r6, r7, r8, r9, sl, lr}
100082f0:	4607      	mov	r7, r0
100082f2:	460e      	mov	r6, r1
100082f4:	4845      	ldr	r0, [pc, #276]	@ (1000840c <_strtoul_l.isra.0+0x120>)
100082f6:	4635      	mov	r5, r6
100082f8:	f816 eb01 	ldrb.w	lr, [r6], #1
100082fc:	f810 c00e 	ldrb.w	ip, [r0, lr]
10008300:	f01c 0c08 	ands.w	ip, ip, #8
10008304:	d1f7      	bne.n	100082f6 <_strtoul_l.isra.0+0xa>
10008306:	f1be 0f2d 	cmp.w	lr, #45	@ 0x2d
1000830a:	d063      	beq.n	100083d4 <_strtoul_l.isra.0+0xe8>
1000830c:	f1be 0f2b 	cmp.w	lr, #43	@ 0x2b
10008310:	d03a      	beq.n	10008388 <_strtoul_l.isra.0+0x9c>
10008312:	4664      	mov	r4, ip
10008314:	f033 0010 	bics.w	r0, r3, #16
10008318:	d03e      	beq.n	10008398 <_strtoul_l.isra.0+0xac>
1000831a:	f04f 38ff 	mov.w	r8, #4294967295	@ 0xffffffff
1000831e:	469a      	mov	sl, r3
10008320:	fbb8 f8f3 	udiv	r8, r8, r3
10008324:	fb03 f908 	mul.w	r9, r3, r8
10008328:	ea6f 0909 	mvn.w	r9, r9
1000832c:	2500      	movs	r5, #0
1000832e:	4628      	mov	r0, r5
10008330:	e00e      	b.n	10008350 <_strtoul_l.isra.0+0x64>
10008332:	f1ae 0c37 	sub.w	ip, lr, #55	@ 0x37
10008336:	4563      	cmp	r3, ip
10008338:	dd1d      	ble.n	10008376 <_strtoul_l.isra.0+0x8a>
1000833a:	3501      	adds	r5, #1
1000833c:	d004      	beq.n	10008348 <_strtoul_l.isra.0+0x5c>
1000833e:	4540      	cmp	r0, r8
10008340:	d802      	bhi.n	10008348 <_strtoul_l.isra.0+0x5c>
10008342:	d134      	bne.n	100083ae <_strtoul_l.isra.0+0xc2>
10008344:	45cc      	cmp	ip, r9
10008346:	dd32      	ble.n	100083ae <_strtoul_l.isra.0+0xc2>
10008348:	f04f 35ff 	mov.w	r5, #4294967295	@ 0xffffffff
1000834c:	f816 eb01 	ldrb.w	lr, [r6], #1
10008350:	f1ae 0c30 	sub.w	ip, lr, #48	@ 0x30
10008354:	f1bc 0f09 	cmp.w	ip, #9
10008358:	d9ed      	bls.n	10008336 <_strtoul_l.isra.0+0x4a>
1000835a:	f1ae 0c41 	sub.w	ip, lr, #65	@ 0x41
1000835e:	f1bc 0f19 	cmp.w	ip, #25
10008362:	d9e6      	bls.n	10008332 <_strtoul_l.isra.0+0x46>
10008364:	f1ae 0c61 	sub.w	ip, lr, #97	@ 0x61
10008368:	f1bc 0f19 	cmp.w	ip, #25
1000836c:	d803      	bhi.n	10008376 <_strtoul_l.isra.0+0x8a>
1000836e:	f1ae 0c57 	sub.w	ip, lr, #87	@ 0x57
10008372:	4563      	cmp	r3, ip
10008374:	dce1      	bgt.n	1000833a <_strtoul_l.isra.0+0x4e>
10008376:	1c6b      	adds	r3, r5, #1
10008378:	d025      	beq.n	100083c6 <_strtoul_l.isra.0+0xda>
1000837a:	b104      	cbz	r4, 1000837e <_strtoul_l.isra.0+0x92>
1000837c:	4240      	negs	r0, r0
1000837e:	b10a      	cbz	r2, 10008384 <_strtoul_l.isra.0+0x98>
10008380:	bb35      	cbnz	r5, 100083d0 <_strtoul_l.isra.0+0xe4>
10008382:	6011      	str	r1, [r2, #0]
10008384:	e8bd 87f0 	ldmia.w	sp!, {r4, r5, r6, r7, r8, r9, sl, pc}
10008388:	f033 0010 	bics.w	r0, r3, #16
1000838c:	f896 e000 	ldrb.w	lr, [r6]
10008390:	4664      	mov	r4, ip
10008392:	f105 0602 	add.w	r6, r5, #2
10008396:	d1c0      	bne.n	1000831a <_strtoul_l.isra.0+0x2e>
10008398:	f1be 0f30 	cmp.w	lr, #48	@ 0x30
1000839c:	d01f      	beq.n	100083de <_strtoul_l.isra.0+0xf2>
1000839e:	b95b      	cbnz	r3, 100083b8 <_strtoul_l.isra.0+0xcc>
100083a0:	230a      	movs	r3, #10
100083a2:	f04f 0905 	mov.w	r9, #5
100083a6:	f8df 8068 	ldr.w	r8, [pc, #104]	@ 10008410 <_strtoul_l.isra.0+0x124>
100083aa:	469a      	mov	sl, r3
100083ac:	e7be      	b.n	1000832c <_strtoul_l.isra.0+0x40>
100083ae:	fb0a c000 	mla	r0, sl, r0, ip
100083b2:	2501      	movs	r5, #1
100083b4:	e7ca      	b.n	1000834c <_strtoul_l.isra.0+0x60>
100083b6:	b30b      	cbz	r3, 100083fc <_strtoul_l.isra.0+0x110>
100083b8:	2310      	movs	r3, #16
100083ba:	f04f 090f 	mov.w	r9, #15
100083be:	f06f 4870 	mvn.w	r8, #4026531840	@ 0xf0000000
100083c2:	469a      	mov	sl, r3
100083c4:	e7b2      	b.n	1000832c <_strtoul_l.isra.0+0x40>
100083c6:	2322      	movs	r3, #34	@ 0x22
100083c8:	4628      	mov	r0, r5
100083ca:	603b      	str	r3, [r7, #0]
100083cc:	2a00      	cmp	r2, #0
100083ce:	d0d9      	beq.n	10008384 <_strtoul_l.isra.0+0x98>
100083d0:	1e71      	subs	r1, r6, #1
100083d2:	e7d6      	b.n	10008382 <_strtoul_l.isra.0+0x96>
100083d4:	f896 e000 	ldrb.w	lr, [r6]
100083d8:	2401      	movs	r4, #1
100083da:	1cae      	adds	r6, r5, #2
100083dc:	e79a      	b.n	10008314 <_strtoul_l.isra.0+0x28>
100083de:	7830      	ldrb	r0, [r6, #0]
100083e0:	f000 00df 	and.w	r0, r0, #223	@ 0xdf
100083e4:	2858      	cmp	r0, #88	@ 0x58
100083e6:	d1e6      	bne.n	100083b6 <_strtoul_l.isra.0+0xca>
100083e8:	2310      	movs	r3, #16
100083ea:	f896 e001 	ldrb.w	lr, [r6, #1]
100083ee:	f04f 090f 	mov.w	r9, #15
100083f2:	3602      	adds	r6, #2
100083f4:	f06f 4870 	mvn.w	r8, #4026531840	@ 0xf0000000
100083f8:	469a      	mov	sl, r3
100083fa:	e797      	b.n	1000832c <_strtoul_l.isra.0+0x40>
100083fc:	2308      	movs	r3, #8
100083fe:	f04f 0907 	mov.w	r9, #7
10008402:	f06f 4860 	mvn.w	r8, #3758096384	@ 0xe0000000
10008406:	469a      	mov	sl, r3
10008408:	e790      	b.n	1000832c <_strtoul_l.isra.0+0x40>
1000840a:	bf00      	nop
1000840c:	1000e1e5 	.word	0x1000e1e5
10008410:	19999999 	.word	0x19999999

10008414 <_strtoul_r>:
10008414:	f7ff bf6a 	b.w	100082ec <_strtoul_l.isra.0>

10008418 <_sungetc_r>:
10008418:	b538      	push	{r3, r4, r5, lr}
1000841a:	1c4b      	adds	r3, r1, #1
1000841c:	d01a      	beq.n	10008454 <_sungetc_r+0x3c>
1000841e:	8993      	ldrh	r3, [r2, #12]
10008420:	4614      	mov	r4, r2
10008422:	6852      	ldr	r2, [r2, #4]
10008424:	b2cd      	uxtb	r5, r1
10008426:	f023 0320 	bic.w	r3, r3, #32
1000842a:	81a3      	strh	r3, [r4, #12]
1000842c:	6b23      	ldr	r3, [r4, #48]	@ 0x30
1000842e:	b1a3      	cbz	r3, 1000845a <_sungetc_r+0x42>
10008430:	6b63      	ldr	r3, [r4, #52]	@ 0x34
10008432:	4293      	cmp	r3, r2
10008434:	dd09      	ble.n	1000844a <_sungetc_r+0x32>
10008436:	6823      	ldr	r3, [r4, #0]
10008438:	1e5a      	subs	r2, r3, #1
1000843a:	6022      	str	r2, [r4, #0]
1000843c:	f803 5c01 	strb.w	r5, [r3, #-1]
10008440:	6863      	ldr	r3, [r4, #4]
10008442:	3301      	adds	r3, #1
10008444:	6063      	str	r3, [r4, #4]
10008446:	4628      	mov	r0, r5
10008448:	bd38      	pop	{r3, r4, r5, pc}
1000844a:	4621      	mov	r1, r4
1000844c:	f001 fd50 	bl	10009ef0 <__submore>
10008450:	2800      	cmp	r0, #0
10008452:	d0f0      	beq.n	10008436 <_sungetc_r+0x1e>
10008454:	f04f 35ff 	mov.w	r5, #4294967295	@ 0xffffffff
10008458:	e7f5      	b.n	10008446 <_sungetc_r+0x2e>
1000845a:	6923      	ldr	r3, [r4, #16]
1000845c:	6821      	ldr	r1, [r4, #0]
1000845e:	b12b      	cbz	r3, 1000846c <_sungetc_r+0x54>
10008460:	428b      	cmp	r3, r1
10008462:	d203      	bcs.n	1000846c <_sungetc_r+0x54>
10008464:	f811 3c01 	ldrb.w	r3, [r1, #-1]
10008468:	42ab      	cmp	r3, r5
1000846a:	d00e      	beq.n	1000848a <_sungetc_r+0x72>
1000846c:	4623      	mov	r3, r4
1000846e:	f104 0040 	add.w	r0, r4, #64	@ 0x40
10008472:	e9c4 120e 	strd	r1, r2, [r4, #56]	@ 0x38
10008476:	2103      	movs	r1, #3
10008478:	2201      	movs	r2, #1
1000847a:	6320      	str	r0, [r4, #48]	@ 0x30
1000847c:	4628      	mov	r0, r5
1000847e:	6361      	str	r1, [r4, #52]	@ 0x34
10008480:	f803 5f42 	strb.w	r5, [r3, #66]!
10008484:	e9c4 3200 	strd	r3, r2, [r4]
10008488:	bd38      	pop	{r3, r4, r5, pc}
1000848a:	3901      	subs	r1, #1
1000848c:	3201      	adds	r2, #1
1000848e:	e9c4 1200 	strd	r1, r2, [r4]
10008492:	e7d8      	b.n	10008446 <_sungetc_r+0x2e>

10008494 <__ssrefill_r>:
10008494:	b510      	push	{r4, lr}
10008496:	460c      	mov	r4, r1
10008498:	6b09      	ldr	r1, [r1, #48]	@ 0x30
1000849a:	b169      	cbz	r1, 100084b8 <__ssrefill_r+0x24>
1000849c:	f104 0340 	add.w	r3, r4, #64	@ 0x40
100084a0:	4299      	cmp	r1, r3
100084a2:	d001      	beq.n	100084a8 <__ssrefill_r+0x14>
100084a4:	f7ff fe2e 	bl	10008104 <_free_r>
100084a8:	2000      	movs	r0, #0
100084aa:	6be3      	ldr	r3, [r4, #60]	@ 0x3c
100084ac:	6320      	str	r0, [r4, #48]	@ 0x30
100084ae:	6063      	str	r3, [r4, #4]
100084b0:	b113      	cbz	r3, 100084b8 <__ssrefill_r+0x24>
100084b2:	6ba3      	ldr	r3, [r4, #56]	@ 0x38
100084b4:	6023      	str	r3, [r4, #0]
100084b6:	bd10      	pop	{r4, pc}
100084b8:	89a2      	ldrh	r2, [r4, #12]
100084ba:	2100      	movs	r1, #0
100084bc:	6923      	ldr	r3, [r4, #16]
100084be:	f04f 30ff 	mov.w	r0, #4294967295	@ 0xffffffff
100084c2:	f042 0220 	orr.w	r2, r2, #32
100084c6:	6061      	str	r1, [r4, #4]
100084c8:	81a2      	strh	r2, [r4, #12]
100084ca:	e7f3      	b.n	100084b4 <__ssrefill_r+0x20>

100084cc <_sfread_r>:
100084cc:	e92d 4ff0 	stmdb	sp!, {r4, r5, r6, r7, r8, r9, sl, fp, lr}
100084d0:	4683      	mov	fp, r0
100084d2:	b085      	sub	sp, #20
100084d4:	fb02 f003 	mul.w	r0, r2, r3
100084d8:	9c0e      	ldr	r4, [sp, #56]	@ 0x38
100084da:	9301      	str	r3, [sp, #4]
100084dc:	b3a0      	cbz	r0, 10008548 <_sfread_r+0x7c>
100084de:	4688      	mov	r8, r1
100084e0:	4606      	mov	r6, r0
100084e2:	e9d4 1500 	ldrd	r1, r5, [r4]
100084e6:	42a8      	cmp	r0, r5
100084e8:	d923      	bls.n	10008532 <_sfread_r+0x66>
100084ea:	f04f 0900 	mov.w	r9, #0
100084ee:	f104 0a40 	add.w	sl, r4, #64	@ 0x40
100084f2:	e9cd 0202 	strd	r0, r2, [sp, #8]
100084f6:	4640      	mov	r0, r8
100084f8:	462a      	mov	r2, r5
100084fa:	f7ff fd03 	bl	10007f04 <memcpy>
100084fe:	6821      	ldr	r1, [r4, #0]
10008500:	6b23      	ldr	r3, [r4, #48]	@ 0x30
10008502:	4658      	mov	r0, fp
10008504:	194f      	adds	r7, r1, r5
10008506:	44a8      	add	r8, r5
10008508:	4619      	mov	r1, r3
1000850a:	f8c4 9004 	str.w	r9, [r4, #4]
1000850e:	6027      	str	r7, [r4, #0]
10008510:	4637      	mov	r7, r6
10008512:	1b76      	subs	r6, r6, r5
10008514:	b1db      	cbz	r3, 1000854e <_sfread_r+0x82>
10008516:	4553      	cmp	r3, sl
10008518:	d001      	beq.n	1000851e <_sfread_r+0x52>
1000851a:	f7ff fdf3 	bl	10008104 <_free_r>
1000851e:	6be0      	ldr	r0, [r4, #60]	@ 0x3c
10008520:	f8c4 9030 	str.w	r9, [r4, #48]	@ 0x30
10008524:	6060      	str	r0, [r4, #4]
10008526:	b190      	cbz	r0, 1000854e <_sfread_r+0x82>
10008528:	6ba1      	ldr	r1, [r4, #56]	@ 0x38
1000852a:	42b0      	cmp	r0, r6
1000852c:	4605      	mov	r5, r0
1000852e:	6021      	str	r1, [r4, #0]
10008530:	d3e1      	bcc.n	100084f6 <_sfread_r+0x2a>
10008532:	4632      	mov	r2, r6
10008534:	4640      	mov	r0, r8
10008536:	f7ff fce5 	bl	10007f04 <memcpy>
1000853a:	9801      	ldr	r0, [sp, #4]
1000853c:	e9d4 3200 	ldrd	r3, r2, [r4]
10008540:	1b92      	subs	r2, r2, r6
10008542:	4433      	add	r3, r6
10008544:	e9c4 3200 	strd	r3, r2, [r4]
10008548:	b005      	add	sp, #20
1000854a:	e8bd 8ff0 	ldmia.w	sp!, {r4, r5, r6, r7, r8, r9, sl, fp, pc}
1000854e:	e9dd 0202 	ldrd	r0, r2, [sp, #8]
10008552:	89a3      	ldrh	r3, [r4, #12]
10008554:	4428      	add	r0, r5
10008556:	f043 0320 	orr.w	r3, r3, #32
1000855a:	1bc0      	subs	r0, r0, r7
1000855c:	81a3      	strh	r3, [r4, #12]
1000855e:	2300      	movs	r3, #0
10008560:	fbb0 f0f2 	udiv	r0, r0, r2
10008564:	6922      	ldr	r2, [r4, #16]
10008566:	e9c4 2300 	strd	r2, r3, [r4]
1000856a:	b005      	add	sp, #20
1000856c:	e8bd 8ff0 	ldmia.w	sp!, {r4, r5, r6, r7, r8, r9, sl, fp, pc}

10008570 <__ssvfscanf_r>:
10008570:	e92d 4ff0 	stmdb	sp!, {r4, r5, r6, r7, r8, r9, sl, fp, lr}
10008574:	f5ad 7d37 	sub.w	sp, sp, #732	@ 0x2dc
10008578:	4690      	mov	r8, r2
1000857a:	468a      	mov	sl, r1
1000857c:	af02      	add	r7, sp, #8
1000857e:	6e4a      	ldr	r2, [r1, #100]	@ 0x64
10008580:	62fb      	str	r3, [r7, #44]	@ 0x2c
10008582:	f9b1 300c 	ldrsh.w	r3, [r1, #12]
10008586:	64b8      	str	r0, [r7, #72]	@ 0x48
10008588:	049e      	lsls	r6, r3, #18
1000858a:	f100 811a 	bmi.w	100087c2 <__ssvfscanf_r+0x252>
1000858e:	f443 5300 	orr.w	r3, r3, #8192	@ 0x2000
10008592:	f422 5200 	bic.w	r2, r2, #8192	@ 0x2000
10008596:	818b      	strh	r3, [r1, #12]
10008598:	664a      	str	r2, [r1, #100]	@ 0x64
1000859a:	2208      	movs	r2, #8
1000859c:	2100      	movs	r1, #0
1000859e:	f107 0058 	add.w	r0, r7, #88	@ 0x58
100085a2:	f7ff fb59 	bl	10007c58 <memset>
100085a6:	f04f 0e00 	mov.w	lr, #0
100085aa:	f8c7 804c 	str.w	r8, [r7, #76]	@ 0x4c
100085ae:	46f3      	mov	fp, lr
100085b0:	f8c7 e034 	str.w	lr, [r7, #52]	@ 0x34
100085b4:	f8c7 e020 	str.w	lr, [r7, #32]
100085b8:	f8c7 e038 	str.w	lr, [r7, #56]	@ 0x38
100085bc:	f8c7 e040 	str.w	lr, [r7, #64]	@ 0x40
100085c0:	f8c7 e024 	str.w	lr, [r7, #36]	@ 0x24
100085c4:	4b98      	ldr	r3, [pc, #608]	@ (10008828 <__ssvfscanf_r+0x2b8>)
100085c6:	f8d3 40e4 	ldr.w	r4, [r3, #228]	@ 0xe4
100085ca:	f001 fd3b 	bl	1000a044 <__locale_mb_cur_max>
100085ce:	f107 0258 	add.w	r2, r7, #88	@ 0x58
100085d2:	4603      	mov	r3, r0
100085d4:	f107 0154 	add.w	r1, r7, #84	@ 0x54
100085d8:	9200      	str	r2, [sp, #0]
100085da:	6cfa      	ldr	r2, [r7, #76]	@ 0x4c
100085dc:	6cb8      	ldr	r0, [r7, #72]	@ 0x48
100085de:	47a0      	blx	r4
100085e0:	2800      	cmp	r0, #0
100085e2:	f2c0 80cf 	blt.w	10008784 <__ssvfscanf_r+0x214>
100085e6:	6cfb      	ldr	r3, [r7, #76]	@ 0x4c
100085e8:	4602      	mov	r2, r0
100085ea:	4403      	add	r3, r0
100085ec:	64fb      	str	r3, [r7, #76]	@ 0x4c
100085ee:	6d7b      	ldr	r3, [r7, #84]	@ 0x54
100085f0:	2b00      	cmp	r3, #0
100085f2:	f000 80be 	beq.w	10008772 <__ssvfscanf_r+0x202>
100085f6:	2801      	cmp	r0, #1
100085f8:	f000 80d3 	beq.w	100087a2 <__ssvfscanf_r+0x232>
100085fc:	2b25      	cmp	r3, #37	@ 0x25
100085fe:	d052      	beq.n	100086a6 <__ssvfscanf_r+0x136>
10008600:	2800      	cmp	r0, #0
10008602:	d0df      	beq.n	100085c4 <__ssvfscanf_r+0x54>
10008604:	6cfb      	ldr	r3, [r7, #76]	@ 0x4c
10008606:	1a9e      	subs	r6, r3, r2
10008608:	f8da 3004 	ldr.w	r3, [sl, #4]
1000860c:	4430      	add	r0, r6
1000860e:	1e75      	subs	r5, r6, #1
10008610:	461a      	mov	r2, r3
10008612:	1e44      	subs	r4, r0, #1
10008614:	2a00      	cmp	r2, #0
10008616:	dd16      	ble.n	10008646 <__ssvfscanf_r+0xd6>
10008618:	f8da 3000 	ldr.w	r3, [sl]
1000861c:	1c69      	adds	r1, r5, #1
1000861e:	786a      	ldrb	r2, [r5, #1]
10008620:	7818      	ldrb	r0, [r3, #0]
10008622:	3301      	adds	r3, #1
10008624:	4290      	cmp	r0, r2
10008626:	f040 80a4 	bne.w	10008772 <__ssvfscanf_r+0x202>
1000862a:	f8da 2004 	ldr.w	r2, [sl, #4]
1000862e:	428c      	cmp	r4, r1
10008630:	f8ca 3000 	str.w	r3, [sl]
10008634:	f102 32ff 	add.w	r2, r2, #4294967295	@ 0xffffffff
10008638:	f8ca 2004 	str.w	r2, [sl, #4]
1000863c:	f000 80bc 	beq.w	100087b8 <__ssvfscanf_r+0x248>
10008640:	2a00      	cmp	r2, #0
10008642:	460d      	mov	r5, r1
10008644:	dce8      	bgt.n	10008618 <__ssvfscanf_r+0xa8>
10008646:	4651      	mov	r1, sl
10008648:	6cb8      	ldr	r0, [r7, #72]	@ 0x48
1000864a:	f7ff ff23 	bl	10008494 <__ssrefill_r>
1000864e:	2800      	cmp	r0, #0
10008650:	d0e2      	beq.n	10008618 <__ssvfscanf_r+0xa8>
10008652:	6c3b      	ldr	r3, [r7, #64]	@ 0x40
10008654:	2b00      	cmp	r3, #0
10008656:	f040 8087 	bne.w	10008768 <__ssvfscanf_r+0x1f8>
1000865a:	6b7b      	ldr	r3, [r7, #52]	@ 0x34
1000865c:	2b00      	cmp	r3, #0
1000865e:	f000 80b3 	beq.w	100087c8 <__ssvfscanf_r+0x258>
10008662:	6b7b      	ldr	r3, [r7, #52]	@ 0x34
10008664:	88de      	ldrh	r6, [r3, #6]
10008666:	6818      	ldr	r0, [r3, #0]
10008668:	b17e      	cbz	r6, 1000868a <__ssvfscanf_r+0x11a>
1000866a:	2400      	movs	r4, #0
1000866c:	1f05      	subs	r5, r0, #4
1000866e:	4681      	mov	r9, r0
10008670:	46a0      	mov	r8, r4
10008672:	f855 3f04 	ldr.w	r3, [r5, #4]!
10008676:	3401      	adds	r4, #1
10008678:	6818      	ldr	r0, [r3, #0]
1000867a:	f7fc fd7d 	bl	10005178 <__wrap_free>
1000867e:	682b      	ldr	r3, [r5, #0]
10008680:	42b4      	cmp	r4, r6
10008682:	f8c3 8000 	str.w	r8, [r3]
10008686:	d1f4      	bne.n	10008672 <__ssvfscanf_r+0x102>
10008688:	4648      	mov	r0, r9
1000868a:	f04f 33ff 	mov.w	r3, #4294967295	@ 0xffffffff
1000868e:	643b      	str	r3, [r7, #64]	@ 0x40
10008690:	b108      	cbz	r0, 10008696 <__ssvfscanf_r+0x126>
10008692:	f7fc fd71 	bl	10005178 <__wrap_free>
10008696:	6c38      	ldr	r0, [r7, #64]	@ 0x40
10008698:	f507 7735 	add.w	r7, r7, #724	@ 0x2d4
1000869c:	46bd      	mov	sp, r7
1000869e:	e8bd 8ff0 	ldmia.w	sp!, {r4, r5, r6, r7, r8, r9, sl, fp, pc}
100086a2:	2001      	movs	r0, #1
100086a4:	4602      	mov	r2, r0
100086a6:	2400      	movs	r4, #0
100086a8:	6cfd      	ldr	r5, [r7, #76]	@ 0x4c
100086aa:	46a1      	mov	r9, r4
100086ac:	7829      	ldrb	r1, [r5, #0]
100086ae:	f1a1 0325 	sub.w	r3, r1, #37	@ 0x25
100086b2:	1c6e      	adds	r6, r5, #1
100086b4:	2b55      	cmp	r3, #85	@ 0x55
100086b6:	d85c      	bhi.n	10008772 <__ssvfscanf_r+0x202>
100086b8:	e8df f013 	tbh	[pc, r3, lsl #1]
100086bc:	005b03a5 	.word	0x005b03a5
100086c0:	005b005b 	.word	0x005b005b
100086c4:	0347005b 	.word	0x0347005b
100086c8:	005b005b 	.word	0x005b005b
100086cc:	005b005b 	.word	0x005b005b
100086d0:	00ba005b 	.word	0x00ba005b
100086d4:	00ba00ba 	.word	0x00ba00ba
100086d8:	00ba00ba 	.word	0x00ba00ba
100086dc:	00ba00ba 	.word	0x00ba00ba
100086e0:	00ba00ba 	.word	0x00ba00ba
100086e4:	005b00ba 	.word	0x005b00ba
100086e8:	005b005b 	.word	0x005b005b
100086ec:	005b005b 	.word	0x005b005b
100086f0:	005b005b 	.word	0x005b005b
100086f4:	005b00c6 	.word	0x005b00c6
100086f8:	0339016e 	.word	0x0339016e
100086fc:	00c600c6 	.word	0x00c600c6
10008700:	005b00c6 	.word	0x005b00c6
10008704:	005b005b 	.word	0x005b005b
10008708:	008f005b 	.word	0x008f005b
1000870c:	005b005b 	.word	0x005b005b
10008710:	005b034f 	.word	0x005b034f
10008714:	005b005b 	.word	0x005b005b
10008718:	005b0235 	.word	0x005b0235
1000871c:	005b005b 	.word	0x005b005b
10008720:	00fb005b 	.word	0x00fb005b
10008724:	005b005b 	.word	0x005b005b
10008728:	005b023f 	.word	0x005b023f
1000872c:	005b005b 	.word	0x005b005b
10008730:	005b005b 	.word	0x005b005b
10008734:	005b00c6 	.word	0x005b00c6
10008738:	0150035d 	.word	0x0150035d
1000873c:	00c600c6 	.word	0x00c600c6
10008740:	015600c6 	.word	0x015600c6
10008744:	008f0161 	.word	0x008f0161
10008748:	032e005b 	.word	0x032e005b
1000874c:	01080228 	.word	0x01080228
10008750:	012e011b 	.word	0x012e011b
10008754:	005b005b 	.word	0x005b005b
10008758:	008a0127 	.word	0x008a0127
1000875c:	005b013c 	.word	0x005b013c
10008760:	00fb005b 	.word	0x00fb005b
10008764:	008a005b 	.word	0x008a005b
10008768:	f8ba 300c 	ldrh.w	r3, [sl, #12]
1000876c:	065a      	lsls	r2, r3, #25
1000876e:	f53f af74 	bmi.w	1000865a <__ssvfscanf_r+0xea>
10008772:	6b7b      	ldr	r3, [r7, #52]	@ 0x34
10008774:	2b00      	cmp	r3, #0
10008776:	d08e      	beq.n	10008696 <__ssvfscanf_r+0x126>
10008778:	6b7b      	ldr	r3, [r7, #52]	@ 0x34
1000877a:	6818      	ldr	r0, [r3, #0]
1000877c:	6c3b      	ldr	r3, [r7, #64]	@ 0x40
1000877e:	3301      	adds	r3, #1
10008780:	d186      	bne.n	10008690 <__ssvfscanf_r+0x120>
10008782:	e76e      	b.n	10008662 <__ssvfscanf_r+0xf2>
10008784:	f64f 73fd 	movw	r3, #65533	@ 0xfffd
10008788:	2208      	movs	r2, #8
1000878a:	2100      	movs	r1, #0
1000878c:	f107 0058 	add.w	r0, r7, #88	@ 0x58
10008790:	657b      	str	r3, [r7, #84]	@ 0x54
10008792:	f7ff fa61 	bl	10007c58 <memset>
10008796:	6cfb      	ldr	r3, [r7, #76]	@ 0x4c
10008798:	3301      	adds	r3, #1
1000879a:	64fb      	str	r3, [r7, #76]	@ 0x4c
1000879c:	6d7b      	ldr	r3, [r7, #84]	@ 0x54
1000879e:	2b00      	cmp	r3, #0
100087a0:	d0e7      	beq.n	10008772 <__ssvfscanf_r+0x202>
100087a2:	4a22      	ldr	r2, [pc, #136]	@ (1000882c <__ssvfscanf_r+0x2bc>)
100087a4:	5cd2      	ldrb	r2, [r2, r3]
100087a6:	0714      	lsls	r4, r2, #28
100087a8:	d41e      	bmi.n	100087e8 <__ssvfscanf_r+0x278>
100087aa:	2b25      	cmp	r3, #37	@ 0x25
100087ac:	f43f af79 	beq.w	100086a2 <__ssvfscanf_r+0x132>
100087b0:	6cfb      	ldr	r3, [r7, #76]	@ 0x4c
100087b2:	2001      	movs	r0, #1
100087b4:	1e5e      	subs	r6, r3, #1
100087b6:	e727      	b.n	10008608 <__ssvfscanf_r+0x98>
100087b8:	3502      	adds	r5, #2
100087ba:	445d      	add	r5, fp
100087bc:	eba5 0b06 	sub.w	fp, r5, r6
100087c0:	e700      	b.n	100085c4 <__ssvfscanf_r+0x54>
100087c2:	0495      	lsls	r5, r2, #18
100087c4:	f57f aee9 	bpl.w	1000859a <__ssvfscanf_r+0x2a>
100087c8:	f04f 33ff 	mov.w	r3, #4294967295	@ 0xffffffff
100087cc:	643b      	str	r3, [r7, #64]	@ 0x40
100087ce:	e762      	b.n	10008696 <__ssvfscanf_r+0x126>
100087d0:	0723      	lsls	r3, r4, #28
100087d2:	d1ce      	bne.n	10008772 <__ssvfscanf_r+0x202>
100087d4:	7869      	ldrb	r1, [r5, #1]
100087d6:	4635      	mov	r5, r6
100087d8:	e769      	b.n	100086ae <__ssvfscanf_r+0x13e>
100087da:	0721      	lsls	r1, r4, #28
100087dc:	d1c9      	bne.n	10008772 <__ssvfscanf_r+0x202>
100087de:	7869      	ldrb	r1, [r5, #1]
100087e0:	f044 0402 	orr.w	r4, r4, #2
100087e4:	4635      	mov	r5, r6
100087e6:	e762      	b.n	100086ae <__ssvfscanf_r+0x13e>
100087e8:	f8da 2004 	ldr.w	r2, [sl, #4]
100087ec:	6cbc      	ldr	r4, [r7, #72]	@ 0x48
100087ee:	e011      	b.n	10008814 <__ssvfscanf_r+0x2a4>
100087f0:	f8da 3000 	ldr.w	r3, [sl]
100087f4:	490d      	ldr	r1, [pc, #52]	@ (1000882c <__ssvfscanf_r+0x2bc>)
100087f6:	781a      	ldrb	r2, [r3, #0]
100087f8:	3301      	adds	r3, #1
100087fa:	5c8a      	ldrb	r2, [r1, r2]
100087fc:	0710      	lsls	r0, r2, #28
100087fe:	f57f aee1 	bpl.w	100085c4 <__ssvfscanf_r+0x54>
10008802:	f8da 2004 	ldr.w	r2, [sl, #4]
10008806:	f10b 0b01 	add.w	fp, fp, #1
1000880a:	f8ca 3000 	str.w	r3, [sl]
1000880e:	3a01      	subs	r2, #1
10008810:	f8ca 2004 	str.w	r2, [sl, #4]
10008814:	2a00      	cmp	r2, #0
10008816:	dceb      	bgt.n	100087f0 <__ssvfscanf_r+0x280>
10008818:	4651      	mov	r1, sl
1000881a:	4620      	mov	r0, r4
1000881c:	f7ff fe3a 	bl	10008494 <__ssrefill_r>
10008820:	2800      	cmp	r0, #0
10008822:	d0e5      	beq.n	100087f0 <__ssvfscanf_r+0x280>
10008824:	e6ce      	b.n	100085c4 <__ssvfscanf_r+0x54>
10008826:	bf00      	nop
10008828:	20000bb8 	.word	0x20000bb8
1000882c:	1000e1e5 	.word	0x1000e1e5
10008830:	f014 0f8f 	tst.w	r4, #143	@ 0x8f
10008834:	d19d      	bne.n	10008772 <__ssvfscanf_r+0x202>
10008836:	eb09 0989 	add.w	r9, r9, r9, lsl #2
1000883a:	eb01 0949 	add.w	r9, r1, r9, lsl #1
1000883e:	7869      	ldrb	r1, [r5, #1]
10008840:	4635      	mov	r5, r6
10008842:	f1a9 0930 	sub.w	r9, r9, #48	@ 0x30
10008846:	e732      	b.n	100086ae <__ssvfscanf_r+0x13e>
10008848:	f8da 3004 	ldr.w	r3, [sl, #4]
1000884c:	633e      	str	r6, [r7, #48]	@ 0x30
1000884e:	2604      	movs	r6, #4
10008850:	2b00      	cmp	r3, #0
10008852:	dd7b      	ble.n	1000894c <__ssvfscanf_r+0x3dc>
10008854:	f8da 2000 	ldr.w	r2, [sl]
10008858:	4da9      	ldr	r5, [pc, #676]	@ (10008b00 <__ssvfscanf_r+0x590>)
1000885a:	7813      	ldrb	r3, [r2, #0]
1000885c:	5ceb      	ldrb	r3, [r5, r3]
1000885e:	0718      	lsls	r0, r3, #28
10008860:	d51f      	bpl.n	100088a2 <__ssvfscanf_r+0x332>
10008862:	f8d7 8048 	ldr.w	r8, [r7, #72]	@ 0x48
10008866:	e005      	b.n	10008874 <__ssvfscanf_r+0x304>
10008868:	f8ca 2000 	str.w	r2, [sl]
1000886c:	7813      	ldrb	r3, [r2, #0]
1000886e:	5ceb      	ldrb	r3, [r5, r3]
10008870:	0719      	lsls	r1, r3, #28
10008872:	d516      	bpl.n	100088a2 <__ssvfscanf_r+0x332>
10008874:	f8da 3004 	ldr.w	r3, [sl, #4]
10008878:	f10b 0b01 	add.w	fp, fp, #1
1000887c:	3201      	adds	r2, #1
1000887e:	3b01      	subs	r3, #1
10008880:	2b00      	cmp	r3, #0
10008882:	f8ca 3004 	str.w	r3, [sl, #4]
10008886:	dcef      	bgt.n	10008868 <__ssvfscanf_r+0x2f8>
10008888:	4651      	mov	r1, sl
1000888a:	4640      	mov	r0, r8
1000888c:	f7ff fe02 	bl	10008494 <__ssrefill_r>
10008890:	2800      	cmp	r0, #0
10008892:	f47f aede 	bne.w	10008652 <__ssvfscanf_r+0xe2>
10008896:	f8da 2000 	ldr.w	r2, [sl]
1000889a:	7813      	ldrb	r3, [r2, #0]
1000889c:	5ceb      	ldrb	r3, [r5, r3]
1000889e:	0719      	lsls	r1, r3, #28
100088a0:	d4e8      	bmi.n	10008874 <__ssvfscanf_r+0x304>
100088a2:	3e03      	subs	r6, #3
100088a4:	2e01      	cmp	r6, #1
100088a6:	f201 808b 	bhi.w	100099c0 <__ssvfscanf_r+0x1450>
100088aa:	e8df f016 	tbh	[pc, r6, lsl #1]
100088ae:	02cf      	.short	0x02cf
100088b0:	0380      	.short	0x0380
100088b2:	f8da 3004 	ldr.w	r3, [sl, #4]
100088b6:	f444 7400 	orr.w	r4, r4, #512	@ 0x200
100088ba:	633e      	str	r6, [r7, #48]	@ 0x30
100088bc:	2b00      	cmp	r3, #0
100088be:	dd32      	ble.n	10008926 <__ssvfscanf_r+0x3b6>
100088c0:	4b90      	ldr	r3, [pc, #576]	@ (10008b04 <__ssvfscanf_r+0x594>)
100088c2:	2603      	movs	r6, #3
100088c4:	627b      	str	r3, [r7, #36]	@ 0x24
100088c6:	2310      	movs	r3, #16
100088c8:	63bb      	str	r3, [r7, #56]	@ 0x38
100088ca:	e7c3      	b.n	10008854 <__ssvfscanf_r+0x2e4>
100088cc:	06e1      	lsls	r1, r4, #27
100088ce:	633e      	str	r6, [r7, #48]	@ 0x30
100088d0:	f100 8113 	bmi.w	10008afa <__ssvfscanf_r+0x58a>
100088d4:	6afa      	ldr	r2, [r7, #44]	@ 0x2c
100088d6:	f852 3b04 	ldr.w	r3, [r2], #4
100088da:	62fa      	str	r2, [r7, #44]	@ 0x2c
100088dc:	0722      	lsls	r2, r4, #28
100088de:	f100 87ab 	bmi.w	10009838 <__ssvfscanf_r+0x12c8>
100088e2:	0766      	lsls	r6, r4, #29
100088e4:	f141 805e 	bpl.w	100099a4 <__ssvfscanf_r+0x1434>
100088e8:	f8a3 b000 	strh.w	fp, [r3]
100088ec:	6b3b      	ldr	r3, [r7, #48]	@ 0x30
100088ee:	64fb      	str	r3, [r7, #76]	@ 0x4c
100088f0:	e668      	b.n	100085c4 <__ssvfscanf_r+0x54>
100088f2:	f8da 3004 	ldr.w	r3, [sl, #4]
100088f6:	633e      	str	r6, [r7, #48]	@ 0x30
100088f8:	2603      	movs	r6, #3
100088fa:	2b00      	cmp	r3, #0
100088fc:	4b81      	ldr	r3, [pc, #516]	@ (10008b04 <__ssvfscanf_r+0x594>)
100088fe:	627b      	str	r3, [r7, #36]	@ 0x24
10008900:	f04f 0308 	mov.w	r3, #8
10008904:	63bb      	str	r3, [r7, #56]	@ 0x38
10008906:	dca5      	bgt.n	10008854 <__ssvfscanf_r+0x2e4>
10008908:	e020      	b.n	1000894c <__ssvfscanf_r+0x3dc>
1000890a:	f8da 3004 	ldr.w	r3, [sl, #4]
1000890e:	633e      	str	r6, [r7, #48]	@ 0x30
10008910:	2602      	movs	r6, #2
10008912:	2b00      	cmp	r3, #0
10008914:	dc9e      	bgt.n	10008854 <__ssvfscanf_r+0x2e4>
10008916:	e019      	b.n	1000894c <__ssvfscanf_r+0x3dc>
10008918:	f8da 3004 	ldr.w	r3, [sl, #4]
1000891c:	f444 7408 	orr.w	r4, r4, #544	@ 0x220
10008920:	633e      	str	r6, [r7, #48]	@ 0x30
10008922:	2b00      	cmp	r3, #0
10008924:	dccc      	bgt.n	100088c0 <__ssvfscanf_r+0x350>
10008926:	4651      	mov	r1, sl
10008928:	6cb8      	ldr	r0, [r7, #72]	@ 0x48
1000892a:	f7ff fdb3 	bl	10008494 <__ssrefill_r>
1000892e:	2800      	cmp	r0, #0
10008930:	d0c6      	beq.n	100088c0 <__ssvfscanf_r+0x350>
10008932:	e68e      	b.n	10008652 <__ssvfscanf_r+0xe2>
10008934:	f8da 3004 	ldr.w	r3, [sl, #4]
10008938:	633e      	str	r6, [r7, #48]	@ 0x30
1000893a:	2b00      	cmp	r3, #0
1000893c:	4b71      	ldr	r3, [pc, #452]	@ (10008b04 <__ssvfscanf_r+0x594>)
1000893e:	627b      	str	r3, [r7, #36]	@ 0x24
10008940:	f04f 030a 	mov.w	r3, #10
10008944:	f04f 0603 	mov.w	r6, #3
10008948:	63bb      	str	r3, [r7, #56]	@ 0x38
1000894a:	dc83      	bgt.n	10008854 <__ssvfscanf_r+0x2e4>
1000894c:	4651      	mov	r1, sl
1000894e:	6cb8      	ldr	r0, [r7, #72]	@ 0x48
10008950:	f7ff fda0 	bl	10008494 <__ssrefill_r>
10008954:	2800      	cmp	r0, #0
10008956:	f43f af7d 	beq.w	10008854 <__ssvfscanf_r+0x2e4>
1000895a:	e67a      	b.n	10008652 <__ssvfscanf_r+0xe2>
1000895c:	f8da 3004 	ldr.w	r3, [sl, #4]
10008960:	633e      	str	r6, [r7, #48]	@ 0x30
10008962:	2b00      	cmp	r3, #0
10008964:	4b68      	ldr	r3, [pc, #416]	@ (10008b08 <__ssvfscanf_r+0x598>)
10008966:	e7ea      	b.n	1000893e <__ssvfscanf_r+0x3ce>
10008968:	0723      	lsls	r3, r4, #28
1000896a:	f47f af02 	bne.w	10008772 <__ssvfscanf_r+0x202>
1000896e:	7869      	ldrb	r1, [r5, #1]
10008970:	2968      	cmp	r1, #104	@ 0x68
10008972:	f000 8732 	beq.w	100097da <__ssvfscanf_r+0x126a>
10008976:	f044 0404 	orr.w	r4, r4, #4
1000897a:	4635      	mov	r5, r6
1000897c:	e697      	b.n	100086ae <__ssvfscanf_r+0x13e>
1000897e:	f8da 3004 	ldr.w	r3, [sl, #4]
10008982:	633e      	str	r6, [r7, #48]	@ 0x30
10008984:	2603      	movs	r6, #3
10008986:	2b00      	cmp	r3, #0
10008988:	4b5f      	ldr	r3, [pc, #380]	@ (10008b08 <__ssvfscanf_r+0x598>)
1000898a:	627b      	str	r3, [r7, #36]	@ 0x24
1000898c:	f04f 0300 	mov.w	r3, #0
10008990:	63bb      	str	r3, [r7, #56]	@ 0x38
10008992:	f73f af5f 	bgt.w	10008854 <__ssvfscanf_r+0x2e4>
10008996:	e7d9      	b.n	1000894c <__ssvfscanf_r+0x3dc>
10008998:	f8da 3004 	ldr.w	r3, [sl, #4]
1000899c:	f044 0441 	orr.w	r4, r4, #65	@ 0x41
100089a0:	633e      	str	r6, [r7, #48]	@ 0x30
100089a2:	2b00      	cmp	r3, #0
100089a4:	f340 879b 	ble.w	100098de <__ssvfscanf_r+0x136e>
100089a8:	464d      	mov	r5, r9
100089aa:	2d01      	cmp	r5, #1
100089ac:	bf38      	it	cc
100089ae:	2501      	movcc	r5, #1
100089b0:	f014 0310 	ands.w	r3, r4, #16
100089b4:	64fb      	str	r3, [r7, #76]	@ 0x4c
100089b6:	f040 8671 	bne.w	1000969c <__ssvfscanf_r+0x112c>
100089ba:	6afb      	ldr	r3, [r7, #44]	@ 0x2c
100089bc:	f853 2b04 	ldr.w	r2, [r3], #4
100089c0:	62fb      	str	r3, [r7, #44]	@ 0x2c
100089c2:	0623      	lsls	r3, r4, #24
100089c4:	61fa      	str	r2, [r7, #28]
100089c6:	f140 877e 	bpl.w	100098c6 <__ssvfscanf_r+0x1356>
100089ca:	2a00      	cmp	r2, #0
100089cc:	f43f aed1 	beq.w	10008772 <__ssvfscanf_r+0x202>
100089d0:	2080      	movs	r0, #128	@ 0x80
100089d2:	f7fc fb97 	bl	10005104 <__wrap_malloc>
100089d6:	4606      	mov	r6, r0
100089d8:	2800      	cmp	r0, #0
100089da:	f001 801d 	beq.w	10009a18 <__ssvfscanf_r+0x14a8>
100089de:	69fb      	ldr	r3, [r7, #28]
100089e0:	6018      	str	r0, [r3, #0]
100089e2:	6b7b      	ldr	r3, [r7, #52]	@ 0x34
100089e4:	88dc      	ldrh	r4, [r3, #6]
100089e6:	f8b3 8004 	ldrh.w	r8, [r3, #4]
100089ea:	4544      	cmp	r4, r8
100089ec:	f080 868a 	bcs.w	10009704 <__ssvfscanf_r+0x1194>
100089f0:	6818      	ldr	r0, [r3, #0]
100089f2:	69fb      	ldr	r3, [r7, #28]
100089f4:	46b1      	mov	r9, r6
100089f6:	f840 3024 	str.w	r3, [r0, r4, lsl #2]
100089fa:	3401      	adds	r4, #1
100089fc:	6b7b      	ldr	r3, [r7, #52]	@ 0x34
100089fe:	80dc      	strh	r4, [r3, #6]
10008a00:	2301      	movs	r3, #1
10008a02:	62bb      	str	r3, [r7, #40]	@ 0x28
10008a04:	2320      	movs	r3, #32
10008a06:	647b      	str	r3, [r7, #68]	@ 0x44
10008a08:	f8c7 903c 	str.w	r9, [r7, #60]	@ 0x3c
10008a0c:	2400      	movs	r4, #0
10008a0e:	f507 78b8 	add.w	r8, r7, #368	@ 0x170
10008a12:	f8d7 9020 	ldr.w	r9, [r7, #32]
10008a16:	f001 fb15 	bl	1000a044 <__locale_mb_cur_max>
10008a1a:	42a0      	cmp	r0, r4
10008a1c:	f43f ae19 	beq.w	10008652 <__ssvfscanf_r+0xe2>
10008a20:	f1b9 0f03 	cmp.w	r9, #3
10008a24:	e9da 2100 	ldrd	r2, r1, [sl]
10008a28:	f812 0b01 	ldrb.w	r0, [r2], #1
10008a2c:	f101 31ff 	add.w	r1, r1, #4294967295	@ 0xffffffff
10008a30:	f808 0004 	strb.w	r0, [r8, r4]
10008a34:	f104 0401 	add.w	r4, r4, #1
10008a38:	f8ca 1004 	str.w	r1, [sl, #4]
10008a3c:	f8ca 2000 	str.w	r2, [sl]
10008a40:	d102      	bne.n	10008a48 <__ssvfscanf_r+0x4d8>
10008a42:	6ebb      	ldr	r3, [r7, #104]	@ 0x68
10008a44:	2b04      	cmp	r3, #4
10008a46:	d005      	beq.n	10008a54 <__ssvfscanf_r+0x4e4>
10008a48:	2208      	movs	r2, #8
10008a4a:	2100      	movs	r1, #0
10008a4c:	f107 0068 	add.w	r0, r7, #104	@ 0x68
10008a50:	f7ff f902 	bl	10007c58 <memset>
10008a54:	f107 0368 	add.w	r3, r7, #104	@ 0x68
10008a58:	4642      	mov	r2, r8
10008a5a:	4631      	mov	r1, r6
10008a5c:	9300      	str	r3, [sp, #0]
10008a5e:	4623      	mov	r3, r4
10008a60:	6cb8      	ldr	r0, [r7, #72]	@ 0x48
10008a62:	f002 fe73 	bl	1000b74c <_mbrtowc_r>
10008a66:	f1b0 3fff 	cmp.w	r0, #4294967295	@ 0xffffffff
10008a6a:	4681      	mov	r9, r0
10008a6c:	f43f adf1 	beq.w	10008652 <__ssvfscanf_r+0xe2>
10008a70:	2800      	cmp	r0, #0
10008a72:	f040 81cb 	bne.w	10008e0c <__ssvfscanf_r+0x89c>
10008a76:	6cfb      	ldr	r3, [r7, #76]	@ 0x4c
10008a78:	44a3      	add	fp, r4
10008a7a:	3d01      	subs	r5, #1
10008a7c:	b9b3      	cbnz	r3, 10008aac <__ssvfscanf_r+0x53c>
10008a7e:	6033      	str	r3, [r6, #0]
10008a80:	6bf8      	ldr	r0, [r7, #60]	@ 0x3c
10008a82:	6c7b      	ldr	r3, [r7, #68]	@ 0x44
10008a84:	1a34      	subs	r4, r6, r0
10008a86:	ebb3 0fa4 	cmp.w	r3, r4, asr #2
10008a8a:	d80e      	bhi.n	10008aaa <__ssvfscanf_r+0x53a>
10008a8c:	6aba      	ldr	r2, [r7, #40]	@ 0x28
10008a8e:	b162      	cbz	r2, 10008aaa <__ssvfscanf_r+0x53a>
10008a90:	00d9      	lsls	r1, r3, #3
10008a92:	f7fc fb53 	bl	1000513c <__wrap_realloc>
10008a96:	63f8      	str	r0, [r7, #60]	@ 0x3c
10008a98:	2800      	cmp	r0, #0
10008a9a:	f000 87bd 	beq.w	10009a18 <__ssvfscanf_r+0x14a8>
10008a9e:	6c7b      	ldr	r3, [r7, #68]	@ 0x44
10008aa0:	1906      	adds	r6, r0, r4
10008aa2:	005b      	lsls	r3, r3, #1
10008aa4:	647b      	str	r3, [r7, #68]	@ 0x44
10008aa6:	69fb      	ldr	r3, [r7, #28]
10008aa8:	6018      	str	r0, [r3, #0]
10008aaa:	3604      	adds	r6, #4
10008aac:	f8da 2004 	ldr.w	r2, [sl, #4]
10008ab0:	2a00      	cmp	r2, #0
10008ab2:	dd09      	ble.n	10008ac8 <__ssvfscanf_r+0x558>
10008ab4:	b175      	cbz	r5, 10008ad4 <__ssvfscanf_r+0x564>
10008ab6:	2400      	movs	r4, #0
10008ab8:	e7ad      	b.n	10008a16 <__ssvfscanf_r+0x4a6>
10008aba:	6cfb      	ldr	r3, [r7, #76]	@ 0x4c
10008abc:	2b00      	cmp	r3, #0
10008abe:	d0df      	beq.n	10008a80 <__ssvfscanf_r+0x510>
10008ac0:	f8da 2004 	ldr.w	r2, [sl, #4]
10008ac4:	2a00      	cmp	r2, #0
10008ac6:	dcf6      	bgt.n	10008ab6 <__ssvfscanf_r+0x546>
10008ac8:	4651      	mov	r1, sl
10008aca:	6cb8      	ldr	r0, [r7, #72]	@ 0x48
10008acc:	f7ff fce2 	bl	10008494 <__ssrefill_r>
10008ad0:	2800      	cmp	r0, #0
10008ad2:	d0ef      	beq.n	10008ab4 <__ssvfscanf_r+0x544>
10008ad4:	f8c7 9020 	str.w	r9, [r7, #32]
10008ad8:	f8d7 903c 	ldr.w	r9, [r7, #60]	@ 0x3c
10008adc:	eba6 0109 	sub.w	r1, r6, r9
10008ae0:	6c7b      	ldr	r3, [r7, #68]	@ 0x44
10008ae2:	ebb3 0fa1 	cmp.w	r3, r1, asr #2
10008ae6:	d903      	bls.n	10008af0 <__ssvfscanf_r+0x580>
10008ae8:	6abb      	ldr	r3, [r7, #40]	@ 0x28
10008aea:	2b00      	cmp	r3, #0
10008aec:	f040 86c3 	bne.w	10009876 <__ssvfscanf_r+0x1306>
10008af0:	6cfb      	ldr	r3, [r7, #76]	@ 0x4c
10008af2:	b913      	cbnz	r3, 10008afa <__ssvfscanf_r+0x58a>
10008af4:	6c3b      	ldr	r3, [r7, #64]	@ 0x40
10008af6:	3301      	adds	r3, #1
10008af8:	643b      	str	r3, [r7, #64]	@ 0x40
10008afa:	6b3b      	ldr	r3, [r7, #48]	@ 0x30
10008afc:	64fb      	str	r3, [r7, #76]	@ 0x4c
10008afe:	e561      	b.n	100085c4 <__ssvfscanf_r+0x54>
10008b00:	1000e1e5 	.word	0x1000e1e5
10008b04:	10008415 	.word	0x10008415
10008b08:	1000b2cd 	.word	0x1000b2cd
10008b0c:	f014 038f 	ands.w	r3, r4, #143	@ 0x8f
10008b10:	f47f ae2f 	bne.w	10008772 <__ssvfscanf_r+0x202>
10008b14:	6b79      	ldr	r1, [r7, #52]	@ 0x34
10008b16:	2900      	cmp	r1, #0
10008b18:	f000 86bc 	beq.w	10009894 <__ssvfscanf_r+0x1324>
10008b1c:	7869      	ldrb	r1, [r5, #1]
10008b1e:	f044 0480 	orr.w	r4, r4, #128	@ 0x80
10008b22:	4635      	mov	r5, r6
10008b24:	e5c3      	b.n	100086ae <__ssvfscanf_r+0x13e>
10008b26:	f8da 3004 	ldr.w	r3, [sl, #4]
10008b2a:	633e      	str	r6, [r7, #48]	@ 0x30
10008b2c:	2b00      	cmp	r3, #0
10008b2e:	f340 86df 	ble.w	100098f0 <__ssvfscanf_r+0x1380>
10008b32:	f044 0401 	orr.w	r4, r4, #1
10008b36:	2602      	movs	r6, #2
10008b38:	e68c      	b.n	10008854 <__ssvfscanf_r+0x2e4>
10008b3a:	4631      	mov	r1, r6
10008b3c:	f107 0070 	add.w	r0, r7, #112	@ 0x70
10008b40:	f001 f986 	bl	10009e50 <__sccl>
10008b44:	f8da 3004 	ldr.w	r3, [sl, #4]
10008b48:	64f8      	str	r0, [r7, #76]	@ 0x4c
10008b4a:	2b00      	cmp	r3, #0
10008b4c:	f340 86d9 	ble.w	10009902 <__ssvfscanf_r+0x1392>
10008b50:	f1b9 0f00 	cmp.w	r9, #0
10008b54:	f004 0310 	and.w	r3, r4, #16
10008b58:	bf08      	it	eq
10008b5a:	f04f 39ff 	moveq.w	r9, #4294967295	@ 0xffffffff
10008b5e:	f014 0501 	ands.w	r5, r4, #1
10008b62:	62bb      	str	r3, [r7, #40]	@ 0x28
10008b64:	f000 8480 	beq.w	10009468 <__ssvfscanf_r+0xef8>
10008b68:	2b00      	cmp	r3, #0
10008b6a:	f040 859f 	bne.w	100096ac <__ssvfscanf_r+0x113c>
10008b6e:	6afb      	ldr	r3, [r7, #44]	@ 0x2c
10008b70:	0621      	lsls	r1, r4, #24
10008b72:	f853 2b04 	ldr.w	r2, [r3], #4
10008b76:	613a      	str	r2, [r7, #16]
10008b78:	62fb      	str	r3, [r7, #44]	@ 0x2c
10008b7a:	f140 869c 	bpl.w	100098b6 <__ssvfscanf_r+0x1346>
10008b7e:	2a00      	cmp	r2, #0
10008b80:	f43f adf7 	beq.w	10008772 <__ssvfscanf_r+0x202>
10008b84:	2080      	movs	r0, #128	@ 0x80
10008b86:	f7fc fabd 	bl	10005104 <__wrap_malloc>
10008b8a:	4606      	mov	r6, r0
10008b8c:	2800      	cmp	r0, #0
10008b8e:	f000 8743 	beq.w	10009a18 <__ssvfscanf_r+0x14a8>
10008b92:	693b      	ldr	r3, [r7, #16]
10008b94:	6018      	str	r0, [r3, #0]
10008b96:	6b7b      	ldr	r3, [r7, #52]	@ 0x34
10008b98:	88dc      	ldrh	r4, [r3, #6]
10008b9a:	889d      	ldrh	r5, [r3, #4]
10008b9c:	42ac      	cmp	r4, r5
10008b9e:	f080 85c7 	bcs.w	10009730 <__ssvfscanf_r+0x11c0>
10008ba2:	6818      	ldr	r0, [r3, #0]
10008ba4:	693b      	ldr	r3, [r7, #16]
10008ba6:	2201      	movs	r2, #1
10008ba8:	61fe      	str	r6, [r7, #28]
10008baa:	f840 3024 	str.w	r3, [r0, r4, lsl #2]
10008bae:	3401      	adds	r4, #1
10008bb0:	6b7b      	ldr	r3, [r7, #52]	@ 0x34
10008bb2:	80dc      	strh	r4, [r3, #6]
10008bb4:	2320      	movs	r3, #32
10008bb6:	e9c7 2305 	strd	r2, r3, [r7, #20]
10008bba:	f8c7 b03c 	str.w	fp, [r7, #60]	@ 0x3c
10008bbe:	2400      	movs	r4, #0
10008bc0:	46cb      	mov	fp, r9
10008bc2:	f507 78b8 	add.w	r8, r7, #368	@ 0x170
10008bc6:	46b1      	mov	r9, r6
10008bc8:	6a3d      	ldr	r5, [r7, #32]
10008bca:	f001 fa3b 	bl	1000a044 <__locale_mb_cur_max>
10008bce:	42a0      	cmp	r0, r4
10008bd0:	f43f ad3f 	beq.w	10008652 <__ssvfscanf_r+0xe2>
10008bd4:	2d03      	cmp	r5, #3
10008bd6:	f107 0660 	add.w	r6, r7, #96	@ 0x60
10008bda:	e9da 3200 	ldrd	r3, r2, [sl]
10008bde:	f813 1b01 	ldrb.w	r1, [r3], #1
10008be2:	f102 32ff 	add.w	r2, r2, #4294967295	@ 0xffffffff
10008be6:	f8ca 3000 	str.w	r3, [sl]
10008bea:	f104 0301 	add.w	r3, r4, #1
10008bee:	f8ca 2004 	str.w	r2, [sl, #4]
10008bf2:	f808 1004 	strb.w	r1, [r8, r4]
10008bf6:	647b      	str	r3, [r7, #68]	@ 0x44
10008bf8:	d102      	bne.n	10008c00 <__ssvfscanf_r+0x690>
10008bfa:	6833      	ldr	r3, [r6, #0]
10008bfc:	2b04      	cmp	r3, #4
10008bfe:	d004      	beq.n	10008c0a <__ssvfscanf_r+0x69a>
10008c00:	2208      	movs	r2, #8
10008c02:	2100      	movs	r1, #0
10008c04:	4630      	mov	r0, r6
10008c06:	f7ff f827 	bl	10007c58 <memset>
10008c0a:	9600      	str	r6, [sp, #0]
10008c0c:	4642      	mov	r2, r8
10008c0e:	6c7b      	ldr	r3, [r7, #68]	@ 0x44
10008c10:	4649      	mov	r1, r9
10008c12:	6cb8      	ldr	r0, [r7, #72]	@ 0x48
10008c14:	f002 fd9a 	bl	1000b74c <_mbrtowc_r>
10008c18:	1c43      	adds	r3, r0, #1
10008c1a:	4605      	mov	r5, r0
10008c1c:	f43f ad19 	beq.w	10008652 <__ssvfscanf_r+0xe2>
10008c20:	2800      	cmp	r0, #0
10008c22:	f040 8104 	bne.w	10008e2e <__ssvfscanf_r+0x8be>
10008c26:	4603      	mov	r3, r0
10008c28:	f8c9 0000 	str.w	r0, [r9]
10008c2c:	2208      	movs	r2, #8
10008c2e:	2100      	movs	r1, #0
10008c30:	f107 0068 	add.w	r0, r7, #104	@ 0x68
10008c34:	633b      	str	r3, [r7, #48]	@ 0x30
10008c36:	f7ff f80f 	bl	10007c58 <memset>
10008c3a:	6b3b      	ldr	r3, [r7, #48]	@ 0x30
10008c3c:	f107 0150 	add.w	r1, r7, #80	@ 0x50
10008c40:	6cb8      	ldr	r0, [r7, #72]	@ 0x48
10008c42:	461a      	mov	r2, r3
10008c44:	4b7e      	ldr	r3, [pc, #504]	@ (10008e40 <__ssvfscanf_r+0x8d0>)
10008c46:	f8d3 30e0 	ldr.w	r3, [r3, #224]	@ 0xe0
10008c4a:	461c      	mov	r4, r3
10008c4c:	f107 0368 	add.w	r3, r7, #104	@ 0x68
10008c50:	47a0      	blx	r4
10008c52:	2801      	cmp	r0, #1
10008c54:	bf0c      	ite	eq
10008c56:	f897 3050 	ldrbeq.w	r3, [r7, #80]	@ 0x50
10008c5a:	2300      	movne	r3, #0
10008c5c:	f107 0270 	add.w	r2, r7, #112	@ 0x70
10008c60:	5cd3      	ldrb	r3, [r2, r3]
10008c62:	2b00      	cmp	r3, #0
10008c64:	f000 8671 	beq.w	1000994a <__ssvfscanf_r+0x13da>
10008c68:	6bfb      	ldr	r3, [r7, #60]	@ 0x3c
10008c6a:	2d03      	cmp	r5, #3
10008c6c:	6c7a      	ldr	r2, [r7, #68]	@ 0x44
10008c6e:	4413      	add	r3, r2
10008c70:	63fb      	str	r3, [r7, #60]	@ 0x3c
10008c72:	d024      	beq.n	10008cbe <__ssvfscanf_r+0x74e>
10008c74:	6abb      	ldr	r3, [r7, #40]	@ 0x28
10008c76:	f10b 3bff 	add.w	fp, fp, #4294967295	@ 0xffffffff
10008c7a:	b9bb      	cbnz	r3, 10008cac <__ssvfscanf_r+0x73c>
10008c7c:	f109 0904 	add.w	r9, r9, #4
10008c80:	69f8      	ldr	r0, [r7, #28]
10008c82:	69be      	ldr	r6, [r7, #24]
10008c84:	eba9 0400 	sub.w	r4, r9, r0
10008c88:	ebb6 0fa4 	cmp.w	r6, r4, asr #2
10008c8c:	d80e      	bhi.n	10008cac <__ssvfscanf_r+0x73c>
10008c8e:	697b      	ldr	r3, [r7, #20]
10008c90:	b163      	cbz	r3, 10008cac <__ssvfscanf_r+0x73c>
10008c92:	00f1      	lsls	r1, r6, #3
10008c94:	f7fc fa52 	bl	1000513c <__wrap_realloc>
10008c98:	61f8      	str	r0, [r7, #28]
10008c9a:	2800      	cmp	r0, #0
10008c9c:	f000 86bc 	beq.w	10009a18 <__ssvfscanf_r+0x14a8>
10008ca0:	0072      	lsls	r2, r6, #1
10008ca2:	eb00 0904 	add.w	r9, r0, r4
10008ca6:	61ba      	str	r2, [r7, #24]
10008ca8:	693a      	ldr	r2, [r7, #16]
10008caa:	6010      	str	r0, [r2, #0]
10008cac:	f8da 3004 	ldr.w	r3, [sl, #4]
10008cb0:	2b00      	cmp	r3, #0
10008cb2:	dd0e      	ble.n	10008cd2 <__ssvfscanf_r+0x762>
10008cb4:	f1bb 0f00 	cmp.w	fp, #0
10008cb8:	d011      	beq.n	10008cde <__ssvfscanf_r+0x76e>
10008cba:	2400      	movs	r4, #0
10008cbc:	e785      	b.n	10008bca <__ssvfscanf_r+0x65a>
10008cbe:	6833      	ldr	r3, [r6, #0]
10008cc0:	2b04      	cmp	r3, #4
10008cc2:	d1d7      	bne.n	10008c74 <__ssvfscanf_r+0x704>
10008cc4:	6abb      	ldr	r3, [r7, #40]	@ 0x28
10008cc6:	2b00      	cmp	r3, #0
10008cc8:	d0d8      	beq.n	10008c7c <__ssvfscanf_r+0x70c>
10008cca:	f8da 3004 	ldr.w	r3, [sl, #4]
10008cce:	2b00      	cmp	r3, #0
10008cd0:	dcf3      	bgt.n	10008cba <__ssvfscanf_r+0x74a>
10008cd2:	4651      	mov	r1, sl
10008cd4:	6cb8      	ldr	r0, [r7, #72]	@ 0x48
10008cd6:	f7ff fbdd 	bl	10008494 <__ssrefill_r>
10008cda:	2800      	cmp	r0, #0
10008cdc:	d0ea      	beq.n	10008cb4 <__ssvfscanf_r+0x744>
10008cde:	f8d7 b03c 	ldr.w	fp, [r7, #60]	@ 0x3c
10008ce2:	464e      	mov	r6, r9
10008ce4:	623d      	str	r5, [r7, #32]
10008ce6:	6abb      	ldr	r3, [r7, #40]	@ 0x28
10008ce8:	2b00      	cmp	r3, #0
10008cea:	f47f ac6b 	bne.w	100085c4 <__ssvfscanf_r+0x54>
10008cee:	6033      	str	r3, [r6, #0]
10008cf0:	69fb      	ldr	r3, [r7, #28]
10008cf2:	69ba      	ldr	r2, [r7, #24]
10008cf4:	1af1      	subs	r1, r6, r3
10008cf6:	108b      	asrs	r3, r1, #2
10008cf8:	3301      	adds	r3, #1
10008cfa:	429a      	cmp	r2, r3
10008cfc:	d908      	bls.n	10008d10 <__ssvfscanf_r+0x7a0>
10008cfe:	697b      	ldr	r3, [r7, #20]
10008d00:	b133      	cbz	r3, 10008d10 <__ssvfscanf_r+0x7a0>
10008d02:	693c      	ldr	r4, [r7, #16]
10008d04:	3104      	adds	r1, #4
10008d06:	6820      	ldr	r0, [r4, #0]
10008d08:	f7fc fa18 	bl	1000513c <__wrap_realloc>
10008d0c:	b100      	cbz	r0, 10008d10 <__ssvfscanf_r+0x7a0>
10008d0e:	6020      	str	r0, [r4, #0]
10008d10:	6c3b      	ldr	r3, [r7, #64]	@ 0x40
10008d12:	3301      	adds	r3, #1
10008d14:	643b      	str	r3, [r7, #64]	@ 0x40
10008d16:	e455      	b.n	100085c4 <__ssvfscanf_r+0x54>
10008d18:	0721      	lsls	r1, r4, #28
10008d1a:	f47f ad2a 	bne.w	10008772 <__ssvfscanf_r+0x202>
10008d1e:	7869      	ldrb	r1, [r5, #1]
10008d20:	296c      	cmp	r1, #108	@ 0x6c
10008d22:	f000 8554 	beq.w	100097ce <__ssvfscanf_r+0x125e>
10008d26:	f044 0401 	orr.w	r4, r4, #1
10008d2a:	4635      	mov	r5, r6
10008d2c:	e4bf      	b.n	100086ae <__ssvfscanf_r+0x13e>
10008d2e:	f8da 3004 	ldr.w	r3, [sl, #4]
10008d32:	f044 0401 	orr.w	r4, r4, #1
10008d36:	633e      	str	r6, [r7, #48]	@ 0x30
10008d38:	2b00      	cmp	r3, #0
10008d3a:	f340 85fd 	ble.w	10009938 <__ssvfscanf_r+0x13c8>
10008d3e:	4b41      	ldr	r3, [pc, #260]	@ (10008e44 <__ssvfscanf_r+0x8d4>)
10008d40:	2603      	movs	r6, #3
10008d42:	627b      	str	r3, [r7, #36]	@ 0x24
10008d44:	230a      	movs	r3, #10
10008d46:	63bb      	str	r3, [r7, #56]	@ 0x38
10008d48:	e584      	b.n	10008854 <__ssvfscanf_r+0x2e4>
10008d4a:	ea59 0904 	orrs.w	r9, r9, r4
10008d4e:	f47f ad10 	bne.w	10008772 <__ssvfscanf_r+0x202>
10008d52:	7869      	ldrb	r1, [r5, #1]
10008d54:	2410      	movs	r4, #16
10008d56:	4635      	mov	r5, r6
10008d58:	e4a9      	b.n	100086ae <__ssvfscanf_r+0x13e>
10008d5a:	f8da 3004 	ldr.w	r3, [sl, #4]
10008d5e:	f044 0401 	orr.w	r4, r4, #1
10008d62:	633e      	str	r6, [r7, #48]	@ 0x30
10008d64:	2b00      	cmp	r3, #0
10008d66:	f340 85de 	ble.w	10009926 <__ssvfscanf_r+0x13b6>
10008d6a:	4b37      	ldr	r3, [pc, #220]	@ (10008e48 <__ssvfscanf_r+0x8d8>)
10008d6c:	2603      	movs	r6, #3
10008d6e:	627b      	str	r3, [r7, #36]	@ 0x24
10008d70:	2308      	movs	r3, #8
10008d72:	63bb      	str	r3, [r7, #56]	@ 0x38
10008d74:	e56e      	b.n	10008854 <__ssvfscanf_r+0x2e4>
10008d76:	f8da 3004 	ldr.w	r3, [sl, #4]
10008d7a:	633e      	str	r6, [r7, #48]	@ 0x30
10008d7c:	2b00      	cmp	r3, #0
10008d7e:	f340 85c9 	ble.w	10009914 <__ssvfscanf_r+0x13a4>
10008d82:	464d      	mov	r5, r9
10008d84:	2d01      	cmp	r5, #1
10008d86:	bf38      	it	cc
10008d88:	2501      	movcc	r5, #1
10008d8a:	f014 0301 	ands.w	r3, r4, #1
10008d8e:	f040 852a 	bne.w	100097e6 <__ssvfscanf_r+0x1276>
10008d92:	06e6      	lsls	r6, r4, #27
10008d94:	f100 8493 	bmi.w	100096be <__ssvfscanf_r+0x114e>
10008d98:	6afb      	ldr	r3, [r7, #44]	@ 0x2c
10008d9a:	0620      	lsls	r0, r4, #24
10008d9c:	f853 6b04 	ldr.w	r6, [r3], #4
10008da0:	62fb      	str	r3, [r7, #44]	@ 0x2c
10008da2:	f140 8437 	bpl.w	10009614 <__ssvfscanf_r+0x10a4>
10008da6:	2e00      	cmp	r6, #0
10008da8:	f43f ace3 	beq.w	10008772 <__ssvfscanf_r+0x202>
10008dac:	4628      	mov	r0, r5
10008dae:	f7fc f9a9 	bl	10005104 <__wrap_malloc>
10008db2:	4604      	mov	r4, r0
10008db4:	2800      	cmp	r0, #0
10008db6:	f43f ac50 	beq.w	1000865a <__ssvfscanf_r+0xea>
10008dba:	6b7b      	ldr	r3, [r7, #52]	@ 0x34
10008dbc:	6030      	str	r0, [r6, #0]
10008dbe:	f8b3 8006 	ldrh.w	r8, [r3, #6]
10008dc2:	889a      	ldrh	r2, [r3, #4]
10008dc4:	4590      	cmp	r8, r2
10008dc6:	f080 853b 	bcs.w	10009840 <__ssvfscanf_r+0x12d0>
10008dca:	6818      	ldr	r0, [r3, #0]
10008dcc:	6b7b      	ldr	r3, [r7, #52]	@ 0x34
10008dce:	4621      	mov	r1, r4
10008dd0:	f840 6028 	str.w	r6, [r0, r8, lsl #2]
10008dd4:	f108 0801 	add.w	r8, r8, #1
10008dd8:	2201      	movs	r2, #1
10008dda:	f8a3 8006 	strh.w	r8, [r3, #6]
10008dde:	462b      	mov	r3, r5
10008de0:	f8cd a000 	str.w	sl, [sp]
10008de4:	6cb8      	ldr	r0, [r7, #72]	@ 0x48
10008de6:	f7ff fb71 	bl	100084cc <_sfread_r>
10008dea:	4604      	mov	r4, r0
10008dec:	2800      	cmp	r0, #0
10008dee:	f000 864f 	beq.w	10009a90 <__ssvfscanf_r+0x1520>
10008df2:	42a8      	cmp	r0, r5
10008df4:	d205      	bcs.n	10008e02 <__ssvfscanf_r+0x892>
10008df6:	4601      	mov	r1, r0
10008df8:	6830      	ldr	r0, [r6, #0]
10008dfa:	f7fc f99f 	bl	1000513c <__wrap_realloc>
10008dfe:	b100      	cbz	r0, 10008e02 <__ssvfscanf_r+0x892>
10008e00:	6030      	str	r0, [r6, #0]
10008e02:	44a3      	add	fp, r4
10008e04:	e3b5      	b.n	10009572 <__ssvfscanf_r+0x1002>
10008e06:	64fe      	str	r6, [r7, #76]	@ 0x4c
10008e08:	f7ff bbfa 	b.w	10008600 <__ssvfscanf_r+0x90>
10008e0c:	f110 0f02 	cmn.w	r0, #2
10008e10:	f000 8305 	beq.w	1000941e <__ssvfscanf_r+0xeae>
10008e14:	2803      	cmp	r0, #3
10008e16:	44a3      	add	fp, r4
10008e18:	d103      	bne.n	10008e22 <__ssvfscanf_r+0x8b2>
10008e1a:	6eba      	ldr	r2, [r7, #104]	@ 0x68
10008e1c:	2a04      	cmp	r2, #4
10008e1e:	f43f ae4c 	beq.w	10008aba <__ssvfscanf_r+0x54a>
10008e22:	6cfb      	ldr	r3, [r7, #76]	@ 0x4c
10008e24:	3d01      	subs	r5, #1
10008e26:	2b00      	cmp	r3, #0
10008e28:	f43f ae2a 	beq.w	10008a80 <__ssvfscanf_r+0x510>
10008e2c:	e63e      	b.n	10008aac <__ssvfscanf_r+0x53c>
10008e2e:	1c84      	adds	r4, r0, #2
10008e30:	f000 830a 	beq.w	10009448 <__ssvfscanf_r+0xed8>
10008e34:	f8d9 3000 	ldr.w	r3, [r9]
10008e38:	1c58      	adds	r0, r3, #1
10008e3a:	f47f aef7 	bne.w	10008c2c <__ssvfscanf_r+0x6bc>
10008e3e:	e70d      	b.n	10008c5c <__ssvfscanf_r+0x6ec>
10008e40:	20000bb8 	.word	0x20000bb8
10008e44:	1000b2cd 	.word	0x1000b2cd
10008e48:	10008415 	.word	0x10008415
10008e4c:	f109 33ff 	add.w	r3, r9, #4294967295	@ 0xffffffff
10008e50:	f5b3 7fae 	cmp.w	r3, #348	@ 0x15c
10008e54:	f240 8300 	bls.w	10009458 <__ssvfscanf_r+0xee8>
10008e58:	f46f 72ae 	mvn.w	r2, #348	@ 0x15c
10008e5c:	eb09 0802 	add.w	r8, r9, r2
10008e60:	f240 195d 	movw	r9, #349	@ 0x15d
10008e64:	f507 73b8 	add.w	r3, r7, #368	@ 0x170
10008e68:	2200      	movs	r2, #0
10008e6a:	4656      	mov	r6, sl
10008e6c:	f8c7 804c 	str.w	r8, [r7, #76]	@ 0x4c
10008e70:	f444 6458 	orr.w	r4, r4, #3456	@ 0xd80
10008e74:	461d      	mov	r5, r3
10008e76:	f8d7 8038 	ldr.w	r8, [r7, #56]	@ 0x38
10008e7a:	4692      	mov	sl, r2
10008e7c:	62bb      	str	r3, [r7, #40]	@ 0x28
10008e7e:	6832      	ldr	r2, [r6, #0]
10008e80:	7810      	ldrb	r0, [r2, #0]
10008e82:	f1a0 032b 	sub.w	r3, r0, #43	@ 0x2b
10008e86:	2b4d      	cmp	r3, #77	@ 0x4d
10008e88:	d861      	bhi.n	10008f4e <__ssvfscanf_r+0x9de>
10008e8a:	e8df f013 	tbh	[pc, r3, lsl #1]
10008e8e:	028f      	.short	0x028f
10008e90:	028f0060 	.word	0x028f0060
10008e94:	00600060 	.word	0x00600060
10008e98:	01a502a5 	.word	0x01a502a5
10008e9c:	01a501a5 	.word	0x01a501a5
10008ea0:	01a501a5 	.word	0x01a501a5
10008ea4:	01a501a5 	.word	0x01a501a5
10008ea8:	027a027a 	.word	0x027a027a
10008eac:	00600060 	.word	0x00600060
10008eb0:	00600060 	.word	0x00600060
10008eb4:	00600060 	.word	0x00600060
10008eb8:	004e0060 	.word	0x004e0060
10008ebc:	004e004e 	.word	0x004e004e
10008ec0:	004e004e 	.word	0x004e004e
10008ec4:	0060004e 	.word	0x0060004e
10008ec8:	00600060 	.word	0x00600060
10008ecc:	00600060 	.word	0x00600060
10008ed0:	00600060 	.word	0x00600060
10008ed4:	00600060 	.word	0x00600060
10008ed8:	00600060 	.word	0x00600060
10008edc:	00600060 	.word	0x00600060
10008ee0:	00600060 	.word	0x00600060
10008ee4:	00600060 	.word	0x00600060
10008ee8:	00600282 	.word	0x00600282
10008eec:	00600060 	.word	0x00600060
10008ef0:	00600060 	.word	0x00600060
10008ef4:	00600060 	.word	0x00600060
10008ef8:	004e0060 	.word	0x004e0060
10008efc:	004e004e 	.word	0x004e004e
10008f00:	004e004e 	.word	0x004e004e
10008f04:	0060004e 	.word	0x0060004e
10008f08:	00600060 	.word	0x00600060
10008f0c:	00600060 	.word	0x00600060
10008f10:	00600060 	.word	0x00600060
10008f14:	00600060 	.word	0x00600060
10008f18:	00600060 	.word	0x00600060
10008f1c:	00600060 	.word	0x00600060
10008f20:	00600060 	.word	0x00600060
10008f24:	00600060 	.word	0x00600060
10008f28:	0282      	.short	0x0282
10008f2a:	f1b8 0f0a 	cmp.w	r8, #10
10008f2e:	dd0e      	ble.n	10008f4e <__ssvfscanf_r+0x9de>
10008f30:	f424 6438 	bic.w	r4, r4, #2944	@ 0xb80
10008f34:	f805 0b01 	strb.w	r0, [r5], #1
10008f38:	6873      	ldr	r3, [r6, #4]
10008f3a:	3b01      	subs	r3, #1
10008f3c:	2b00      	cmp	r3, #0
10008f3e:	6073      	str	r3, [r6, #4]
10008f40:	f340 8265 	ble.w	1000940e <__ssvfscanf_r+0xe9e>
10008f44:	3201      	adds	r2, #1
10008f46:	6032      	str	r2, [r6, #0]
10008f48:	f1b9 0901 	subs.w	r9, r9, #1
10008f4c:	d197      	bne.n	10008e7e <__ssvfscanf_r+0x90e>
10008f4e:	05e1      	lsls	r1, r4, #23
10008f50:	46d1      	mov	r9, sl
10008f52:	f8c7 8038 	str.w	r8, [r7, #56]	@ 0x38
10008f56:	46b2      	mov	sl, r6
10008f58:	d507      	bpl.n	10008f6a <__ssvfscanf_r+0x9fa>
10008f5a:	6abb      	ldr	r3, [r7, #40]	@ 0x28
10008f5c:	429d      	cmp	r5, r3
10008f5e:	f200 8367 	bhi.w	10009630 <__ssvfscanf_r+0x10c0>
10008f62:	6abb      	ldr	r3, [r7, #40]	@ 0x28
10008f64:	429d      	cmp	r5, r3
10008f66:	f43f ac04 	beq.w	10008772 <__ssvfscanf_r+0x202>
10008f6a:	f014 0210 	ands.w	r2, r4, #16
10008f6e:	d116      	bne.n	10008f9e <__ssvfscanf_r+0xa2e>
10008f70:	6bbb      	ldr	r3, [r7, #56]	@ 0x38
10008f72:	702a      	strb	r2, [r5, #0]
10008f74:	6ab9      	ldr	r1, [r7, #40]	@ 0x28
10008f76:	6cb8      	ldr	r0, [r7, #72]	@ 0x48
10008f78:	6a7e      	ldr	r6, [r7, #36]	@ 0x24
10008f7a:	47b0      	blx	r6
10008f7c:	6afb      	ldr	r3, [r7, #44]	@ 0x2c
10008f7e:	06a2      	lsls	r2, r4, #26
10008f80:	f103 0804 	add.w	r8, r3, #4
10008f84:	f100 8311 	bmi.w	100095aa <__ssvfscanf_r+0x103a>
10008f88:	0723      	lsls	r3, r4, #28
10008f8a:	f140 8430 	bpl.w	100097ee <__ssvfscanf_r+0x127e>
10008f8e:	6afb      	ldr	r3, [r7, #44]	@ 0x2c
10008f90:	681b      	ldr	r3, [r3, #0]
10008f92:	7018      	strb	r0, [r3, #0]
10008f94:	6c3b      	ldr	r3, [r7, #64]	@ 0x40
10008f96:	f8c7 802c 	str.w	r8, [r7, #44]	@ 0x2c
10008f9a:	3301      	adds	r3, #1
10008f9c:	643b      	str	r3, [r7, #64]	@ 0x40
10008f9e:	6abb      	ldr	r3, [r7, #40]	@ 0x28
10008fa0:	1aed      	subs	r5, r5, r3
10008fa2:	6b3b      	ldr	r3, [r7, #48]	@ 0x30
10008fa4:	444d      	add	r5, r9
10008fa6:	64fb      	str	r3, [r7, #76]	@ 0x4c
10008fa8:	44ab      	add	fp, r5
10008faa:	f7ff bb0b 	b.w	100085c4 <__ssvfscanf_r+0x54>
10008fae:	6cb8      	ldr	r0, [r7, #72]	@ 0x48
10008fb0:	f001 f84e 	bl	1000a050 <_localeconv_r>
10008fb4:	6803      	ldr	r3, [r0, #0]
10008fb6:	61fb      	str	r3, [r7, #28]
10008fb8:	f109 33ff 	add.w	r3, r9, #4294967295	@ 0xffffffff
10008fbc:	f5b3 7fae 	cmp.w	r3, #348	@ 0x15c
10008fc0:	f240 82ef 	bls.w	100095a2 <__ssvfscanf_r+0x1032>
10008fc4:	f46f 70ae 	mvn.w	r0, #348	@ 0x15c
10008fc8:	eb09 0300 	add.w	r3, r9, r0
10008fcc:	f240 195d 	movw	r9, #349	@ 0x15d
10008fd0:	60fb      	str	r3, [r7, #12]
10008fd2:	2600      	movs	r6, #0
10008fd4:	f507 73b8 	add.w	r3, r7, #368	@ 0x170
10008fd8:	f444 64f0 	orr.w	r4, r4, #1920	@ 0x780
10008fdc:	647e      	str	r6, [r7, #68]	@ 0x44
10008fde:	461d      	mov	r5, r3
10008fe0:	63fe      	str	r6, [r7, #60]	@ 0x3c
10008fe2:	61be      	str	r6, [r7, #24]
10008fe4:	64fe      	str	r6, [r7, #76]	@ 0x4c
10008fe6:	62bb      	str	r3, [r7, #40]	@ 0x28
10008fe8:	e9c7 6604 	strd	r6, r6, [r7, #16]
10008fec:	464e      	mov	r6, r9
10008fee:	f8da 1000 	ldr.w	r1, [sl]
10008ff2:	780a      	ldrb	r2, [r1, #0]
10008ff4:	f1a2 032b 	sub.w	r3, r2, #43	@ 0x2b
10008ff8:	2b4e      	cmp	r3, #78	@ 0x4e
10008ffa:	d850      	bhi.n	1000909e <__ssvfscanf_r+0xb2e>
10008ffc:	e8df f013 	tbh	[pc, r3, lsl #1]
10009000:	004f01bb 	.word	0x004f01bb
10009004:	004f01bb 	.word	0x004f01bb
10009008:	01dc004f 	.word	0x01dc004f
1000900c:	009e009e 	.word	0x009e009e
10009010:	009e009e 	.word	0x009e009e
10009014:	009e009e 	.word	0x009e009e
10009018:	009e009e 	.word	0x009e009e
1000901c:	004f009e 	.word	0x004f009e
10009020:	004f004f 	.word	0x004f004f
10009024:	004f004f 	.word	0x004f004f
10009028:	004f004f 	.word	0x004f004f
1000902c:	009c01ad 	.word	0x009c01ad
10009030:	009c009c 	.word	0x009c009c
10009034:	019f0147 	.word	0x019f0147
10009038:	004f004f 	.word	0x004f004f
1000903c:	004f014a 	.word	0x004f014a
10009040:	004f004f 	.word	0x004f004f
10009044:	012e004f 	.word	0x012e004f
10009048:	0113004f 	.word	0x0113004f
1000904c:	004f004f 	.word	0x004f004f
10009050:	010c004f 	.word	0x010c004f
10009054:	004f004f 	.word	0x004f004f
10009058:	00f9004f 	.word	0x00f9004f
1000905c:	004f00f2 	.word	0x004f00f2
10009060:	004f004f 	.word	0x004f004f
10009064:	004f004f 	.word	0x004f004f
10009068:	004f004f 	.word	0x004f004f
1000906c:	009c01ad 	.word	0x009c01ad
10009070:	009c009c 	.word	0x009c009c
10009074:	019f0147 	.word	0x019f0147
10009078:	004f004f 	.word	0x004f004f
1000907c:	004f014a 	.word	0x004f014a
10009080:	004f004f 	.word	0x004f004f
10009084:	012e004f 	.word	0x012e004f
10009088:	0113004f 	.word	0x0113004f
1000908c:	004f004f 	.word	0x004f004f
10009090:	010c004f 	.word	0x010c004f
10009094:	004f004f 	.word	0x004f004f
10009098:	00f9004f 	.word	0x00f9004f
1000909c:	00f2      	.short	0x00f2
1000909e:	05a0      	lsls	r0, r4, #22
100090a0:	d569      	bpl.n	10009176 <__ssvfscanf_r+0xc06>
100090a2:	69f8      	ldr	r0, [r7, #28]
100090a4:	7803      	ldrb	r3, [r0, #0]
100090a6:	4293      	cmp	r3, r2
100090a8:	d165      	bne.n	10009176 <__ssvfscanf_r+0xc06>
100090aa:	4681      	mov	r9, r0
100090ac:	f04f 0800 	mov.w	r8, #0
100090b0:	e9c7 6501 	strd	r6, r5, [r7, #4]
100090b4:	4656      	mov	r6, sl
100090b6:	46a2      	mov	sl, r4
100090b8:	e006      	b.n	100090c8 <__ssvfscanf_r+0xb58>
100090ba:	6031      	str	r1, [r6, #0]
100090bc:	f899 0000 	ldrb.w	r0, [r9]
100090c0:	f891 e000 	ldrb.w	lr, [r1]
100090c4:	4586      	cmp	lr, r0
100090c6:	d11c      	bne.n	10009102 <__ssvfscanf_r+0xb92>
100090c8:	f819 0f01 	ldrb.w	r0, [r9, #1]!
100090cc:	4645      	mov	r5, r8
100090ce:	465c      	mov	r4, fp
100090d0:	3101      	adds	r1, #1
100090d2:	f108 0801 	add.w	r8, r8, #1
100090d6:	f10b 0b01 	add.w	fp, fp, #1
100090da:	2800      	cmp	r0, #0
100090dc:	f000 8250 	beq.w	10009580 <__ssvfscanf_r+0x1010>
100090e0:	6870      	ldr	r0, [r6, #4]
100090e2:	3801      	subs	r0, #1
100090e4:	2800      	cmp	r0, #0
100090e6:	6070      	str	r0, [r6, #4]
100090e8:	dce7      	bgt.n	100090ba <__ssvfscanf_r+0xb4a>
100090ea:	4631      	mov	r1, r6
100090ec:	6cb8      	ldr	r0, [r7, #72]	@ 0x48
100090ee:	f7ff f9d1 	bl	10008494 <__ssrefill_r>
100090f2:	b930      	cbnz	r0, 10009102 <__ssvfscanf_r+0xb92>
100090f4:	6831      	ldr	r1, [r6, #0]
100090f6:	f899 0000 	ldrb.w	r0, [r9]
100090fa:	f891 e000 	ldrb.w	lr, [r1]
100090fe:	4586      	cmp	lr, r0
10009100:	d0e2      	beq.n	100090c8 <__ssvfscanf_r+0xb58>
10009102:	69fb      	ldr	r3, [r7, #28]
10009104:	462a      	mov	r2, r5
10009106:	60fc      	str	r4, [r7, #12]
10009108:	4654      	mov	r4, sl
1000910a:	4498      	add	r8, r3
1000910c:	46b2      	mov	sl, r6
1000910e:	68bd      	ldr	r5, [r7, #8]
10009110:	4699      	mov	r9, r3
10009112:	6cfe      	ldr	r6, [r7, #76]	@ 0x4c
10009114:	f8d7 b048 	ldr.w	fp, [r7, #72]	@ 0x48
10009118:	64fc      	str	r4, [r7, #76]	@ 0x4c
1000911a:	4644      	mov	r4, r8
1000911c:	4690      	mov	r8, r2
1000911e:	f814 1d01 	ldrb.w	r1, [r4, #-1]!
10009122:	4652      	mov	r2, sl
10009124:	4658      	mov	r0, fp
10009126:	f7ff f977 	bl	10008418 <_sungetc_r>
1000912a:	45a1      	cmp	r9, r4
1000912c:	d1f7      	bne.n	1000911e <__ssvfscanf_r+0xbae>
1000912e:	68fb      	ldr	r3, [r7, #12]
10009130:	6cfc      	ldr	r4, [r7, #76]	@ 0x4c
10009132:	eba3 0b08 	sub.w	fp, r3, r8
10009136:	e01f      	b.n	10009178 <__ssvfscanf_r+0xc08>
10009138:	0523      	lsls	r3, r4, #20
1000913a:	d51c      	bpl.n	10009176 <__ssvfscanf_r+0xc06>
1000913c:	6c7b      	ldr	r3, [r7, #68]	@ 0x44
1000913e:	6cf9      	ldr	r1, [r7, #76]	@ 0x4c
10009140:	185b      	adds	r3, r3, r1
10009142:	d118      	bne.n	10009176 <__ssvfscanf_r+0xc06>
10009144:	f424 74c0 	bic.w	r4, r4, #384	@ 0x180
10009148:	64fb      	str	r3, [r7, #76]	@ 0x4c
1000914a:	647b      	str	r3, [r7, #68]	@ 0x44
1000914c:	f805 2b01 	strb.w	r2, [r5], #1
10009150:	3e01      	subs	r6, #1
10009152:	f8da 3004 	ldr.w	r3, [sl, #4]
10009156:	f10b 0b01 	add.w	fp, fp, #1
1000915a:	3b01      	subs	r3, #1
1000915c:	2b00      	cmp	r3, #0
1000915e:	f8ca 3004 	str.w	r3, [sl, #4]
10009162:	f340 8149 	ble.w	100093f8 <__ssvfscanf_r+0xe88>
10009166:	f8da 3000 	ldr.w	r3, [sl]
1000916a:	3301      	adds	r3, #1
1000916c:	f8ca 3000 	str.w	r3, [sl]
10009170:	2e00      	cmp	r6, #0
10009172:	f47f af3c 	bne.w	10008fee <__ssvfscanf_r+0xa7e>
10009176:	6cfe      	ldr	r6, [r7, #76]	@ 0x4c
10009178:	6c7b      	ldr	r3, [r7, #68]	@ 0x44
1000917a:	6bfa      	ldr	r2, [r7, #60]	@ 0x3c
1000917c:	3b01      	subs	r3, #1
1000917e:	2a00      	cmp	r2, #0
10009180:	f000 8099 	beq.w	100092b6 <__ssvfscanf_r+0xd46>
10009184:	2b01      	cmp	r3, #1
10009186:	f424 7480 	bic.w	r4, r4, #256	@ 0x100
1000918a:	f240 844e 	bls.w	10009a2a <__ssvfscanf_r+0x14ba>
1000918e:	1e73      	subs	r3, r6, #1
10009190:	2b06      	cmp	r3, #6
10009192:	f240 82e0 	bls.w	10009756 <__ssvfscanf_r+0x11e6>
10009196:	f014 0310 	ands.w	r3, r4, #16
1000919a:	f47f acae 	bne.w	10008afa <__ssvfscanf_r+0x58a>
1000919e:	702b      	strb	r3, [r5, #0]
100091a0:	f404 63c0 	and.w	r3, r4, #1536	@ 0x600
100091a4:	f5b3 6f80 	cmp.w	r3, #1024	@ 0x400
100091a8:	f040 80a7 	bne.w	100092fa <__ssvfscanf_r+0xd8a>
100091ac:	6bfb      	ldr	r3, [r7, #60]	@ 0x3c
100091ae:	69ba      	ldr	r2, [r7, #24]
100091b0:	4293      	cmp	r3, r2
100091b2:	f000 80a6 	beq.w	10009302 <__ssvfscanf_r+0xd92>
100091b6:	4613      	mov	r3, r2
100091b8:	6bfa      	ldr	r2, [r7, #60]	@ 0x3c
100091ba:	617d      	str	r5, [r7, #20]
100091bc:	1a9a      	subs	r2, r3, r2
100091be:	f207 23c3 	addw	r3, r7, #707	@ 0x2c3
100091c2:	6979      	ldr	r1, [r7, #20]
100091c4:	4299      	cmp	r1, r3
100091c6:	d302      	bcc.n	100091ce <__ssvfscanf_r+0xc5e>
100091c8:	f207 23c2 	addw	r3, r7, #706	@ 0x2c2
100091cc:	617b      	str	r3, [r7, #20]
100091ce:	6978      	ldr	r0, [r7, #20]
100091d0:	49a3      	ldr	r1, [pc, #652]	@ (10009460 <__ssvfscanf_r+0xef0>)
100091d2:	f7fd fb35 	bl	10006840 <__wrap_sprintf>
100091d6:	e094      	b.n	10009302 <__ssvfscanf_r+0xd92>
100091d8:	4ba2      	ldr	r3, [pc, #648]	@ (10009464 <__ssvfscanf_r+0xef4>)
100091da:	f424 6438 	bic.w	r4, r4, #2944	@ 0xb80
100091de:	f933 8018 	ldrsh.w	r8, [r3, r8, lsl #1]
100091e2:	e6a7      	b.n	10008f34 <__ssvfscanf_r+0x9c4>
100091e4:	6cfb      	ldr	r3, [r7, #76]	@ 0x4c
100091e6:	2b07      	cmp	r3, #7
100091e8:	f040 83e7 	bne.w	100099ba <__ssvfscanf_r+0x144a>
100091ec:	2308      	movs	r3, #8
100091ee:	64fb      	str	r3, [r7, #76]	@ 0x4c
100091f0:	e7ac      	b.n	1000914c <__ssvfscanf_r+0xbdc>
100091f2:	f404 6318 	and.w	r3, r4, #2432	@ 0x980
100091f6:	f5b3 7f80 	cmp.w	r3, #256	@ 0x100
100091fa:	d1bc      	bne.n	10009176 <__ssvfscanf_r+0xc06>
100091fc:	6bfb      	ldr	r3, [r7, #60]	@ 0x3c
100091fe:	2b01      	cmp	r3, #1
10009200:	d1b9      	bne.n	10009176 <__ssvfscanf_r+0xc06>
10009202:	2330      	movs	r3, #48	@ 0x30
10009204:	f424 7480 	bic.w	r4, r4, #256	@ 0x100
10009208:	3e01      	subs	r6, #1
1000920a:	f805 3b01 	strb.w	r3, [r5], #1
1000920e:	2300      	movs	r3, #0
10009210:	f444 6400 	orr.w	r4, r4, #2048	@ 0x800
10009214:	63fb      	str	r3, [r7, #60]	@ 0x3c
10009216:	e799      	b.n	1000914c <__ssvfscanf_r+0xbdc>
10009218:	6cfb      	ldr	r3, [r7, #76]	@ 0x4c
1000921a:	2b06      	cmp	r3, #6
1000921c:	f040 83cd 	bne.w	100099ba <__ssvfscanf_r+0x144a>
10009220:	2307      	movs	r3, #7
10009222:	64fb      	str	r3, [r7, #76]	@ 0x4c
10009224:	e792      	b.n	1000914c <__ssvfscanf_r+0xbdc>
10009226:	0523      	lsls	r3, r4, #20
10009228:	d5a5      	bpl.n	10009176 <__ssvfscanf_r+0xc06>
1000922a:	f404 63a0 	and.w	r3, r4, #1280	@ 0x500
1000922e:	f5b3 6f80 	cmp.w	r3, #1024	@ 0x400
10009232:	d005      	beq.n	10009240 <__ssvfscanf_r+0xcd0>
10009234:	0561      	lsls	r1, r4, #21
10009236:	d59e      	bpl.n	10009176 <__ssvfscanf_r+0xc06>
10009238:	6bfb      	ldr	r3, [r7, #60]	@ 0x3c
1000923a:	2b00      	cmp	r3, #0
1000923c:	f000 8406 	beq.w	10009a4c <__ssvfscanf_r+0x14dc>
10009240:	05a3      	lsls	r3, r4, #22
10009242:	d404      	bmi.n	1000924e <__ssvfscanf_r+0xcde>
10009244:	6bfb      	ldr	r3, [r7, #60]	@ 0x3c
10009246:	69b9      	ldr	r1, [r7, #24]
10009248:	1a5b      	subs	r3, r3, r1
1000924a:	e9c7 3504 	strd	r3, r5, [r7, #16]
1000924e:	f424 6478 	bic.w	r4, r4, #3968	@ 0xf80
10009252:	2300      	movs	r3, #0
10009254:	f444 74c0 	orr.w	r4, r4, #384	@ 0x180
10009258:	63fb      	str	r3, [r7, #60]	@ 0x3c
1000925a:	e777      	b.n	1000914c <__ssvfscanf_r+0xbdc>
1000925c:	6c7b      	ldr	r3, [r7, #68]	@ 0x44
1000925e:	2b00      	cmp	r3, #0
10009260:	f040 8176 	bne.w	10009550 <__ssvfscanf_r+0xfe0>
10009264:	6bfb      	ldr	r3, [r7, #60]	@ 0x3c
10009266:	2b00      	cmp	r3, #0
10009268:	f040 8172 	bne.w	10009550 <__ssvfscanf_r+0xfe0>
1000926c:	f404 63e0 	and.w	r3, r4, #1792	@ 0x700
10009270:	f5b3 6fe0 	cmp.w	r3, #1792	@ 0x700
10009274:	f000 8389 	beq.w	1000998a <__ssvfscanf_r+0x141a>
10009278:	6cfb      	ldr	r3, [r7, #76]	@ 0x4c
1000927a:	2b01      	cmp	r3, #1
1000927c:	d002      	beq.n	10009284 <__ssvfscanf_r+0xd14>
1000927e:	2b04      	cmp	r3, #4
10009280:	f47f af79 	bne.w	10009176 <__ssvfscanf_r+0xc06>
10009284:	6cfb      	ldr	r3, [r7, #76]	@ 0x4c
10009286:	3301      	adds	r3, #1
10009288:	b2db      	uxtb	r3, r3
1000928a:	64fb      	str	r3, [r7, #76]	@ 0x4c
1000928c:	e75e      	b.n	1000914c <__ssvfscanf_r+0xbdc>
1000928e:	0520      	lsls	r0, r4, #20
10009290:	d5cb      	bpl.n	1000922a <__ssvfscanf_r+0xcba>
10009292:	e753      	b.n	1000913c <__ssvfscanf_r+0xbcc>
10009294:	6cfb      	ldr	r3, [r7, #76]	@ 0x4c
10009296:	2b00      	cmp	r3, #0
10009298:	f040 8161 	bne.w	1000955e <__ssvfscanf_r+0xfee>
1000929c:	6bfb      	ldr	r3, [r7, #60]	@ 0x3c
1000929e:	2b00      	cmp	r3, #0
100092a0:	f040 815d 	bne.w	1000955e <__ssvfscanf_r+0xfee>
100092a4:	f404 63e0 	and.w	r3, r4, #1792	@ 0x700
100092a8:	f5b3 6fe0 	cmp.w	r3, #1792	@ 0x700
100092ac:	f000 8365 	beq.w	1000997a <__ssvfscanf_r+0x140a>
100092b0:	2600      	movs	r6, #0
100092b2:	6c7b      	ldr	r3, [r7, #68]	@ 0x44
100092b4:	3b01      	subs	r3, #1
100092b6:	2b01      	cmp	r3, #1
100092b8:	f240 83b7 	bls.w	10009a2a <__ssvfscanf_r+0x14ba>
100092bc:	1e73      	subs	r3, r6, #1
100092be:	2b06      	cmp	r3, #6
100092c0:	f240 827d 	bls.w	100097be <__ssvfscanf_r+0x124e>
100092c4:	2300      	movs	r3, #0
100092c6:	63fb      	str	r3, [r7, #60]	@ 0x3c
100092c8:	05e2      	lsls	r2, r4, #23
100092ca:	f57f af64 	bpl.w	10009196 <__ssvfscanf_r+0xc26>
100092ce:	0563      	lsls	r3, r4, #21
100092d0:	f100 83be 	bmi.w	10009a50 <__ssvfscanf_r+0x14e0>
100092d4:	f815 1c01 	ldrb.w	r1, [r5, #-1]
100092d8:	f001 03df 	and.w	r3, r1, #223	@ 0xdf
100092dc:	2b45      	cmp	r3, #69	@ 0x45
100092de:	f040 81af 	bne.w	10009640 <__ssvfscanf_r+0x10d0>
100092e2:	1e6e      	subs	r6, r5, #1
100092e4:	f10b 3bff 	add.w	fp, fp, #4294967295	@ 0xffffffff
100092e8:	4652      	mov	r2, sl
100092ea:	6cb8      	ldr	r0, [r7, #72]	@ 0x48
100092ec:	f7ff f894 	bl	10008418 <_sungetc_r>
100092f0:	f014 0310 	ands.w	r3, r4, #16
100092f4:	f47f ac01 	bne.w	10008afa <__ssvfscanf_r+0x58a>
100092f8:	7033      	strb	r3, [r6, #0]
100092fa:	693b      	ldr	r3, [r7, #16]
100092fc:	2b00      	cmp	r3, #0
100092fe:	f040 82d0 	bne.w	100098a2 <__ssvfscanf_r+0x1332>
10009302:	6ab9      	ldr	r1, [r7, #40]	@ 0x28
10009304:	2200      	movs	r2, #0
10009306:	6cb8      	ldr	r0, [r7, #72]	@ 0x48
10009308:	f001 fef6 	bl	1000b0f8 <_strtod_r>
1000930c:	6afb      	ldr	r3, [r7, #44]	@ 0x2c
1000930e:	07e6      	lsls	r6, r4, #31
10009310:	4680      	mov	r8, r0
10009312:	f853 5b04 	ldr.w	r5, [r3], #4
10009316:	4689      	mov	r9, r1
10009318:	62fb      	str	r3, [r7, #44]	@ 0x2c
1000931a:	f100 8128 	bmi.w	1000956e <__ssvfscanf_r+0xffe>
1000931e:	07a4      	lsls	r4, r4, #30
10009320:	f100 8125 	bmi.w	1000956e <__ssvfscanf_r+0xffe>
10009324:	4602      	mov	r2, r0
10009326:	460b      	mov	r3, r1
10009328:	f7fb fd26 	bl	10004d78 <__wrap___aeabi_dcmpun>
1000932c:	2800      	cmp	r0, #0
1000932e:	f040 82ac 	bne.w	1000988a <__ssvfscanf_r+0x131a>
10009332:	4640      	mov	r0, r8
10009334:	4649      	mov	r1, r9
10009336:	f7fb fcc9 	bl	10004ccc <__wrap___aeabi_d2f>
1000933a:	6028      	str	r0, [r5, #0]
1000933c:	e119      	b.n	10009572 <__ssvfscanf_r+0x1002>
1000933e:	0521      	lsls	r1, r4, #20
10009340:	d504      	bpl.n	1000934c <__ssvfscanf_r+0xddc>
10009342:	6c7b      	ldr	r3, [r7, #68]	@ 0x44
10009344:	6cf9      	ldr	r1, [r7, #76]	@ 0x4c
10009346:	185b      	adds	r3, r3, r1
10009348:	f43f aefc 	beq.w	10009144 <__ssvfscanf_r+0xbd4>
1000934c:	6cfb      	ldr	r3, [r7, #76]	@ 0x4c
1000934e:	2b02      	cmp	r3, #2
10009350:	f040 8333 	bne.w	100099ba <__ssvfscanf_r+0x144a>
10009354:	2303      	movs	r3, #3
10009356:	64fb      	str	r3, [r7, #76]	@ 0x4c
10009358:	e6f8      	b.n	1000914c <__ssvfscanf_r+0xbdc>
1000935a:	0523      	lsls	r3, r4, #20
1000935c:	d504      	bpl.n	10009368 <__ssvfscanf_r+0xdf8>
1000935e:	6c7b      	ldr	r3, [r7, #68]	@ 0x44
10009360:	6cf9      	ldr	r1, [r7, #76]	@ 0x4c
10009362:	185b      	adds	r3, r3, r1
10009364:	f43f aeee 	beq.w	10009144 <__ssvfscanf_r+0xbd4>
10009368:	6c7b      	ldr	r3, [r7, #68]	@ 0x44
1000936a:	2b01      	cmp	r3, #1
1000936c:	f47f af03 	bne.w	10009176 <__ssvfscanf_r+0xc06>
10009370:	2302      	movs	r3, #2
10009372:	647b      	str	r3, [r7, #68]	@ 0x44
10009374:	e6ea      	b.n	1000914c <__ssvfscanf_r+0xbdc>
10009376:	0620      	lsls	r0, r4, #24
10009378:	f57f aefd 	bpl.w	10009176 <__ssvfscanf_r+0xc06>
1000937c:	f024 0480 	bic.w	r4, r4, #128	@ 0x80
10009380:	e6e4      	b.n	1000914c <__ssvfscanf_r+0xbdc>
10009382:	4b38      	ldr	r3, [pc, #224]	@ (10009464 <__ssvfscanf_r+0xef4>)
10009384:	f933 8018 	ldrsh.w	r8, [r3, r8, lsl #1]
10009388:	f1b8 0f08 	cmp.w	r8, #8
1000938c:	f73f add0 	bgt.w	10008f30 <__ssvfscanf_r+0x9c0>
10009390:	e5dd      	b.n	10008f4e <__ssvfscanf_r+0x9de>
10009392:	f404 63c0 	and.w	r3, r4, #1536	@ 0x600
10009396:	f5b3 7f00 	cmp.w	r3, #512	@ 0x200
1000939a:	f47f add8 	bne.w	10008f4e <__ssvfscanf_r+0x9de>
1000939e:	f424 7400 	bic.w	r4, r4, #512	@ 0x200
100093a2:	f04f 0810 	mov.w	r8, #16
100093a6:	f444 64a0 	orr.w	r4, r4, #1280	@ 0x500
100093aa:	e5c3      	b.n	10008f34 <__ssvfscanf_r+0x9c4>
100093ac:	0623      	lsls	r3, r4, #24
100093ae:	f57f adce 	bpl.w	10008f4e <__ssvfscanf_r+0x9de>
100093b2:	f024 0480 	bic.w	r4, r4, #128	@ 0x80
100093b6:	e5bd      	b.n	10008f34 <__ssvfscanf_r+0x9c4>
100093b8:	05e1      	lsls	r1, r4, #23
100093ba:	f57f aebf 	bpl.w	1000913c <__ssvfscanf_r+0xbcc>
100093be:	6bfb      	ldr	r3, [r7, #60]	@ 0x3c
100093c0:	f024 0480 	bic.w	r4, r4, #128	@ 0x80
100093c4:	3301      	adds	r3, #1
100093c6:	63fb      	str	r3, [r7, #60]	@ 0x3c
100093c8:	68fb      	ldr	r3, [r7, #12]
100093ca:	2b00      	cmp	r3, #0
100093cc:	f43f aec0 	beq.w	10009150 <__ssvfscanf_r+0xbe0>
100093d0:	68fb      	ldr	r3, [r7, #12]
100093d2:	3b01      	subs	r3, #1
100093d4:	60fb      	str	r3, [r7, #12]
100093d6:	e6bc      	b.n	10009152 <__ssvfscanf_r+0xbe2>
100093d8:	0523      	lsls	r3, r4, #20
100093da:	f57f adab 	bpl.w	10008f34 <__ssvfscanf_r+0x9c4>
100093de:	f1b8 0f00 	cmp.w	r8, #0
100093e2:	d103      	bne.n	100093ec <__ssvfscanf_r+0xe7c>
100093e4:	f444 7400 	orr.w	r4, r4, #512	@ 0x200
100093e8:	f04f 0808 	mov.w	r8, #8
100093ec:	0561      	lsls	r1, r4, #21
100093ee:	f140 80f5 	bpl.w	100095dc <__ssvfscanf_r+0x106c>
100093f2:	f424 64b0 	bic.w	r4, r4, #1408	@ 0x580
100093f6:	e59d      	b.n	10008f34 <__ssvfscanf_r+0x9c4>
100093f8:	4651      	mov	r1, sl
100093fa:	6cb8      	ldr	r0, [r7, #72]	@ 0x48
100093fc:	f7ff f84a 	bl	10008494 <__ssrefill_r>
10009400:	2800      	cmp	r0, #0
10009402:	f47f aeb8 	bne.w	10009176 <__ssvfscanf_r+0xc06>
10009406:	2e00      	cmp	r6, #0
10009408:	f47f adf1 	bne.w	10008fee <__ssvfscanf_r+0xa7e>
1000940c:	e6b3      	b.n	10009176 <__ssvfscanf_r+0xc06>
1000940e:	4631      	mov	r1, r6
10009410:	6cb8      	ldr	r0, [r7, #72]	@ 0x48
10009412:	f7ff f83f 	bl	10008494 <__ssrefill_r>
10009416:	2800      	cmp	r0, #0
10009418:	f43f ad96 	beq.w	10008f48 <__ssvfscanf_r+0x9d8>
1000941c:	e597      	b.n	10008f4e <__ssvfscanf_r+0x9de>
1000941e:	f8da 2004 	ldr.w	r2, [sl, #4]
10009422:	2a00      	cmp	r2, #0
10009424:	f73f aaf7 	bgt.w	10008a16 <__ssvfscanf_r+0x4a6>
10009428:	4651      	mov	r1, sl
1000942a:	6cb8      	ldr	r0, [r7, #72]	@ 0x48
1000942c:	f7ff f832 	bl	10008494 <__ssrefill_r>
10009430:	2800      	cmp	r0, #0
10009432:	f43f aaf0 	beq.w	10008a16 <__ssvfscanf_r+0x4a6>
10009436:	f8c7 9020 	str.w	r9, [r7, #32]
1000943a:	f8d7 903c 	ldr.w	r9, [r7, #60]	@ 0x3c
1000943e:	2c00      	cmp	r4, #0
10009440:	f43f ab4c 	beq.w	10008adc <__ssvfscanf_r+0x56c>
10009444:	f7ff b905 	b.w	10008652 <__ssvfscanf_r+0xe2>
10009448:	f8da 3004 	ldr.w	r3, [sl, #4]
1000944c:	2b00      	cmp	r3, #0
1000944e:	f340 80d0 	ble.w	100095f2 <__ssvfscanf_r+0x1082>
10009452:	6c7c      	ldr	r4, [r7, #68]	@ 0x44
10009454:	f7ff bbb9 	b.w	10008bca <__ssvfscanf_r+0x65a>
10009458:	f04f 0800 	mov.w	r8, #0
1000945c:	e502      	b.n	10008e64 <__ssvfscanf_r+0x8f4>
1000945e:	bf00      	nop
10009460:	1000d290 	.word	0x1000d290
10009464:	1000e2e8 	.word	0x1000e2e8
10009468:	6abb      	ldr	r3, [r7, #40]	@ 0x28
1000946a:	2b00      	cmp	r3, #0
1000946c:	f040 80f2 	bne.w	10009654 <__ssvfscanf_r+0x10e4>
10009470:	6afb      	ldr	r3, [r7, #44]	@ 0x2c
10009472:	f014 0480 	ands.w	r4, r4, #128	@ 0x80
10009476:	f853 2b04 	ldr.w	r2, [r3], #4
1000947a:	62fb      	str	r3, [r7, #44]	@ 0x2c
1000947c:	f000 822b 	beq.w	100098d6 <__ssvfscanf_r+0x1366>
10009480:	647a      	str	r2, [r7, #68]	@ 0x44
10009482:	2a00      	cmp	r2, #0
10009484:	f43f a975 	beq.w	10008772 <__ssvfscanf_r+0x202>
10009488:	2020      	movs	r0, #32
1000948a:	f7fb fe3b 	bl	10005104 <__wrap_malloc>
1000948e:	4605      	mov	r5, r0
10009490:	2800      	cmp	r0, #0
10009492:	f43f a8e2 	beq.w	1000865a <__ssvfscanf_r+0xea>
10009496:	6b7b      	ldr	r3, [r7, #52]	@ 0x34
10009498:	6c7a      	ldr	r2, [r7, #68]	@ 0x44
1000949a:	88dc      	ldrh	r4, [r3, #6]
1000949c:	889e      	ldrh	r6, [r3, #4]
1000949e:	6010      	str	r0, [r2, #0]
100094a0:	42b4      	cmp	r4, r6
100094a2:	f080 8178 	bcs.w	10009796 <__ssvfscanf_r+0x1226>
100094a6:	6818      	ldr	r0, [r3, #0]
100094a8:	6b7b      	ldr	r3, [r7, #52]	@ 0x34
100094aa:	2620      	movs	r6, #32
100094ac:	f840 2024 	str.w	r2, [r0, r4, lsl #2]
100094b0:	3401      	adds	r4, #1
100094b2:	80dc      	strh	r4, [r3, #6]
100094b4:	f8da 0000 	ldr.w	r0, [sl]
100094b8:	f107 0370 	add.w	r3, r7, #112	@ 0x70
100094bc:	7801      	ldrb	r1, [r0, #0]
100094be:	5c59      	ldrb	r1, [r3, r1]
100094c0:	2900      	cmp	r1, #0
100094c2:	f43f a956 	beq.w	10008772 <__ssvfscanf_r+0x202>
100094c6:	1e13      	subs	r3, r2, #0
100094c8:	f8c7 b03c 	str.w	fp, [r7, #60]	@ 0x3c
100094cc:	462c      	mov	r4, r5
100094ce:	46b3      	mov	fp, r6
100094d0:	bf18      	it	ne
100094d2:	2301      	movne	r3, #1
100094d4:	647a      	str	r2, [r7, #68]	@ 0x44
100094d6:	461e      	mov	r6, r3
100094d8:	633b      	str	r3, [r7, #48]	@ 0x30
100094da:	e007      	b.n	100094ec <__ssvfscanf_r+0xf7c>
100094dc:	f8da 0000 	ldr.w	r0, [sl]
100094e0:	f107 0270 	add.w	r2, r7, #112	@ 0x70
100094e4:	7803      	ldrb	r3, [r0, #0]
100094e6:	5cd3      	ldrb	r3, [r2, r3]
100094e8:	2b00      	cmp	r3, #0
100094ea:	d061      	beq.n	100095b0 <__ssvfscanf_r+0x1040>
100094ec:	f8da 3004 	ldr.w	r3, [sl, #4]
100094f0:	1c41      	adds	r1, r0, #1
100094f2:	3b01      	subs	r3, #1
100094f4:	e9ca 1300 	strd	r1, r3, [sl]
100094f8:	7803      	ldrb	r3, [r0, #0]
100094fa:	f805 3b01 	strb.w	r3, [r5], #1
100094fe:	eba5 0804 	sub.w	r8, r5, r4
10009502:	45d8      	cmp	r8, fp
10009504:	d30e      	bcc.n	10009524 <__ssvfscanf_r+0xfb4>
10009506:	4620      	mov	r0, r4
10009508:	b166      	cbz	r6, 10009524 <__ssvfscanf_r+0xfb4>
1000950a:	ea4f 0b4b 	mov.w	fp, fp, lsl #1
1000950e:	4659      	mov	r1, fp
10009510:	f7fb fe14 	bl	1000513c <__wrap_realloc>
10009514:	4604      	mov	r4, r0
10009516:	2800      	cmp	r0, #0
10009518:	f43f a89f 	beq.w	1000865a <__ssvfscanf_r+0xea>
1000951c:	6c7b      	ldr	r3, [r7, #68]	@ 0x44
1000951e:	eb00 0508 	add.w	r5, r0, r8
10009522:	6018      	str	r0, [r3, #0]
10009524:	f1b9 0901 	subs.w	r9, r9, #1
10009528:	d042      	beq.n	100095b0 <__ssvfscanf_r+0x1040>
1000952a:	f8da 3004 	ldr.w	r3, [sl, #4]
1000952e:	2b00      	cmp	r3, #0
10009530:	dcd4      	bgt.n	100094dc <__ssvfscanf_r+0xf6c>
10009532:	4651      	mov	r1, sl
10009534:	6cb8      	ldr	r0, [r7, #72]	@ 0x48
10009536:	f7fe ffad 	bl	10008494 <__ssrefill_r>
1000953a:	2800      	cmp	r0, #0
1000953c:	d0ce      	beq.n	100094dc <__ssvfscanf_r+0xf6c>
1000953e:	42a5      	cmp	r5, r4
10009540:	465e      	mov	r6, fp
10009542:	6c7a      	ldr	r2, [r7, #68]	@ 0x44
10009544:	f8d7 b03c 	ldr.w	fp, [r7, #60]	@ 0x3c
10009548:	f43f a883 	beq.w	10008652 <__ssvfscanf_r+0xe2>
1000954c:	1b2c      	subs	r4, r5, r4
1000954e:	e036      	b.n	100095be <__ssvfscanf_r+0x104e>
10009550:	6c7b      	ldr	r3, [r7, #68]	@ 0x44
10009552:	2b02      	cmp	r3, #2
10009554:	f47f ae90 	bne.w	10009278 <__ssvfscanf_r+0xd08>
10009558:	2303      	movs	r3, #3
1000955a:	647b      	str	r3, [r7, #68]	@ 0x44
1000955c:	e5f6      	b.n	1000914c <__ssvfscanf_r+0xbdc>
1000955e:	6cfb      	ldr	r3, [r7, #76]	@ 0x4c
10009560:	2b03      	cmp	r3, #3
10009562:	f43f ae8f 	beq.w	10009284 <__ssvfscanf_r+0xd14>
10009566:	2b05      	cmp	r3, #5
10009568:	f43f ae8c 	beq.w	10009284 <__ssvfscanf_r+0xd14>
1000956c:	e603      	b.n	10009176 <__ssvfscanf_r+0xc06>
1000956e:	e9c5 8900 	strd	r8, r9, [r5]
10009572:	6c3b      	ldr	r3, [r7, #64]	@ 0x40
10009574:	3301      	adds	r3, #1
10009576:	643b      	str	r3, [r7, #64]	@ 0x40
10009578:	6b3b      	ldr	r3, [r7, #48]	@ 0x30
1000957a:	64fb      	str	r3, [r7, #76]	@ 0x4c
1000957c:	f7ff b822 	b.w	100085c4 <__ssvfscanf_r+0x54>
10009580:	68bd      	ldr	r5, [r7, #8]
10009582:	4642      	mov	r2, r8
10009584:	69f9      	ldr	r1, [r7, #28]
10009586:	46a3      	mov	fp, r4
10009588:	4628      	mov	r0, r5
1000958a:	4654      	mov	r4, sl
1000958c:	46b2      	mov	sl, r6
1000958e:	687e      	ldr	r6, [r7, #4]
10009590:	f000 fd22 	bl	10009fd8 <stpncpy>
10009594:	6bfb      	ldr	r3, [r7, #60]	@ 0x3c
10009596:	f424 7420 	bic.w	r4, r4, #640	@ 0x280
1000959a:	3e01      	subs	r6, #1
1000959c:	4605      	mov	r5, r0
1000959e:	61bb      	str	r3, [r7, #24]
100095a0:	e5d7      	b.n	10009152 <__ssvfscanf_r+0xbe2>
100095a2:	2300      	movs	r3, #0
100095a4:	60fb      	str	r3, [r7, #12]
100095a6:	e514      	b.n	10008fd2 <__ssvfscanf_r+0xa62>
100095a8:	6afb      	ldr	r3, [r7, #44]	@ 0x2c
100095aa:	681b      	ldr	r3, [r3, #0]
100095ac:	6018      	str	r0, [r3, #0]
100095ae:	e4f1      	b.n	10008f94 <__ssvfscanf_r+0xa24>
100095b0:	1b2c      	subs	r4, r5, r4
100095b2:	465e      	mov	r6, fp
100095b4:	6c7a      	ldr	r2, [r7, #68]	@ 0x44
100095b6:	f8d7 b03c 	ldr.w	fp, [r7, #60]	@ 0x3c
100095ba:	f43f a8da 	beq.w	10008772 <__ssvfscanf_r+0x202>
100095be:	2100      	movs	r1, #0
100095c0:	7029      	strb	r1, [r5, #0]
100095c2:	1c61      	adds	r1, r4, #1
100095c4:	428e      	cmp	r6, r1
100095c6:	d903      	bls.n	100095d0 <__ssvfscanf_r+0x1060>
100095c8:	6b3b      	ldr	r3, [r7, #48]	@ 0x30
100095ca:	2b00      	cmp	r3, #0
100095cc:	f040 8129 	bne.w	10009822 <__ssvfscanf_r+0x12b2>
100095d0:	44a3      	add	fp, r4
100095d2:	6c3b      	ldr	r3, [r7, #64]	@ 0x40
100095d4:	3301      	adds	r3, #1
100095d6:	643b      	str	r3, [r7, #64]	@ 0x40
100095d8:	f7fe bff4 	b.w	100085c4 <__ssvfscanf_r+0x54>
100095dc:	6cfb      	ldr	r3, [r7, #76]	@ 0x4c
100095de:	f424 7460 	bic.w	r4, r4, #896	@ 0x380
100095e2:	b11b      	cbz	r3, 100095ec <__ssvfscanf_r+0x107c>
100095e4:	3b01      	subs	r3, #1
100095e6:	f109 0901 	add.w	r9, r9, #1
100095ea:	64fb      	str	r3, [r7, #76]	@ 0x4c
100095ec:	f10a 0a01 	add.w	sl, sl, #1
100095f0:	e4a2      	b.n	10008f38 <__ssvfscanf_r+0x9c8>
100095f2:	4651      	mov	r1, sl
100095f4:	6cb8      	ldr	r0, [r7, #72]	@ 0x48
100095f6:	f7fe ff4d 	bl	10008494 <__ssrefill_r>
100095fa:	2800      	cmp	r0, #0
100095fc:	f43f af29 	beq.w	10009452 <__ssvfscanf_r+0xee2>
10009600:	6c7b      	ldr	r3, [r7, #68]	@ 0x44
10009602:	464e      	mov	r6, r9
10009604:	f8d7 b03c 	ldr.w	fp, [r7, #60]	@ 0x3c
10009608:	623d      	str	r5, [r7, #32]
1000960a:	2b00      	cmp	r3, #0
1000960c:	f43f ab6b 	beq.w	10008ce6 <__ssvfscanf_r+0x776>
10009610:	f7ff b81f 	b.w	10008652 <__ssvfscanf_r+0xe2>
10009614:	f8cd a000 	str.w	sl, [sp]
10009618:	462b      	mov	r3, r5
1000961a:	4631      	mov	r1, r6
1000961c:	2201      	movs	r2, #1
1000961e:	6cb8      	ldr	r0, [r7, #72]	@ 0x48
10009620:	f7fe ff54 	bl	100084cc <_sfread_r>
10009624:	4604      	mov	r4, r0
10009626:	2800      	cmp	r0, #0
10009628:	f43f a813 	beq.w	10008652 <__ssvfscanf_r+0xe2>
1000962c:	44a3      	add	fp, r4
1000962e:	e7a0      	b.n	10009572 <__ssvfscanf_r+0x1002>
10009630:	f815 1c01 	ldrb.w	r1, [r5, #-1]
10009634:	4632      	mov	r2, r6
10009636:	6cb8      	ldr	r0, [r7, #72]	@ 0x48
10009638:	3d01      	subs	r5, #1
1000963a:	f7fe feed 	bl	10008418 <_sungetc_r>
1000963e:	e490      	b.n	10008f62 <__ssvfscanf_r+0x9f2>
10009640:	4652      	mov	r2, sl
10009642:	6cb8      	ldr	r0, [r7, #72]	@ 0x48
10009644:	f7fe fee8 	bl	10008418 <_sungetc_r>
10009648:	f1ab 0b02 	sub.w	fp, fp, #2
1000964c:	1eae      	subs	r6, r5, #2
1000964e:	f815 1c02 	ldrb.w	r1, [r5, #-2]
10009652:	e649      	b.n	100092e8 <__ssvfscanf_r+0xd78>
10009654:	f8da 2000 	ldr.w	r2, [sl]
10009658:	f107 0170 	add.w	r1, r7, #112	@ 0x70
1000965c:	7813      	ldrb	r3, [r2, #0]
1000965e:	5ccb      	ldrb	r3, [r1, r3]
10009660:	2b00      	cmp	r3, #0
10009662:	f43f a886 	beq.w	10008772 <__ssvfscanf_r+0x202>
10009666:	6cbc      	ldr	r4, [r7, #72]	@ 0x48
10009668:	e005      	b.n	10009676 <__ssvfscanf_r+0x1106>
1000966a:	7813      	ldrb	r3, [r2, #0]
1000966c:	f107 0170 	add.w	r1, r7, #112	@ 0x70
10009670:	5ccb      	ldrb	r3, [r1, r3]
10009672:	2b00      	cmp	r3, #0
10009674:	d043      	beq.n	100096fe <__ssvfscanf_r+0x118e>
10009676:	f8da 3004 	ldr.w	r3, [sl, #4]
1000967a:	3501      	adds	r5, #1
1000967c:	3201      	adds	r2, #1
1000967e:	3b01      	subs	r3, #1
10009680:	454d      	cmp	r5, r9
10009682:	e9ca 2300 	strd	r2, r3, [sl]
10009686:	d03a      	beq.n	100096fe <__ssvfscanf_r+0x118e>
10009688:	2b00      	cmp	r3, #0
1000968a:	dcee      	bgt.n	1000966a <__ssvfscanf_r+0x10fa>
1000968c:	4651      	mov	r1, sl
1000968e:	4620      	mov	r0, r4
10009690:	f7fe ff00 	bl	10008494 <__ssrefill_r>
10009694:	bb98      	cbnz	r0, 100096fe <__ssvfscanf_r+0x118e>
10009696:	f8da 2000 	ldr.w	r2, [sl]
1000969a:	e7e6      	b.n	1000966a <__ssvfscanf_r+0x10fa>
1000969c:	2300      	movs	r3, #0
1000969e:	461e      	mov	r6, r3
100096a0:	4699      	mov	r9, r3
100096a2:	62bb      	str	r3, [r7, #40]	@ 0x28
100096a4:	647b      	str	r3, [r7, #68]	@ 0x44
100096a6:	61fb      	str	r3, [r7, #28]
100096a8:	f7ff b9ae 	b.w	10008a08 <__ssvfscanf_r+0x498>
100096ac:	2300      	movs	r3, #0
100096ae:	f107 0654 	add.w	r6, r7, #84	@ 0x54
100096b2:	617b      	str	r3, [r7, #20]
100096b4:	613b      	str	r3, [r7, #16]
100096b6:	e9c7 3306 	strd	r3, r3, [r7, #24]
100096ba:	f7ff ba7e 	b.w	10008bba <__ssvfscanf_r+0x64a>
100096be:	461c      	mov	r4, r3
100096c0:	6cbe      	ldr	r6, [r7, #72]	@ 0x48
100096c2:	e00a      	b.n	100096da <__ssvfscanf_r+0x116a>
100096c4:	f8ca 1000 	str.w	r1, [sl]
100096c8:	4630      	mov	r0, r6
100096ca:	4651      	mov	r1, sl
100096cc:	441c      	add	r4, r3
100096ce:	1aed      	subs	r5, r5, r3
100096d0:	f7fe fee0 	bl	10008494 <__ssrefill_r>
100096d4:	2800      	cmp	r0, #0
100096d6:	f040 8160 	bne.w	1000999a <__ssvfscanf_r+0x142a>
100096da:	e9da 2300 	ldrd	r2, r3, [sl]
100096de:	429d      	cmp	r5, r3
100096e0:	eb02 0103 	add.w	r1, r2, r3
100096e4:	dcee      	bgt.n	100096c4 <__ssvfscanf_r+0x1154>
100096e6:	1b5b      	subs	r3, r3, r5
100096e8:	442a      	add	r2, r5
100096ea:	442c      	add	r4, r5
100096ec:	f8ca 3004 	str.w	r3, [sl, #4]
100096f0:	f8ca 2000 	str.w	r2, [sl]
100096f4:	6b3b      	ldr	r3, [r7, #48]	@ 0x30
100096f6:	44a3      	add	fp, r4
100096f8:	64fb      	str	r3, [r7, #76]	@ 0x4c
100096fa:	f7fe bf63 	b.w	100085c4 <__ssvfscanf_r+0x54>
100096fe:	44ab      	add	fp, r5
10009700:	f7fe bf60 	b.w	100085c4 <__ssvfscanf_r+0x54>
10009704:	f64f 73f6 	movw	r3, #65526	@ 0xfff6
10009708:	4598      	cmp	r8, r3
1000970a:	f200 8185 	bhi.w	10009a18 <__ssvfscanf_r+0x14a8>
1000970e:	f108 0808 	add.w	r8, r8, #8
10009712:	6b7b      	ldr	r3, [r7, #52]	@ 0x34
10009714:	ea4f 0188 	mov.w	r1, r8, lsl #2
10009718:	6818      	ldr	r0, [r3, #0]
1000971a:	f7fb fd0f 	bl	1000513c <__wrap_realloc>
1000971e:	2800      	cmp	r0, #0
10009720:	f000 817a 	beq.w	10009a18 <__ssvfscanf_r+0x14a8>
10009724:	6b7b      	ldr	r3, [r7, #52]	@ 0x34
10009726:	f8a3 8004 	strh.w	r8, [r3, #4]
1000972a:	6018      	str	r0, [r3, #0]
1000972c:	f7ff b961 	b.w	100089f2 <__ssvfscanf_r+0x482>
10009730:	f64f 73f6 	movw	r3, #65526	@ 0xfff6
10009734:	429d      	cmp	r5, r3
10009736:	f200 816f 	bhi.w	10009a18 <__ssvfscanf_r+0x14a8>
1000973a:	3508      	adds	r5, #8
1000973c:	6b7b      	ldr	r3, [r7, #52]	@ 0x34
1000973e:	00a9      	lsls	r1, r5, #2
10009740:	6818      	ldr	r0, [r3, #0]
10009742:	f7fb fcfb 	bl	1000513c <__wrap_realloc>
10009746:	2800      	cmp	r0, #0
10009748:	f000 8166 	beq.w	10009a18 <__ssvfscanf_r+0x14a8>
1000974c:	6b7b      	ldr	r3, [r7, #52]	@ 0x34
1000974e:	809d      	strh	r5, [r3, #4]
10009750:	6018      	str	r0, [r3, #0]
10009752:	f7ff ba27 	b.w	10008ba4 <__ssvfscanf_r+0x634>
10009756:	2e02      	cmp	r6, #2
10009758:	f240 818a 	bls.w	10009a70 <__ssvfscanf_r+0x1500>
1000975c:	2e03      	cmp	r6, #3
1000975e:	f43f ad1a 	beq.w	10009196 <__ssvfscanf_r+0xc26>
10009762:	1f33      	subs	r3, r6, #4
10009764:	64fc      	str	r4, [r7, #76]	@ 0x4c
10009766:	f8d7 9048 	ldr.w	r9, [r7, #72]	@ 0x48
1000976a:	462c      	mov	r4, r5
1000976c:	b2db      	uxtb	r3, r3
1000976e:	43de      	mvns	r6, r3
10009770:	4698      	mov	r8, r3
10009772:	442e      	add	r6, r5
10009774:	f814 1d01 	ldrb.w	r1, [r4, #-1]!
10009778:	4652      	mov	r2, sl
1000977a:	4648      	mov	r0, r9
1000977c:	f7fe fe4c 	bl	10008418 <_sungetc_r>
10009780:	42b4      	cmp	r4, r6
10009782:	d1f7      	bne.n	10009774 <__ssvfscanf_r+0x1204>
10009784:	4643      	mov	r3, r8
10009786:	f10b 3bff 	add.w	fp, fp, #4294967295	@ 0xffffffff
1000978a:	3d01      	subs	r5, #1
1000978c:	6cfc      	ldr	r4, [r7, #76]	@ 0x4c
1000978e:	ebab 0b08 	sub.w	fp, fp, r8
10009792:	1aed      	subs	r5, r5, r3
10009794:	e598      	b.n	100092c8 <__ssvfscanf_r+0xd58>
10009796:	f64f 73f6 	movw	r3, #65526	@ 0xfff6
1000979a:	647a      	str	r2, [r7, #68]	@ 0x44
1000979c:	429e      	cmp	r6, r3
1000979e:	f63e af60 	bhi.w	10008662 <__ssvfscanf_r+0xf2>
100097a2:	3608      	adds	r6, #8
100097a4:	6b7b      	ldr	r3, [r7, #52]	@ 0x34
100097a6:	00b1      	lsls	r1, r6, #2
100097a8:	6818      	ldr	r0, [r3, #0]
100097aa:	f7fb fcc7 	bl	1000513c <__wrap_realloc>
100097ae:	2800      	cmp	r0, #0
100097b0:	f43e af57 	beq.w	10008662 <__ssvfscanf_r+0xf2>
100097b4:	6b7b      	ldr	r3, [r7, #52]	@ 0x34
100097b6:	6c7a      	ldr	r2, [r7, #68]	@ 0x44
100097b8:	809e      	strh	r6, [r3, #4]
100097ba:	6018      	str	r0, [r3, #0]
100097bc:	e674      	b.n	100094a8 <__ssvfscanf_r+0xf38>
100097be:	2e02      	cmp	r6, #2
100097c0:	f240 8156 	bls.w	10009a70 <__ssvfscanf_r+0x1500>
100097c4:	2300      	movs	r3, #0
100097c6:	2e03      	cmp	r6, #3
100097c8:	63fb      	str	r3, [r7, #60]	@ 0x3c
100097ca:	d1ca      	bne.n	10009762 <__ssvfscanf_r+0x11f2>
100097cc:	e57c      	b.n	100092c8 <__ssvfscanf_r+0xd58>
100097ce:	78a9      	ldrb	r1, [r5, #2]
100097d0:	f044 0402 	orr.w	r4, r4, #2
100097d4:	3502      	adds	r5, #2
100097d6:	f7fe bf6a 	b.w	100086ae <__ssvfscanf_r+0x13e>
100097da:	78a9      	ldrb	r1, [r5, #2]
100097dc:	f044 0408 	orr.w	r4, r4, #8
100097e0:	3502      	adds	r5, #2
100097e2:	f7fe bf64 	b.w	100086ae <__ssvfscanf_r+0x13e>
100097e6:	f044 0440 	orr.w	r4, r4, #64	@ 0x40
100097ea:	f7ff b8e1 	b.w	100089b0 <__ssvfscanf_r+0x440>
100097ee:	0766      	lsls	r6, r4, #29
100097f0:	d43c      	bmi.n	1000986c <__ssvfscanf_r+0x12fc>
100097f2:	f014 0201 	ands.w	r2, r4, #1
100097f6:	f47f aed7 	bne.w	100095a8 <__ssvfscanf_r+0x1038>
100097fa:	07a4      	lsls	r4, r4, #30
100097fc:	f57f aed4 	bpl.w	100095a8 <__ssvfscanf_r+0x1038>
10009800:	4bab      	ldr	r3, [pc, #684]	@ (10009ab0 <__ssvfscanf_r+0x1540>)
10009802:	6a79      	ldr	r1, [r7, #36]	@ 0x24
10009804:	6cb8      	ldr	r0, [r7, #72]	@ 0x48
10009806:	4299      	cmp	r1, r3
10009808:	6bbb      	ldr	r3, [r7, #56]	@ 0x38
1000980a:	6ab9      	ldr	r1, [r7, #40]	@ 0x28
1000980c:	f000 814b 	beq.w	10009aa6 <__ssvfscanf_r+0x1536>
10009810:	f001 fed4 	bl	1000b5bc <_strtoll_r>
10009814:	460b      	mov	r3, r1
10009816:	6afa      	ldr	r2, [r7, #44]	@ 0x2c
10009818:	6811      	ldr	r1, [r2, #0]
1000981a:	e9c1 0300 	strd	r0, r3, [r1]
1000981e:	f7ff bbb9 	b.w	10008f94 <__ssvfscanf_r+0xa24>
10009822:	6810      	ldr	r0, [r2, #0]
10009824:	647a      	str	r2, [r7, #68]	@ 0x44
10009826:	f7fb fc89 	bl	1000513c <__wrap_realloc>
1000982a:	2800      	cmp	r0, #0
1000982c:	f43f aed0 	beq.w	100095d0 <__ssvfscanf_r+0x1060>
10009830:	6c7a      	ldr	r2, [r7, #68]	@ 0x44
10009832:	44a3      	add	fp, r4
10009834:	6010      	str	r0, [r2, #0]
10009836:	e6cc      	b.n	100095d2 <__ssvfscanf_r+0x1062>
10009838:	f883 b000 	strb.w	fp, [r3]
1000983c:	f7ff b95d 	b.w	10008afa <__ssvfscanf_r+0x58a>
10009840:	f64f 73f6 	movw	r3, #65526	@ 0xfff6
10009844:	429a      	cmp	r2, r3
10009846:	f63e af0c 	bhi.w	10008662 <__ssvfscanf_r+0xf2>
1000984a:	f102 0908 	add.w	r9, r2, #8
1000984e:	6b7b      	ldr	r3, [r7, #52]	@ 0x34
10009850:	ea4f 0189 	mov.w	r1, r9, lsl #2
10009854:	6818      	ldr	r0, [r3, #0]
10009856:	f7fb fc71 	bl	1000513c <__wrap_realloc>
1000985a:	2800      	cmp	r0, #0
1000985c:	f43e af01 	beq.w	10008662 <__ssvfscanf_r+0xf2>
10009860:	6b7b      	ldr	r3, [r7, #52]	@ 0x34
10009862:	f8a3 9004 	strh.w	r9, [r3, #4]
10009866:	6018      	str	r0, [r3, #0]
10009868:	f7ff bab0 	b.w	10008dcc <__ssvfscanf_r+0x85c>
1000986c:	6afb      	ldr	r3, [r7, #44]	@ 0x2c
1000986e:	681b      	ldr	r3, [r3, #0]
10009870:	8018      	strh	r0, [r3, #0]
10009872:	f7ff bb8f 	b.w	10008f94 <__ssvfscanf_r+0xa24>
10009876:	69fc      	ldr	r4, [r7, #28]
10009878:	6820      	ldr	r0, [r4, #0]
1000987a:	f7fb fc5f 	bl	1000513c <__wrap_realloc>
1000987e:	2800      	cmp	r0, #0
10009880:	f43f a936 	beq.w	10008af0 <__ssvfscanf_r+0x580>
10009884:	6020      	str	r0, [r4, #0]
10009886:	f7ff b933 	b.w	10008af0 <__ssvfscanf_r+0x580>
1000988a:	488a      	ldr	r0, [pc, #552]	@ (10009ab4 <__ssvfscanf_r+0x1544>)
1000988c:	f000 fbe4 	bl	1000a058 <nanf>
10009890:	6028      	str	r0, [r5, #0]
10009892:	e66e      	b.n	10009572 <__ssvfscanf_r+0x1002>
10009894:	b082      	sub	sp, #8
10009896:	e9cd 3302 	strd	r3, r3, [sp, #8]
1000989a:	ab02      	add	r3, sp, #8
1000989c:	637b      	str	r3, [r7, #52]	@ 0x34
1000989e:	f7ff b93d 	b.w	10008b1c <__ssvfscanf_r+0x5ac>
100098a2:	6979      	ldr	r1, [r7, #20]
100098a4:	230a      	movs	r3, #10
100098a6:	2200      	movs	r2, #0
100098a8:	6cb8      	ldr	r0, [r7, #72]	@ 0x48
100098aa:	3101      	adds	r1, #1
100098ac:	f001 fd0e 	bl	1000b2cc <_strtol_r>
100098b0:	693b      	ldr	r3, [r7, #16]
100098b2:	1ac2      	subs	r2, r0, r3
100098b4:	e483      	b.n	100091be <__ssvfscanf_r+0xc4e>
100098b6:	6abb      	ldr	r3, [r7, #40]	@ 0x28
100098b8:	693e      	ldr	r6, [r7, #16]
100098ba:	61fb      	str	r3, [r7, #28]
100098bc:	613b      	str	r3, [r7, #16]
100098be:	e9c7 3305 	strd	r3, r3, [r7, #20]
100098c2:	f7ff b97a 	b.w	10008bba <__ssvfscanf_r+0x64a>
100098c6:	6cfb      	ldr	r3, [r7, #76]	@ 0x4c
100098c8:	69fe      	ldr	r6, [r7, #28]
100098ca:	4699      	mov	r9, r3
100098cc:	62bb      	str	r3, [r7, #40]	@ 0x28
100098ce:	647b      	str	r3, [r7, #68]	@ 0x44
100098d0:	61fb      	str	r3, [r7, #28]
100098d2:	f7ff b899 	b.w	10008a08 <__ssvfscanf_r+0x498>
100098d6:	4615      	mov	r5, r2
100098d8:	4626      	mov	r6, r4
100098da:	4622      	mov	r2, r4
100098dc:	e5ea      	b.n	100094b4 <__ssvfscanf_r+0xf44>
100098de:	4651      	mov	r1, sl
100098e0:	6cb8      	ldr	r0, [r7, #72]	@ 0x48
100098e2:	f7fe fdd7 	bl	10008494 <__ssrefill_r>
100098e6:	2800      	cmp	r0, #0
100098e8:	f43f a85e 	beq.w	100089a8 <__ssvfscanf_r+0x438>
100098ec:	f7fe beb1 	b.w	10008652 <__ssvfscanf_r+0xe2>
100098f0:	4651      	mov	r1, sl
100098f2:	6cb8      	ldr	r0, [r7, #72]	@ 0x48
100098f4:	f7fe fdce 	bl	10008494 <__ssrefill_r>
100098f8:	2800      	cmp	r0, #0
100098fa:	f43f a91a 	beq.w	10008b32 <__ssvfscanf_r+0x5c2>
100098fe:	f7fe bea8 	b.w	10008652 <__ssvfscanf_r+0xe2>
10009902:	4651      	mov	r1, sl
10009904:	6cb8      	ldr	r0, [r7, #72]	@ 0x48
10009906:	f7fe fdc5 	bl	10008494 <__ssrefill_r>
1000990a:	2800      	cmp	r0, #0
1000990c:	f43f a920 	beq.w	10008b50 <__ssvfscanf_r+0x5e0>
10009910:	f7fe be9f 	b.w	10008652 <__ssvfscanf_r+0xe2>
10009914:	4651      	mov	r1, sl
10009916:	6cb8      	ldr	r0, [r7, #72]	@ 0x48
10009918:	f7fe fdbc 	bl	10008494 <__ssrefill_r>
1000991c:	2800      	cmp	r0, #0
1000991e:	f43f aa30 	beq.w	10008d82 <__ssvfscanf_r+0x812>
10009922:	f7fe be96 	b.w	10008652 <__ssvfscanf_r+0xe2>
10009926:	4651      	mov	r1, sl
10009928:	6cb8      	ldr	r0, [r7, #72]	@ 0x48
1000992a:	f7fe fdb3 	bl	10008494 <__ssrefill_r>
1000992e:	2800      	cmp	r0, #0
10009930:	f43f aa1b 	beq.w	10008d6a <__ssvfscanf_r+0x7fa>
10009934:	f7fe be8d 	b.w	10008652 <__ssvfscanf_r+0xe2>
10009938:	4651      	mov	r1, sl
1000993a:	6cb8      	ldr	r0, [r7, #72]	@ 0x48
1000993c:	f7fe fdaa 	bl	10008494 <__ssrefill_r>
10009940:	2800      	cmp	r0, #0
10009942:	f43f a9fc 	beq.w	10008d3e <__ssvfscanf_r+0x7ce>
10009946:	f7fe be84 	b.w	10008652 <__ssvfscanf_r+0xe2>
1000994a:	6c7b      	ldr	r3, [r7, #68]	@ 0x44
1000994c:	464e      	mov	r6, r9
1000994e:	f8d7 b03c 	ldr.w	fp, [r7, #60]	@ 0x3c
10009952:	623d      	str	r5, [r7, #32]
10009954:	2b00      	cmp	r3, #0
10009956:	f43f a9c6 	beq.w	10008ce6 <__ssvfscanf_r+0x776>
1000995a:	eb08 0403 	add.w	r4, r8, r3
1000995e:	461d      	mov	r5, r3
10009960:	f8d7 8048 	ldr.w	r8, [r7, #72]	@ 0x48
10009964:	3d01      	subs	r5, #1
10009966:	4652      	mov	r2, sl
10009968:	f814 1d01 	ldrb.w	r1, [r4, #-1]!
1000996c:	4640      	mov	r0, r8
1000996e:	f7fe fd53 	bl	10008418 <_sungetc_r>
10009972:	2d00      	cmp	r5, #0
10009974:	d1f6      	bne.n	10009964 <__ssvfscanf_r+0x13f4>
10009976:	f7ff b9b6 	b.w	10008ce6 <__ssvfscanf_r+0x776>
1000997a:	2301      	movs	r3, #1
1000997c:	f424 64f0 	bic.w	r4, r4, #1920	@ 0x780
10009980:	64fb      	str	r3, [r7, #76]	@ 0x4c
10009982:	2300      	movs	r3, #0
10009984:	63fb      	str	r3, [r7, #60]	@ 0x3c
10009986:	f7ff bbe1 	b.w	1000914c <__ssvfscanf_r+0xbdc>
1000998a:	2301      	movs	r3, #1
1000998c:	f424 64f0 	bic.w	r4, r4, #1920	@ 0x780
10009990:	647b      	str	r3, [r7, #68]	@ 0x44
10009992:	2300      	movs	r3, #0
10009994:	63fb      	str	r3, [r7, #60]	@ 0x3c
10009996:	f7ff bbd9 	b.w	1000914c <__ssvfscanf_r+0xbdc>
1000999a:	2c00      	cmp	r4, #0
1000999c:	f47f aeaa 	bne.w	100096f4 <__ssvfscanf_r+0x1184>
100099a0:	f7fe be57 	b.w	10008652 <__ssvfscanf_r+0xe2>
100099a4:	07e5      	lsls	r5, r4, #31
100099a6:	d43c      	bmi.n	10009a22 <__ssvfscanf_r+0x14b2>
100099a8:	07a4      	lsls	r4, r4, #30
100099aa:	d53a      	bpl.n	10009a22 <__ssvfscanf_r+0x14b2>
100099ac:	ea4f 72eb 	mov.w	r2, fp, asr #31
100099b0:	f8c3 b000 	str.w	fp, [r3]
100099b4:	605a      	str	r2, [r3, #4]
100099b6:	f7ff b8a0 	b.w	10008afa <__ssvfscanf_r+0x58a>
100099ba:	461e      	mov	r6, r3
100099bc:	f7ff bbdc 	b.w	10009178 <__ssvfscanf_r+0xc08>
100099c0:	f1b9 0f00 	cmp.w	r9, #0
100099c4:	f004 0310 	and.w	r3, r4, #16
100099c8:	bf08      	it	eq
100099ca:	f04f 39ff 	moveq.w	r9, #4294967295	@ 0xffffffff
100099ce:	f014 0601 	ands.w	r6, r4, #1
100099d2:	63fb      	str	r3, [r7, #60]	@ 0x3c
100099d4:	d070      	beq.n	10009ab8 <__ssvfscanf_r+0x1548>
100099d6:	2b00      	cmp	r3, #0
100099d8:	f040 80f7 	bne.w	10009bca <__ssvfscanf_r+0x165a>
100099dc:	6afb      	ldr	r3, [r7, #44]	@ 0x2c
100099de:	0621      	lsls	r1, r4, #24
100099e0:	f853 8b04 	ldr.w	r8, [r3], #4
100099e4:	62fb      	str	r3, [r7, #44]	@ 0x2c
100099e6:	f140 8119 	bpl.w	10009c1c <__ssvfscanf_r+0x16ac>
100099ea:	f1b8 0f00 	cmp.w	r8, #0
100099ee:	f43e aec0 	beq.w	10008772 <__ssvfscanf_r+0x202>
100099f2:	2080      	movs	r0, #128	@ 0x80
100099f4:	f7fb fb86 	bl	10005104 <__wrap_malloc>
100099f8:	4606      	mov	r6, r0
100099fa:	b168      	cbz	r0, 10009a18 <__ssvfscanf_r+0x14a8>
100099fc:	6b7b      	ldr	r3, [r7, #52]	@ 0x34
100099fe:	f8c8 0000 	str.w	r0, [r8]
10009a02:	88da      	ldrh	r2, [r3, #6]
10009a04:	889c      	ldrh	r4, [r3, #4]
10009a06:	42a2      	cmp	r2, r4
10009a08:	f0c0 8135 	bcc.w	10009c76 <__ssvfscanf_r+0x1706>
10009a0c:	f64f 73f6 	movw	r3, #65526	@ 0xfff6
10009a10:	64fa      	str	r2, [r7, #76]	@ 0x4c
10009a12:	429c      	cmp	r4, r3
10009a14:	f240 8139 	bls.w	10009c8a <__ssvfscanf_r+0x171a>
10009a18:	f04f 33ff 	mov.w	r3, #4294967295	@ 0xffffffff
10009a1c:	643b      	str	r3, [r7, #64]	@ 0x40
10009a1e:	f7fe bea8 	b.w	10008772 <__ssvfscanf_r+0x202>
10009a22:	f8c3 b000 	str.w	fp, [r3]
10009a26:	f7ff b868 	b.w	10008afa <__ssvfscanf_r+0x58a>
10009a2a:	6aba      	ldr	r2, [r7, #40]	@ 0x28
10009a2c:	4295      	cmp	r5, r2
10009a2e:	f67e aea0 	bls.w	10008772 <__ssvfscanf_r+0x202>
10009a32:	462c      	mov	r4, r5
10009a34:	6abe      	ldr	r6, [r7, #40]	@ 0x28
10009a36:	6cbd      	ldr	r5, [r7, #72]	@ 0x48
10009a38:	f814 1d01 	ldrb.w	r1, [r4, #-1]!
10009a3c:	4652      	mov	r2, sl
10009a3e:	4628      	mov	r0, r5
10009a40:	f7fe fcea 	bl	10008418 <_sungetc_r>
10009a44:	42b4      	cmp	r4, r6
10009a46:	d1f7      	bne.n	10009a38 <__ssvfscanf_r+0x14c8>
10009a48:	f7fe be93 	b.w	10008772 <__ssvfscanf_r+0x202>
10009a4c:	6cfe      	ldr	r6, [r7, #76]	@ 0x4c
10009a4e:	e430      	b.n	100092b2 <__ssvfscanf_r+0xd42>
10009a50:	6abe      	ldr	r6, [r7, #40]	@ 0x28
10009a52:	42b5      	cmp	r5, r6
10009a54:	f67e ae8d 	bls.w	10008772 <__ssvfscanf_r+0x202>
10009a58:	462c      	mov	r4, r5
10009a5a:	6cbd      	ldr	r5, [r7, #72]	@ 0x48
10009a5c:	f814 1d01 	ldrb.w	r1, [r4, #-1]!
10009a60:	4652      	mov	r2, sl
10009a62:	4628      	mov	r0, r5
10009a64:	f7fe fcd8 	bl	10008418 <_sungetc_r>
10009a68:	42b4      	cmp	r4, r6
10009a6a:	d1f7      	bne.n	10009a5c <__ssvfscanf_r+0x14ec>
10009a6c:	f7fe be81 	b.w	10008772 <__ssvfscanf_r+0x202>
10009a70:	6aba      	ldr	r2, [r7, #40]	@ 0x28
10009a72:	4295      	cmp	r5, r2
10009a74:	f67e ae7d 	bls.w	10008772 <__ssvfscanf_r+0x202>
10009a78:	462c      	mov	r4, r5
10009a7a:	6abd      	ldr	r5, [r7, #40]	@ 0x28
10009a7c:	f814 1d01 	ldrb.w	r1, [r4, #-1]!
10009a80:	4652      	mov	r2, sl
10009a82:	6cb8      	ldr	r0, [r7, #72]	@ 0x48
10009a84:	f7fe fcc8 	bl	10008418 <_sungetc_r>
10009a88:	42ac      	cmp	r4, r5
10009a8a:	d1f7      	bne.n	10009a7c <__ssvfscanf_r+0x150c>
10009a8c:	f7fe be71 	b.w	10008772 <__ssvfscanf_r+0x202>
10009a90:	6c3b      	ldr	r3, [r7, #64]	@ 0x40
10009a92:	2b00      	cmp	r3, #0
10009a94:	f43e ade5 	beq.w	10008662 <__ssvfscanf_r+0xf2>
10009a98:	f8ba 300c 	ldrh.w	r3, [sl, #12]
10009a9c:	065b      	lsls	r3, r3, #25
10009a9e:	f57e ae6b 	bpl.w	10008778 <__ssvfscanf_r+0x208>
10009aa2:	f7fe bdde 	b.w	10008662 <__ssvfscanf_r+0xf2>
10009aa6:	f001 fe4f 	bl	1000b748 <_strtoull_r>
10009aaa:	460b      	mov	r3, r1
10009aac:	e6b3      	b.n	10009816 <__ssvfscanf_r+0x12a6>
10009aae:	bf00      	nop
10009ab0:	10008415 	.word	0x10008415
10009ab4:	1000d1d8 	.word	0x1000d1d8
10009ab8:	6bfb      	ldr	r3, [r7, #60]	@ 0x3c
10009aba:	2b00      	cmp	r3, #0
10009abc:	f040 80b4 	bne.w	10009c28 <__ssvfscanf_r+0x16b8>
10009ac0:	6afb      	ldr	r3, [r7, #44]	@ 0x2c
10009ac2:	f014 0480 	ands.w	r4, r4, #128	@ 0x80
10009ac6:	f853 8b04 	ldr.w	r8, [r3], #4
10009aca:	62fb      	str	r3, [r7, #44]	@ 0x2c
10009acc:	f000 80c5 	beq.w	10009c5a <__ssvfscanf_r+0x16ea>
10009ad0:	f1b8 0f00 	cmp.w	r8, #0
10009ad4:	f43e ae4d 	beq.w	10008772 <__ssvfscanf_r+0x202>
10009ad8:	2020      	movs	r0, #32
10009ada:	f7fb fb13 	bl	10005104 <__wrap_malloc>
10009ade:	4606      	mov	r6, r0
10009ae0:	2800      	cmp	r0, #0
10009ae2:	f43e adba 	beq.w	1000865a <__ssvfscanf_r+0xea>
10009ae6:	6b7b      	ldr	r3, [r7, #52]	@ 0x34
10009ae8:	f8c8 0000 	str.w	r0, [r8]
10009aec:	88da      	ldrh	r2, [r3, #6]
10009aee:	889c      	ldrh	r4, [r3, #4]
10009af0:	42a2      	cmp	r2, r4
10009af2:	f0c0 817f 	bcc.w	10009df4 <__ssvfscanf_r+0x1884>
10009af6:	f64f 73f6 	movw	r3, #65526	@ 0xfff6
10009afa:	64fa      	str	r2, [r7, #76]	@ 0x4c
10009afc:	429c      	cmp	r4, r3
10009afe:	f63e adb0 	bhi.w	10008662 <__ssvfscanf_r+0xf2>
10009b02:	3408      	adds	r4, #8
10009b04:	6b7b      	ldr	r3, [r7, #52]	@ 0x34
10009b06:	00a1      	lsls	r1, r4, #2
10009b08:	6818      	ldr	r0, [r3, #0]
10009b0a:	f7fb fb17 	bl	1000513c <__wrap_realloc>
10009b0e:	2800      	cmp	r0, #0
10009b10:	f43e ada7 	beq.w	10008662 <__ssvfscanf_r+0xf2>
10009b14:	6b7b      	ldr	r3, [r7, #52]	@ 0x34
10009b16:	6cfa      	ldr	r2, [r7, #76]	@ 0x4c
10009b18:	809c      	strh	r4, [r3, #4]
10009b1a:	6018      	str	r0, [r3, #0]
10009b1c:	1c53      	adds	r3, r2, #1
10009b1e:	f840 8022 	str.w	r8, [r0, r2, lsl #2]
10009b22:	6b7a      	ldr	r2, [r7, #52]	@ 0x34
10009b24:	f04f 0c01 	mov.w	ip, #1
10009b28:	80d3      	strh	r3, [r2, #6]
10009b2a:	2320      	movs	r3, #32
10009b2c:	64fb      	str	r3, [r7, #76]	@ 0x4c
10009b2e:	f8da 0000 	ldr.w	r0, [sl]
10009b32:	7803      	ldrb	r3, [r0, #0]
10009b34:	5ceb      	ldrb	r3, [r5, r3]
10009b36:	071a      	lsls	r2, r3, #28
10009b38:	f100 8121 	bmi.w	10009d7e <__ssvfscanf_r+0x180e>
10009b3c:	f8c7 b044 	str.w	fp, [r7, #68]	@ 0x44
10009b40:	4631      	mov	r1, r6
10009b42:	46cb      	mov	fp, r9
10009b44:	4634      	mov	r4, r6
10009b46:	46c1      	mov	r9, r8
10009b48:	46e0      	mov	r8, ip
10009b4a:	f8da 2004 	ldr.w	r2, [sl, #4]
10009b4e:	460e      	mov	r6, r1
10009b50:	6cfb      	ldr	r3, [r7, #76]	@ 0x4c
10009b52:	3a01      	subs	r2, #1
10009b54:	f8ca 2004 	str.w	r2, [sl, #4]
10009b58:	1c42      	adds	r2, r0, #1
10009b5a:	f8ca 2000 	str.w	r2, [sl]
10009b5e:	7802      	ldrb	r2, [r0, #0]
10009b60:	f806 2b01 	strb.w	r2, [r6], #1
10009b64:	1b32      	subs	r2, r6, r4
10009b66:	429a      	cmp	r2, r3
10009b68:	63fa      	str	r2, [r7, #60]	@ 0x3c
10009b6a:	d304      	bcc.n	10009b76 <__ssvfscanf_r+0x1606>
10009b6c:	4620      	mov	r0, r4
10009b6e:	f1b8 0f00 	cmp.w	r8, #0
10009b72:	f040 8106 	bne.w	10009d82 <__ssvfscanf_r+0x1812>
10009b76:	f1bb 0b01 	subs.w	fp, fp, #1
10009b7a:	d00b      	beq.n	10009b94 <__ssvfscanf_r+0x1624>
10009b7c:	f8da 2004 	ldr.w	r2, [sl, #4]
10009b80:	2a00      	cmp	r2, #0
10009b82:	f340 810c 	ble.w	10009d9e <__ssvfscanf_r+0x182e>
10009b86:	f8da 0000 	ldr.w	r0, [sl]
10009b8a:	4631      	mov	r1, r6
10009b8c:	7802      	ldrb	r2, [r0, #0]
10009b8e:	5caa      	ldrb	r2, [r5, r2]
10009b90:	0713      	lsls	r3, r2, #28
10009b92:	d5da      	bpl.n	10009b4a <__ssvfscanf_r+0x15da>
10009b94:	1b33      	subs	r3, r6, r4
10009b96:	f8d7 b044 	ldr.w	fp, [r7, #68]	@ 0x44
10009b9a:	46c4      	mov	ip, r8
10009b9c:	46c8      	mov	r8, r9
10009b9e:	449b      	add	fp, r3
10009ba0:	1c59      	adds	r1, r3, #1
10009ba2:	2300      	movs	r3, #0
10009ba4:	7033      	strb	r3, [r6, #0]
10009ba6:	6cfb      	ldr	r3, [r7, #76]	@ 0x4c
10009ba8:	4299      	cmp	r1, r3
10009baa:	f4bf ace2 	bcs.w	10009572 <__ssvfscanf_r+0x1002>
10009bae:	f1bc 0f00 	cmp.w	ip, #0
10009bb2:	f43f acde 	beq.w	10009572 <__ssvfscanf_r+0x1002>
10009bb6:	f8d8 0000 	ldr.w	r0, [r8]
10009bba:	f7fb fabf 	bl	1000513c <__wrap_realloc>
10009bbe:	2800      	cmp	r0, #0
10009bc0:	f43f acd7 	beq.w	10009572 <__ssvfscanf_r+0x1002>
10009bc4:	f8c8 0000 	str.w	r0, [r8]
10009bc8:	e4d3      	b.n	10009572 <__ssvfscanf_r+0x1002>
10009bca:	f04f 0c00 	mov.w	ip, #0
10009bce:	f107 0654 	add.w	r6, r7, #84	@ 0x54
10009bd2:	46e6      	mov	lr, ip
10009bd4:	46e0      	mov	r8, ip
10009bd6:	f8da 3000 	ldr.w	r3, [sl]
10009bda:	781b      	ldrb	r3, [r3, #0]
10009bdc:	5ceb      	ldrb	r3, [r5, r3]
10009bde:	f013 0308 	ands.w	r3, r3, #8
10009be2:	d060      	beq.n	10009ca6 <__ssvfscanf_r+0x1736>
10009be4:	6bfb      	ldr	r3, [r7, #60]	@ 0x3c
10009be6:	2b00      	cmp	r3, #0
10009be8:	f47e af87 	bne.w	10008afa <__ssvfscanf_r+0x58a>
10009bec:	eba6 010e 	sub.w	r1, r6, lr
10009bf0:	6033      	str	r3, [r6, #0]
10009bf2:	108b      	asrs	r3, r1, #2
10009bf4:	3301      	adds	r3, #1
10009bf6:	459c      	cmp	ip, r3
10009bf8:	f67e af7c 	bls.w	10008af4 <__ssvfscanf_r+0x584>
10009bfc:	f1b8 0f00 	cmp.w	r8, #0
10009c00:	f43e af78 	beq.w	10008af4 <__ssvfscanf_r+0x584>
10009c04:	3104      	adds	r1, #4
10009c06:	f8d8 0000 	ldr.w	r0, [r8]
10009c0a:	f7fb fa97 	bl	1000513c <__wrap_realloc>
10009c0e:	2800      	cmp	r0, #0
10009c10:	f43e af70 	beq.w	10008af4 <__ssvfscanf_r+0x584>
10009c14:	f8c8 0000 	str.w	r0, [r8]
10009c18:	f7fe bf6c 	b.w	10008af4 <__ssvfscanf_r+0x584>
10009c1c:	4646      	mov	r6, r8
10009c1e:	f8d7 803c 	ldr.w	r8, [r7, #60]	@ 0x3c
10009c22:	46c4      	mov	ip, r8
10009c24:	46c6      	mov	lr, r8
10009c26:	e7d6      	b.n	10009bd6 <__ssvfscanf_r+0x1666>
10009c28:	f8da 3000 	ldr.w	r3, [sl]
10009c2c:	781a      	ldrb	r2, [r3, #0]
10009c2e:	5caa      	ldrb	r2, [r5, r2]
10009c30:	0710      	lsls	r0, r2, #28
10009c32:	f53e af62 	bmi.w	10008afa <__ssvfscanf_r+0x58a>
10009c36:	f8da 2004 	ldr.w	r2, [sl, #4]
10009c3a:	3601      	adds	r6, #1
10009c3c:	3301      	adds	r3, #1
10009c3e:	3a01      	subs	r2, #1
10009c40:	454e      	cmp	r6, r9
10009c42:	e9ca 3200 	strd	r3, r2, [sl]
10009c46:	d005      	beq.n	10009c54 <__ssvfscanf_r+0x16e4>
10009c48:	2a00      	cmp	r2, #0
10009c4a:	dd0b      	ble.n	10009c64 <__ssvfscanf_r+0x16f4>
10009c4c:	781a      	ldrb	r2, [r3, #0]
10009c4e:	5caa      	ldrb	r2, [r5, r2]
10009c50:	0711      	lsls	r1, r2, #28
10009c52:	d5f0      	bpl.n	10009c36 <__ssvfscanf_r+0x16c6>
10009c54:	44b3      	add	fp, r6
10009c56:	f7fe bf50 	b.w	10008afa <__ssvfscanf_r+0x58a>
10009c5a:	4646      	mov	r6, r8
10009c5c:	46a4      	mov	ip, r4
10009c5e:	46a0      	mov	r8, r4
10009c60:	64fc      	str	r4, [r7, #76]	@ 0x4c
10009c62:	e764      	b.n	10009b2e <__ssvfscanf_r+0x15be>
10009c64:	4651      	mov	r1, sl
10009c66:	6cb8      	ldr	r0, [r7, #72]	@ 0x48
10009c68:	f7fe fc14 	bl	10008494 <__ssrefill_r>
10009c6c:	2800      	cmp	r0, #0
10009c6e:	d1f1      	bne.n	10009c54 <__ssvfscanf_r+0x16e4>
10009c70:	f8da 3000 	ldr.w	r3, [sl]
10009c74:	e7ea      	b.n	10009c4c <__ssvfscanf_r+0x16dc>
10009c76:	6818      	ldr	r0, [r3, #0]
10009c78:	1c53      	adds	r3, r2, #1
10009c7a:	f840 8022 	str.w	r8, [r0, r2, lsl #2]
10009c7e:	6b7a      	ldr	r2, [r7, #52]	@ 0x34
10009c80:	46b6      	mov	lr, r6
10009c82:	f04f 0c20 	mov.w	ip, #32
10009c86:	80d3      	strh	r3, [r2, #6]
10009c88:	e7a5      	b.n	10009bd6 <__ssvfscanf_r+0x1666>
10009c8a:	3408      	adds	r4, #8
10009c8c:	6b7b      	ldr	r3, [r7, #52]	@ 0x34
10009c8e:	00a1      	lsls	r1, r4, #2
10009c90:	6818      	ldr	r0, [r3, #0]
10009c92:	f7fb fa53 	bl	1000513c <__wrap_realloc>
10009c96:	2800      	cmp	r0, #0
10009c98:	f43f aebe 	beq.w	10009a18 <__ssvfscanf_r+0x14a8>
10009c9c:	6b7b      	ldr	r3, [r7, #52]	@ 0x34
10009c9e:	6cfa      	ldr	r2, [r7, #76]	@ 0x4c
10009ca0:	809c      	strh	r4, [r3, #4]
10009ca2:	6018      	str	r0, [r3, #0]
10009ca4:	e7e8      	b.n	10009c78 <__ssvfscanf_r+0x1708>
10009ca6:	461c      	mov	r4, r3
10009ca8:	f1b8 0300 	subs.w	r3, r8, #0
10009cac:	f8c7 9028 	str.w	r9, [r7, #40]	@ 0x28
10009cb0:	46e1      	mov	r9, ip
10009cb2:	bf18      	it	ne
10009cb4:	2301      	movne	r3, #1
10009cb6:	f8c7 8044 	str.w	r8, [r7, #68]	@ 0x44
10009cba:	46a0      	mov	r8, r4
10009cbc:	4674      	mov	r4, lr
10009cbe:	61fb      	str	r3, [r7, #28]
10009cc0:	f000 f9c0 	bl	1000a044 <__locale_mb_cur_max>
10009cc4:	4580      	cmp	r8, r0
10009cc6:	f43e acc4 	beq.w	10008652 <__ssvfscanf_r+0xe2>
10009cca:	e9da 3200 	ldrd	r3, r2, [sl]
10009cce:	f813 1b01 	ldrb.w	r1, [r3], #1
10009cd2:	3a01      	subs	r2, #1
10009cd4:	f8ca 3000 	str.w	r3, [sl]
10009cd8:	f108 0301 	add.w	r3, r8, #1
10009cdc:	f8ca 2004 	str.w	r2, [sl, #4]
10009ce0:	f507 72b8 	add.w	r2, r7, #368	@ 0x170
10009ce4:	64fb      	str	r3, [r7, #76]	@ 0x4c
10009ce6:	6a3b      	ldr	r3, [r7, #32]
10009ce8:	f802 1008 	strb.w	r1, [r2, r8]
10009cec:	f107 0868 	add.w	r8, r7, #104	@ 0x68
10009cf0:	2b03      	cmp	r3, #3
10009cf2:	d103      	bne.n	10009cfc <__ssvfscanf_r+0x178c>
10009cf4:	f8d8 3000 	ldr.w	r3, [r8]
10009cf8:	2b04      	cmp	r3, #4
10009cfa:	d004      	beq.n	10009d06 <__ssvfscanf_r+0x1796>
10009cfc:	2208      	movs	r2, #8
10009cfe:	2100      	movs	r1, #0
10009d00:	4640      	mov	r0, r8
10009d02:	f7fd ffa9 	bl	10007c58 <memset>
10009d06:	f8cd 8000 	str.w	r8, [sp]
10009d0a:	f507 72b8 	add.w	r2, r7, #368	@ 0x170
10009d0e:	6cfb      	ldr	r3, [r7, #76]	@ 0x4c
10009d10:	4631      	mov	r1, r6
10009d12:	6cb8      	ldr	r0, [r7, #72]	@ 0x48
10009d14:	f001 fd1a 	bl	1000b74c <_mbrtowc_r>
10009d18:	1c42      	adds	r2, r0, #1
10009d1a:	6238      	str	r0, [r7, #32]
10009d1c:	f43e ac99 	beq.w	10008652 <__ssvfscanf_r+0xe2>
10009d20:	2800      	cmp	r0, #0
10009d22:	d144      	bne.n	10009dae <__ssvfscanf_r+0x183e>
10009d24:	6030      	str	r0, [r6, #0]
10009d26:	f001 fd3b 	bl	1000b7a0 <iswspace>
10009d2a:	2800      	cmp	r0, #0
10009d2c:	d164      	bne.n	10009df8 <__ssvfscanf_r+0x1888>
10009d2e:	6cfb      	ldr	r3, [r7, #76]	@ 0x4c
10009d30:	449b      	add	fp, r3
10009d32:	6abb      	ldr	r3, [r7, #40]	@ 0x28
10009d34:	3b01      	subs	r3, #1
10009d36:	62bb      	str	r3, [r7, #40]	@ 0x28
10009d38:	6bfb      	ldr	r3, [r7, #60]	@ 0x3c
10009d3a:	b943      	cbnz	r3, 10009d4e <__ssvfscanf_r+0x17de>
10009d3c:	3604      	adds	r6, #4
10009d3e:	eba6 0804 	sub.w	r8, r6, r4
10009d42:	ebb9 0fa8 	cmp.w	r9, r8, asr #2
10009d46:	d802      	bhi.n	10009d4e <__ssvfscanf_r+0x17de>
10009d48:	69fa      	ldr	r2, [r7, #28]
10009d4a:	2a00      	cmp	r2, #0
10009d4c:	d16d      	bne.n	10009e2a <__ssvfscanf_r+0x18ba>
10009d4e:	f04f 0800 	mov.w	r8, #0
10009d52:	f8da 3004 	ldr.w	r3, [sl, #4]
10009d56:	2b00      	cmp	r3, #0
10009d58:	dd3d      	ble.n	10009dd6 <__ssvfscanf_r+0x1866>
10009d5a:	f8da 3000 	ldr.w	r3, [sl]
10009d5e:	781b      	ldrb	r3, [r3, #0]
10009d60:	5ceb      	ldrb	r3, [r5, r3]
10009d62:	f3c3 03c0 	ubfx	r3, r3, #3, #1
10009d66:	f083 0301 	eor.w	r3, r3, #1
10009d6a:	07db      	lsls	r3, r3, #31
10009d6c:	d502      	bpl.n	10009d74 <__ssvfscanf_r+0x1804>
10009d6e:	6abb      	ldr	r3, [r7, #40]	@ 0x28
10009d70:	2b00      	cmp	r3, #0
10009d72:	d1a5      	bne.n	10009cc0 <__ssvfscanf_r+0x1750>
10009d74:	f8d7 8044 	ldr.w	r8, [r7, #68]	@ 0x44
10009d78:	46a6      	mov	lr, r4
10009d7a:	46cc      	mov	ip, r9
10009d7c:	e732      	b.n	10009be4 <__ssvfscanf_r+0x1674>
10009d7e:	2101      	movs	r1, #1
10009d80:	e70f      	b.n	10009ba2 <__ssvfscanf_r+0x1632>
10009d82:	005b      	lsls	r3, r3, #1
10009d84:	4619      	mov	r1, r3
10009d86:	64fb      	str	r3, [r7, #76]	@ 0x4c
10009d88:	f7fb f9d8 	bl	1000513c <__wrap_realloc>
10009d8c:	4604      	mov	r4, r0
10009d8e:	2800      	cmp	r0, #0
10009d90:	f43e ac63 	beq.w	1000865a <__ssvfscanf_r+0xea>
10009d94:	6bfa      	ldr	r2, [r7, #60]	@ 0x3c
10009d96:	f8c9 0000 	str.w	r0, [r9]
10009d9a:	1886      	adds	r6, r0, r2
10009d9c:	e6eb      	b.n	10009b76 <__ssvfscanf_r+0x1606>
10009d9e:	4651      	mov	r1, sl
10009da0:	6cb8      	ldr	r0, [r7, #72]	@ 0x48
10009da2:	f7fe fb77 	bl	10008494 <__ssrefill_r>
10009da6:	2800      	cmp	r0, #0
10009da8:	f43f aeed 	beq.w	10009b86 <__ssvfscanf_r+0x1616>
10009dac:	e6f2      	b.n	10009b94 <__ssvfscanf_r+0x1624>
10009dae:	6a3b      	ldr	r3, [r7, #32]
10009db0:	3302      	adds	r3, #2
10009db2:	d00d      	beq.n	10009dd0 <__ssvfscanf_r+0x1860>
10009db4:	6830      	ldr	r0, [r6, #0]
10009db6:	f001 fcf3 	bl	1000b7a0 <iswspace>
10009dba:	b9e8      	cbnz	r0, 10009df8 <__ssvfscanf_r+0x1888>
10009dbc:	6cfb      	ldr	r3, [r7, #76]	@ 0x4c
10009dbe:	449b      	add	fp, r3
10009dc0:	6a3b      	ldr	r3, [r7, #32]
10009dc2:	2b03      	cmp	r3, #3
10009dc4:	d1b5      	bne.n	10009d32 <__ssvfscanf_r+0x17c2>
10009dc6:	f8d8 3000 	ldr.w	r3, [r8]
10009dca:	2b04      	cmp	r3, #4
10009dcc:	d1b1      	bne.n	10009d32 <__ssvfscanf_r+0x17c2>
10009dce:	e7b3      	b.n	10009d38 <__ssvfscanf_r+0x17c8>
10009dd0:	f8d7 804c 	ldr.w	r8, [r7, #76]	@ 0x4c
10009dd4:	e7bd      	b.n	10009d52 <__ssvfscanf_r+0x17e2>
10009dd6:	4651      	mov	r1, sl
10009dd8:	6cb8      	ldr	r0, [r7, #72]	@ 0x48
10009dda:	f7fe fb5b 	bl	10008494 <__ssrefill_r>
10009dde:	2800      	cmp	r0, #0
10009de0:	d0bb      	beq.n	10009d5a <__ssvfscanf_r+0x17ea>
10009de2:	46a6      	mov	lr, r4
10009de4:	4644      	mov	r4, r8
10009de6:	46cc      	mov	ip, r9
10009de8:	f8d7 8044 	ldr.w	r8, [r7, #68]	@ 0x44
10009dec:	2c00      	cmp	r4, #0
10009dee:	f47e ac30 	bne.w	10008652 <__ssvfscanf_r+0xe2>
10009df2:	e6f7      	b.n	10009be4 <__ssvfscanf_r+0x1674>
10009df4:	6818      	ldr	r0, [r3, #0]
10009df6:	e691      	b.n	10009b1c <__ssvfscanf_r+0x15ac>
10009df8:	46a6      	mov	lr, r4
10009dfa:	46cc      	mov	ip, r9
10009dfc:	f507 73b8 	add.w	r3, r7, #368	@ 0x170
10009e00:	6cfa      	ldr	r2, [r7, #76]	@ 0x4c
10009e02:	f8d7 8044 	ldr.w	r8, [r7, #68]	@ 0x44
10009e06:	46f1      	mov	r9, lr
10009e08:	189c      	adds	r4, r3, r2
10009e0a:	4665      	mov	r5, ip
10009e0c:	6cfb      	ldr	r3, [r7, #76]	@ 0x4c
10009e0e:	4652      	mov	r2, sl
10009e10:	f814 1d01 	ldrb.w	r1, [r4, #-1]!
10009e14:	3b01      	subs	r3, #1
10009e16:	6cb8      	ldr	r0, [r7, #72]	@ 0x48
10009e18:	64fb      	str	r3, [r7, #76]	@ 0x4c
10009e1a:	f7fe fafd 	bl	10008418 <_sungetc_r>
10009e1e:	6cfb      	ldr	r3, [r7, #76]	@ 0x4c
10009e20:	2b00      	cmp	r3, #0
10009e22:	d1f3      	bne.n	10009e0c <__ssvfscanf_r+0x189c>
10009e24:	46ce      	mov	lr, r9
10009e26:	46ac      	mov	ip, r5
10009e28:	e6dc      	b.n	10009be4 <__ssvfscanf_r+0x1674>
10009e2a:	4620      	mov	r0, r4
10009e2c:	ea4f 01c9 	mov.w	r1, r9, lsl #3
10009e30:	f7fb f984 	bl	1000513c <__wrap_realloc>
10009e34:	4604      	mov	r4, r0
10009e36:	2800      	cmp	r0, #0
10009e38:	f43f adee 	beq.w	10009a18 <__ssvfscanf_r+0x14a8>
10009e3c:	6c7a      	ldr	r2, [r7, #68]	@ 0x44
10009e3e:	eb00 0608 	add.w	r6, r0, r8
10009e42:	ea4f 0949 	mov.w	r9, r9, lsl #1
10009e46:	f8d7 803c 	ldr.w	r8, [r7, #60]	@ 0x3c
10009e4a:	6010      	str	r0, [r2, #0]
10009e4c:	e781      	b.n	10009d52 <__ssvfscanf_r+0x17e2>
10009e4e:	bf00      	nop

10009e50 <__sccl>:
10009e50:	b570      	push	{r4, r5, r6, lr}
10009e52:	780c      	ldrb	r4, [r1, #0]
10009e54:	4684      	mov	ip, r0
10009e56:	2c5e      	cmp	r4, #94	@ 0x5e
10009e58:	d024      	beq.n	10009ea4 <__sccl+0x54>
10009e5a:	2300      	movs	r3, #0
10009e5c:	1c48      	adds	r0, r1, #1
10009e5e:	469e      	mov	lr, r3
10009e60:	2200      	movs	r2, #0
10009e62:	f50c 7180 	add.w	r1, ip, #256	@ 0x100
10009e66:	f363 0207 	bfi	r2, r3, #0, #8
10009e6a:	f363 220f 	bfi	r2, r3, #8, #8
10009e6e:	f363 4217 	bfi	r2, r3, #16, #8
10009e72:	f363 621f 	bfi	r2, r3, #24, #8
10009e76:	4663      	mov	r3, ip
10009e78:	f843 2b04 	str.w	r2, [r3], #4
10009e7c:	428b      	cmp	r3, r1
10009e7e:	d1fb      	bne.n	10009e78 <__sccl+0x28>
10009e80:	b174      	cbz	r4, 10009ea0 <__sccl+0x50>
10009e82:	f08e 0101 	eor.w	r1, lr, #1
10009e86:	1c45      	adds	r5, r0, #1
10009e88:	f80c 1004 	strb.w	r1, [ip, r4]
10009e8c:	f815 3c01 	ldrb.w	r3, [r5, #-1]
10009e90:	2b2d      	cmp	r3, #45	@ 0x2d
10009e92:	d00e      	beq.n	10009eb2 <__sccl+0x62>
10009e94:	2b5d      	cmp	r3, #93	@ 0x5d
10009e96:	d00a      	beq.n	10009eae <__sccl+0x5e>
10009e98:	b11b      	cbz	r3, 10009ea2 <__sccl+0x52>
10009e9a:	461c      	mov	r4, r3
10009e9c:	4628      	mov	r0, r5
10009e9e:	e7f2      	b.n	10009e86 <__sccl+0x36>
10009ea0:	3801      	subs	r0, #1
10009ea2:	bd70      	pop	{r4, r5, r6, pc}
10009ea4:	2301      	movs	r3, #1
10009ea6:	1c88      	adds	r0, r1, #2
10009ea8:	784c      	ldrb	r4, [r1, #1]
10009eaa:	469e      	mov	lr, r3
10009eac:	e7d8      	b.n	10009e60 <__sccl+0x10>
10009eae:	4628      	mov	r0, r5
10009eb0:	bd70      	pop	{r4, r5, r6, pc}
10009eb2:	f890 e001 	ldrb.w	lr, [r0, #1]
10009eb6:	f1be 0f5d 	cmp.w	lr, #93	@ 0x5d
10009eba:	d015      	beq.n	10009ee8 <__sccl+0x98>
10009ebc:	4574      	cmp	r4, lr
10009ebe:	dc13      	bgt.n	10009ee8 <__sccl+0x98>
10009ec0:	1c66      	adds	r6, r4, #1
10009ec2:	3002      	adds	r0, #2
10009ec4:	eb0c 0206 	add.w	r2, ip, r6
10009ec8:	f802 1b01 	strb.w	r1, [r2], #1
10009ecc:	eba2 030c 	sub.w	r3, r2, ip
10009ed0:	3b01      	subs	r3, #1
10009ed2:	459e      	cmp	lr, r3
10009ed4:	dcf8      	bgt.n	10009ec8 <__sccl+0x78>
10009ed6:	ebae 0304 	sub.w	r3, lr, r4
10009eda:	3502      	adds	r5, #2
10009edc:	3b01      	subs	r3, #1
10009ede:	4574      	cmp	r4, lr
10009ee0:	bfa8      	it	ge
10009ee2:	2300      	movge	r3, #0
10009ee4:	199c      	adds	r4, r3, r6
10009ee6:	e7d1      	b.n	10009e8c <__sccl+0x3c>
10009ee8:	242d      	movs	r4, #45	@ 0x2d
10009eea:	4628      	mov	r0, r5
10009eec:	e7cb      	b.n	10009e86 <__sccl+0x36>
10009eee:	bf00      	nop

10009ef0 <__submore>:
10009ef0:	e92d 41f0 	stmdb	sp!, {r4, r5, r6, r7, r8, lr}
10009ef4:	460c      	mov	r4, r1
10009ef6:	6b09      	ldr	r1, [r1, #48]	@ 0x30
10009ef8:	f104 0340 	add.w	r3, r4, #64	@ 0x40
10009efc:	4299      	cmp	r1, r3
10009efe:	d014      	beq.n	10009f2a <__submore+0x3a>
10009f00:	6b66      	ldr	r6, [r4, #52]	@ 0x34
10009f02:	0077      	lsls	r7, r6, #1
10009f04:	463a      	mov	r2, r7
10009f06:	f7fd fc41 	bl	1000778c <_realloc_r>
10009f0a:	4605      	mov	r5, r0
10009f0c:	b330      	cbz	r0, 10009f5c <__submore+0x6c>
10009f0e:	eb00 0806 	add.w	r8, r0, r6
10009f12:	4601      	mov	r1, r0
10009f14:	4632      	mov	r2, r6
10009f16:	4640      	mov	r0, r8
10009f18:	f7fd fff4 	bl	10007f04 <memcpy>
10009f1c:	f8c4 8000 	str.w	r8, [r4]
10009f20:	e9c4 570c 	strd	r5, r7, [r4, #48]	@ 0x30
10009f24:	2000      	movs	r0, #0
10009f26:	e8bd 81f0 	ldmia.w	sp!, {r4, r5, r6, r7, r8, pc}
10009f2a:	f44f 6180 	mov.w	r1, #1024	@ 0x400
10009f2e:	f7fd f93d 	bl	100071ac <_malloc_r>
10009f32:	b198      	cbz	r0, 10009f5c <__submore+0x6c>
10009f34:	f894 2042 	ldrb.w	r2, [r4, #66]	@ 0x42
10009f38:	f44f 6180 	mov.w	r1, #1024	@ 0x400
10009f3c:	6320      	str	r0, [r4, #48]	@ 0x30
10009f3e:	f200 33fd 	addw	r3, r0, #1021	@ 0x3fd
10009f42:	6361      	str	r1, [r4, #52]	@ 0x34
10009f44:	f880 23ff 	strb.w	r2, [r0, #1023]	@ 0x3ff
10009f48:	f894 2041 	ldrb.w	r2, [r4, #65]	@ 0x41
10009f4c:	f880 23fe 	strb.w	r2, [r0, #1022]	@ 0x3fe
10009f50:	f894 2040 	ldrb.w	r2, [r4, #64]	@ 0x40
10009f54:	f880 23fd 	strb.w	r2, [r0, #1021]	@ 0x3fd
10009f58:	6023      	str	r3, [r4, #0]
10009f5a:	e7e3      	b.n	10009f24 <__submore+0x34>
10009f5c:	f04f 30ff 	mov.w	r0, #4294967295	@ 0xffffffff
10009f60:	e7e1      	b.n	10009f26 <__submore+0x36>
10009f62:	bf00      	nop

10009f64 <strncmp>:
10009f64:	b382      	cbz	r2, 10009fc8 <strncmp+0x64>
10009f66:	460b      	mov	r3, r1
10009f68:	b530      	push	{r4, r5, lr}
10009f6a:	ea40 0401 	orr.w	r4, r0, r1
10009f6e:	4686      	mov	lr, r0
10009f70:	07a4      	lsls	r4, r4, #30
10009f72:	d117      	bne.n	10009fa4 <strncmp+0x40>
10009f74:	2a03      	cmp	r2, #3
10009f76:	d807      	bhi.n	10009f88 <strncmp+0x24>
10009f78:	e014      	b.n	10009fa4 <strncmp+0x40>
10009f7a:	3a04      	subs	r2, #4
10009f7c:	d022      	beq.n	10009fc4 <strncmp+0x60>
10009f7e:	f01c 3f80 	tst.w	ip, #2155905152	@ 0x80808080
10009f82:	d11f      	bne.n	10009fc4 <strncmp+0x60>
10009f84:	2a03      	cmp	r2, #3
10009f86:	d923      	bls.n	10009fd0 <strncmp+0x6c>
10009f88:	f8de 4000 	ldr.w	r4, [lr]
10009f8c:	4619      	mov	r1, r3
10009f8e:	f853 5b04 	ldr.w	r5, [r3], #4
10009f92:	4670      	mov	r0, lr
10009f94:	f1a4 3c01 	sub.w	ip, r4, #16843009	@ 0x1010101
10009f98:	f10e 0e04 	add.w	lr, lr, #4
10009f9c:	42ac      	cmp	r4, r5
10009f9e:	ea2c 0c04 	bic.w	ip, ip, r4
10009fa2:	d0ea      	beq.n	10009f7a <strncmp+0x16>
10009fa4:	7803      	ldrb	r3, [r0, #0]
10009fa6:	3a01      	subs	r2, #1
10009fa8:	780c      	ldrb	r4, [r1, #0]
10009faa:	42a3      	cmp	r3, r4
10009fac:	d10e      	bne.n	10009fcc <strncmp+0x68>
10009fae:	4402      	add	r2, r0
10009fb0:	e006      	b.n	10009fc0 <strncmp+0x5c>
10009fb2:	b13b      	cbz	r3, 10009fc4 <strncmp+0x60>
10009fb4:	f810 3f01 	ldrb.w	r3, [r0, #1]!
10009fb8:	f811 4f01 	ldrb.w	r4, [r1, #1]!
10009fbc:	42a3      	cmp	r3, r4
10009fbe:	d105      	bne.n	10009fcc <strncmp+0x68>
10009fc0:	4290      	cmp	r0, r2
10009fc2:	d1f6      	bne.n	10009fb2 <strncmp+0x4e>
10009fc4:	2000      	movs	r0, #0
10009fc6:	bd30      	pop	{r4, r5, pc}
10009fc8:	4610      	mov	r0, r2
10009fca:	4770      	bx	lr
10009fcc:	1b18      	subs	r0, r3, r4
10009fce:	bd30      	pop	{r4, r5, pc}
10009fd0:	4670      	mov	r0, lr
10009fd2:	4619      	mov	r1, r3
10009fd4:	e7e6      	b.n	10009fa4 <strncmp+0x40>
10009fd6:	bf00      	nop

10009fd8 <stpncpy>:
10009fd8:	ea40 0301 	orr.w	r3, r0, r1
10009fdc:	079b      	lsls	r3, r3, #30
10009fde:	b430      	push	{r4, r5}
10009fe0:	4604      	mov	r4, r0
10009fe2:	d101      	bne.n	10009fe8 <stpncpy+0x10>
10009fe4:	2a03      	cmp	r2, #3
10009fe6:	d81b      	bhi.n	1000a020 <stpncpy+0x48>
10009fe8:	3901      	subs	r1, #1
10009fea:	e007      	b.n	10009ffc <stpncpy+0x24>
10009fec:	f811 3f01 	ldrb.w	r3, [r1, #1]!
10009ff0:	1e55      	subs	r5, r2, #1
10009ff2:	f800 3b01 	strb.w	r3, [r0], #1
10009ff6:	b13b      	cbz	r3, 1000a008 <stpncpy+0x30>
10009ff8:	462a      	mov	r2, r5
10009ffa:	4604      	mov	r4, r0
10009ffc:	4620      	mov	r0, r4
10009ffe:	2a00      	cmp	r2, #0
1000a000:	d1f4      	bne.n	10009fec <stpncpy+0x14>
1000a002:	4620      	mov	r0, r4
1000a004:	bc30      	pop	{r4, r5}
1000a006:	4770      	bx	lr
1000a008:	b135      	cbz	r5, 1000a018 <stpncpy+0x40>
1000a00a:	4422      	add	r2, r4
1000a00c:	4601      	mov	r1, r0
1000a00e:	f801 3b01 	strb.w	r3, [r1], #1
1000a012:	4291      	cmp	r1, r2
1000a014:	d1fb      	bne.n	1000a00e <stpncpy+0x36>
1000a016:	4428      	add	r0, r5
1000a018:	2c00      	cmp	r4, #0
1000a01a:	d1f2      	bne.n	1000a002 <stpncpy+0x2a>
1000a01c:	bc30      	pop	{r4, r5}
1000a01e:	4770      	bx	lr
1000a020:	460d      	mov	r5, r1
1000a022:	6828      	ldr	r0, [r5, #0]
1000a024:	4629      	mov	r1, r5
1000a026:	3504      	adds	r5, #4
1000a028:	f1a0 3301 	sub.w	r3, r0, #16843009	@ 0x1010101
1000a02c:	ea23 0300 	bic.w	r3, r3, r0
1000a030:	f013 3f80 	tst.w	r3, #2155905152	@ 0x80808080
1000a034:	d1d8      	bne.n	10009fe8 <stpncpy+0x10>
1000a036:	3a04      	subs	r2, #4
1000a038:	f844 0b04 	str.w	r0, [r4], #4
1000a03c:	2a03      	cmp	r2, #3
1000a03e:	d8f0      	bhi.n	1000a022 <stpncpy+0x4a>
1000a040:	4629      	mov	r1, r5
1000a042:	e7d1      	b.n	10009fe8 <stpncpy+0x10>

1000a044 <__locale_mb_cur_max>:
1000a044:	4b01      	ldr	r3, [pc, #4]	@ (1000a04c <__locale_mb_cur_max+0x8>)
1000a046:	f893 0128 	ldrb.w	r0, [r3, #296]	@ 0x128
1000a04a:	4770      	bx	lr
1000a04c:	20000bb8 	.word	0x20000bb8

1000a050 <_localeconv_r>:
1000a050:	4800      	ldr	r0, [pc, #0]	@ (1000a054 <_localeconv_r+0x4>)
1000a052:	4770      	bx	lr
1000a054:	20000ca8 	.word	0x20000ca8

1000a058 <nanf>:
1000a058:	4800      	ldr	r0, [pc, #0]	@ (1000a05c <nanf+0x4>)
1000a05a:	4770      	bx	lr
1000a05c:	7fc00000 	.word	0x7fc00000

1000a060 <__ascii_mbtowc>:
1000a060:	b082      	sub	sp, #8
1000a062:	b149      	cbz	r1, 1000a078 <__ascii_mbtowc+0x18>
1000a064:	b15a      	cbz	r2, 1000a07e <__ascii_mbtowc+0x1e>
1000a066:	b16b      	cbz	r3, 1000a084 <__ascii_mbtowc+0x24>
1000a068:	7813      	ldrb	r3, [r2, #0]
1000a06a:	600b      	str	r3, [r1, #0]
1000a06c:	7812      	ldrb	r2, [r2, #0]
1000a06e:	1e10      	subs	r0, r2, #0
1000a070:	bf18      	it	ne
1000a072:	2001      	movne	r0, #1
1000a074:	b002      	add	sp, #8
1000a076:	4770      	bx	lr
1000a078:	a901      	add	r1, sp, #4
1000a07a:	2a00      	cmp	r2, #0
1000a07c:	d1f3      	bne.n	1000a066 <__ascii_mbtowc+0x6>
1000a07e:	4610      	mov	r0, r2
1000a080:	b002      	add	sp, #8
1000a082:	4770      	bx	lr
1000a084:	f06f 0001 	mvn.w	r0, #1
1000a088:	e7f4      	b.n	1000a074 <__ascii_mbtowc+0x14>
1000a08a:	bf00      	nop
1000a08c:	0000      	movs	r0, r0
	...

1000a090 <_strtod_l>:
1000a090:	e92d 4ff0 	stmdb	sp!, {r4, r5, r6, r7, r8, r9, sl, fp, lr}
1000a094:	460e      	mov	r6, r1
1000a096:	b0a1      	sub	sp, #132	@ 0x84
1000a098:	2100      	movs	r1, #0
1000a09a:	4683      	mov	fp, r0
1000a09c:	9207      	str	r2, [sp, #28]
1000a09e:	2200      	movs	r2, #0
1000a0a0:	911c      	str	r1, [sp, #112]	@ 0x70
1000a0a2:	2100      	movs	r1, #0
1000a0a4:	e9cd 1204 	strd	r1, r2, [sp, #16]
1000a0a8:	4632      	mov	r2, r6
1000a0aa:	4690      	mov	r8, r2
1000a0ac:	921b      	str	r2, [sp, #108]	@ 0x6c
1000a0ae:	f812 ab01 	ldrb.w	sl, [r2], #1
1000a0b2:	f1ba 0f2d 	cmp.w	sl, #45	@ 0x2d
1000a0b6:	d85f      	bhi.n	1000a178 <_strtod_l+0xe8>
1000a0b8:	a101      	add	r1, pc, #4	@ (adr r1, 1000a0c0 <_strtod_l+0x30>)
1000a0ba:	f851 f02a 	ldr.w	pc, [r1, sl, lsl #2]
1000a0be:	bf00      	nop
1000a0c0:	1000a203 	.word	0x1000a203
1000a0c4:	1000a179 	.word	0x1000a179
1000a0c8:	1000a179 	.word	0x1000a179
1000a0cc:	1000a179 	.word	0x1000a179
1000a0d0:	1000a179 	.word	0x1000a179
1000a0d4:	1000a179 	.word	0x1000a179
1000a0d8:	1000a179 	.word	0x1000a179
1000a0dc:	1000a179 	.word	0x1000a179
1000a0e0:	1000a179 	.word	0x1000a179
1000a0e4:	1000a0ab 	.word	0x1000a0ab
1000a0e8:	1000a0ab 	.word	0x1000a0ab
1000a0ec:	1000a0ab 	.word	0x1000a0ab
1000a0f0:	1000a0ab 	.word	0x1000a0ab
1000a0f4:	1000a0ab 	.word	0x1000a0ab
1000a0f8:	1000a179 	.word	0x1000a179
1000a0fc:	1000a179 	.word	0x1000a179
1000a100:	1000a179 	.word	0x1000a179
1000a104:	1000a179 	.word	0x1000a179
1000a108:	1000a179 	.word	0x1000a179
1000a10c:	1000a179 	.word	0x1000a179
1000a110:	1000a179 	.word	0x1000a179
1000a114:	1000a179 	.word	0x1000a179
1000a118:	1000a179 	.word	0x1000a179
1000a11c:	1000a179 	.word	0x1000a179
1000a120:	1000a179 	.word	0x1000a179
1000a124:	1000a179 	.word	0x1000a179
1000a128:	1000a179 	.word	0x1000a179
1000a12c:	1000a179 	.word	0x1000a179
1000a130:	1000a179 	.word	0x1000a179
1000a134:	1000a179 	.word	0x1000a179
1000a138:	1000a179 	.word	0x1000a179
1000a13c:	1000a179 	.word	0x1000a179
1000a140:	1000a0ab 	.word	0x1000a0ab
1000a144:	1000a179 	.word	0x1000a179
1000a148:	1000a179 	.word	0x1000a179
1000a14c:	1000a179 	.word	0x1000a179
1000a150:	1000a179 	.word	0x1000a179
1000a154:	1000a179 	.word	0x1000a179
1000a158:	1000a179 	.word	0x1000a179
1000a15c:	1000a179 	.word	0x1000a179
1000a160:	1000a179 	.word	0x1000a179
1000a164:	1000a179 	.word	0x1000a179
1000a168:	1000a179 	.word	0x1000a179
1000a16c:	1000a523 	.word	0x1000a523
1000a170:	1000a179 	.word	0x1000a179
1000a174:	1000a53d 	.word	0x1000a53d
1000a178:	2200      	movs	r2, #0
1000a17a:	9208      	str	r2, [sp, #32]
1000a17c:	f1ba 0f30 	cmp.w	sl, #48	@ 0x30
1000a180:	f000 80a4 	beq.w	1000a2cc <_strtod_l+0x23c>
1000a184:	2300      	movs	r3, #0
1000a186:	9309      	str	r3, [sp, #36]	@ 0x24
1000a188:	f1aa 0330 	sub.w	r3, sl, #48	@ 0x30
1000a18c:	2b09      	cmp	r3, #9
1000a18e:	f200 83f7 	bhi.w	1000a980 <_strtod_l+0x8f0>
1000a192:	2700      	movs	r7, #0
1000a194:	4640      	mov	r0, r8
1000a196:	463d      	mov	r5, r7
1000a198:	463c      	mov	r4, r7
1000a19a:	3001      	adds	r0, #1
1000a19c:	2c08      	cmp	r4, #8
1000a19e:	eb07 0287 	add.w	r2, r7, r7, lsl #2
1000a1a2:	f104 0401 	add.w	r4, r4, #1
1000a1a6:	eb05 0185 	add.w	r1, r5, r5, lsl #2
1000a1aa:	901b      	str	r0, [sp, #108]	@ 0x6c
1000a1ac:	f890 a000 	ldrb.w	sl, [r0]
1000a1b0:	bfcc      	ite	gt
1000a1b2:	eb03 0742 	addgt.w	r7, r3, r2, lsl #1
1000a1b6:	eb03 0541 	addle.w	r5, r3, r1, lsl #1
1000a1ba:	f1aa 0330 	sub.w	r3, sl, #48	@ 0x30
1000a1be:	2b09      	cmp	r3, #9
1000a1c0:	d9eb      	bls.n	1000a19a <_strtod_l+0x10a>
1000a1c2:	2201      	movs	r2, #1
1000a1c4:	49a7      	ldr	r1, [pc, #668]	@ (1000a464 <_strtod_l+0x3d4>)
1000a1c6:	f7ff fecd 	bl	10009f64 <strncmp>
1000a1ca:	4681      	mov	r9, r0
1000a1cc:	bb28      	cbnz	r0, 1000a21a <_strtod_l+0x18a>
1000a1ce:	991b      	ldr	r1, [sp, #108]	@ 0x6c
1000a1d0:	460b      	mov	r3, r1
1000a1d2:	3101      	adds	r1, #1
1000a1d4:	911b      	str	r1, [sp, #108]	@ 0x6c
1000a1d6:	785b      	ldrb	r3, [r3, #1]
1000a1d8:	f1a3 0c30 	sub.w	ip, r3, #48	@ 0x30
1000a1dc:	f1bc 0f09 	cmp.w	ip, #9
1000a1e0:	f240 811e 	bls.w	1000a420 <_strtod_l+0x390>
1000a1e4:	f023 0320 	bic.w	r3, r3, #32
1000a1e8:	46a6      	mov	lr, r4
1000a1ea:	2b45      	cmp	r3, #69	@ 0x45
1000a1ec:	f040 81a9 	bne.w	1000a542 <_strtod_l+0x4b2>
1000a1f0:	f04f 0a01 	mov.w	sl, #1
1000a1f4:	900a      	str	r0, [sp, #40]	@ 0x28
1000a1f6:	9b0a      	ldr	r3, [sp, #40]	@ 0x28
1000a1f8:	4323      	orrs	r3, r4
1000a1fa:	9a09      	ldr	r2, [sp, #36]	@ 0x24
1000a1fc:	4313      	orrs	r3, r2
1000a1fe:	f040 8142 	bne.w	1000a486 <_strtod_l+0x3f6>
1000a202:	9b07      	ldr	r3, [sp, #28]
1000a204:	f04f 0800 	mov.w	r8, #0
1000a208:	f04f 0900 	mov.w	r9, #0
1000a20c:	b103      	cbz	r3, 1000a210 <_strtod_l+0x180>
1000a20e:	601e      	str	r6, [r3, #0]
1000a210:	4640      	mov	r0, r8
1000a212:	4649      	mov	r1, r9
1000a214:	b021      	add	sp, #132	@ 0x84
1000a216:	e8bd 8ff0 	ldmia.w	sp!, {r4, r5, r6, r7, r8, r9, sl, fp, pc}
1000a21a:	f02a 0320 	bic.w	r3, sl, #32
1000a21e:	2b45      	cmp	r3, #69	@ 0x45
1000a220:	f000 812c 	beq.w	1000a47c <_strtod_l+0x3ec>
1000a224:	f04f 0900 	mov.w	r9, #0
1000a228:	46a6      	mov	lr, r4
1000a22a:	f8cd 9030 	str.w	r9, [sp, #48]	@ 0x30
1000a22e:	f8cd 9038 	str.w	r9, [sp, #56]	@ 0x38
1000a232:	4626      	mov	r6, r4
1000a234:	4674      	mov	r4, lr
1000a236:	2e10      	cmp	r6, #16
1000a238:	4628      	mov	r0, r5
1000a23a:	46b2      	mov	sl, r6
1000a23c:	bfa8      	it	ge
1000a23e:	f04f 0a10 	movge.w	sl, #16
1000a242:	f7fa fd63 	bl	10004d0c <__wrap___aeabi_ui2d>
1000a246:	2e09      	cmp	r6, #9
1000a248:	4602      	mov	r2, r0
1000a24a:	460b      	mov	r3, r1
1000a24c:	e9cd 2304 	strd	r2, r3, [sp, #16]
1000a250:	dd17      	ble.n	1000a282 <_strtod_l+0x1f2>
1000a252:	4b85      	ldr	r3, [pc, #532]	@ (1000a468 <_strtod_l+0x3d8>)
1000a254:	eb03 03ca 	add.w	r3, r3, sl, lsl #3
1000a258:	e953 2312 	ldrd	r2, r3, [r3, #-72]	@ 0x48
1000a25c:	f7fa fcc2 	bl	10004be4 <__wrap___aeabi_dmul>
1000a260:	4602      	mov	r2, r0
1000a262:	460b      	mov	r3, r1
1000a264:	4638      	mov	r0, r7
1000a266:	e9cd 2304 	strd	r2, r3, [sp, #16]
1000a26a:	f7fa fd4f 	bl	10004d0c <__wrap___aeabi_ui2d>
1000a26e:	4602      	mov	r2, r0
1000a270:	460b      	mov	r3, r1
1000a272:	e9dd 0104 	ldrd	r0, r1, [sp, #16]
1000a276:	f7fa fc8d 	bl	10004b94 <__wrap___aeabi_dadd>
1000a27a:	2e0f      	cmp	r6, #15
1000a27c:	e9cd 0104 	strd	r0, r1, [sp, #16]
1000a280:	dc3b      	bgt.n	1000a2fa <_strtod_l+0x26a>
1000a282:	9b0c      	ldr	r3, [sp, #48]	@ 0x30
1000a284:	2b00      	cmp	r3, #0
1000a286:	f000 83ad 	beq.w	1000a9e4 <_strtod_l+0x954>
1000a28a:	9b0c      	ldr	r3, [sp, #48]	@ 0x30
1000a28c:	f340 82b2 	ble.w	1000a7f4 <_strtod_l+0x764>
1000a290:	2b16      	cmp	r3, #22
1000a292:	f340 84df 	ble.w	1000ac54 <_strtod_l+0xbc4>
1000a296:	f1c6 0325 	rsb	r3, r6, #37	@ 0x25
1000a29a:	9a0c      	ldr	r2, [sp, #48]	@ 0x30
1000a29c:	4293      	cmp	r3, r2
1000a29e:	db2c      	blt.n	1000a2fa <_strtod_l+0x26a>
1000a2a0:	f1c6 050f 	rsb	r5, r6, #15
1000a2a4:	4c70      	ldr	r4, [pc, #448]	@ (1000a468 <_strtod_l+0x3d8>)
1000a2a6:	eb04 01c5 	add.w	r1, r4, r5, lsl #3
1000a2aa:	e9dd 2304 	ldrd	r2, r3, [sp, #16]
1000a2ae:	e9d1 0100 	ldrd	r0, r1, [r1]
1000a2b2:	f7fa fc97 	bl	10004be4 <__wrap___aeabi_dmul>
1000a2b6:	9b0c      	ldr	r3, [sp, #48]	@ 0x30
1000a2b8:	1b5d      	subs	r5, r3, r5
1000a2ba:	eb04 04c5 	add.w	r4, r4, r5, lsl #3
1000a2be:	e9d4 2300 	ldrd	r2, r3, [r4]
1000a2c2:	f7fa fc8f 	bl	10004be4 <__wrap___aeabi_dmul>
1000a2c6:	4680      	mov	r8, r0
1000a2c8:	4689      	mov	r9, r1
1000a2ca:	e099      	b.n	1000a400 <_strtod_l+0x370>
1000a2cc:	f898 2001 	ldrb.w	r2, [r8, #1]
1000a2d0:	f002 02df 	and.w	r2, r2, #223	@ 0xdf
1000a2d4:	2a58      	cmp	r2, #88	@ 0x58
1000a2d6:	f000 83d2 	beq.w	1000aa7e <_strtod_l+0x9ee>
1000a2da:	4643      	mov	r3, r8
1000a2dc:	3301      	adds	r3, #1
1000a2de:	931b      	str	r3, [sp, #108]	@ 0x6c
1000a2e0:	f893 a000 	ldrb.w	sl, [r3]
1000a2e4:	f1ba 0f30 	cmp.w	sl, #48	@ 0x30
1000a2e8:	d0f8      	beq.n	1000a2dc <_strtod_l+0x24c>
1000a2ea:	4698      	mov	r8, r3
1000a2ec:	f1ba 0f00 	cmp.w	sl, #0
1000a2f0:	f000 8082 	beq.w	1000a3f8 <_strtod_l+0x368>
1000a2f4:	2301      	movs	r3, #1
1000a2f6:	9309      	str	r3, [sp, #36]	@ 0x24
1000a2f8:	e746      	b.n	1000a188 <_strtod_l+0xf8>
1000a2fa:	eba6 0a0a 	sub.w	sl, r6, sl
1000a2fe:	9b0c      	ldr	r3, [sp, #48]	@ 0x30
1000a300:	449a      	add	sl, r3
1000a302:	f1ba 0f00 	cmp.w	sl, #0
1000a306:	f340 8127 	ble.w	1000a558 <_strtod_l+0x4c8>
1000a30a:	f02a 070f 	bic.w	r7, sl, #15
1000a30e:	f01a 0a0f 	ands.w	sl, sl, #15
1000a312:	f040 8423 	bne.w	1000ab5c <_strtod_l+0xacc>
1000a316:	f5b7 7f9a 	cmp.w	r7, #308	@ 0x134
1000a31a:	f300 84a9 	bgt.w	1000ac70 <_strtod_l+0xbe0>
1000a31e:	2f10      	cmp	r7, #16
1000a320:	ea4f 1a27 	mov.w	sl, r7, asr #4
1000a324:	f000 85eb 	beq.w	1000aefe <_strtod_l+0xe6e>
1000a328:	f8df e14c 	ldr.w	lr, [pc, #332]	@ 1000a478 <_strtod_l+0x3e8>
1000a32c:	f04f 0c00 	mov.w	ip, #0
1000a330:	e9cd 4509 	strd	r4, r5, [sp, #36]	@ 0x24
1000a334:	4677      	mov	r7, lr
1000a336:	4664      	mov	r4, ip
1000a338:	4675      	mov	r5, lr
1000a33a:	e9dd 2304 	ldrd	r2, r3, [sp, #16]
1000a33e:	f01a 0f01 	tst.w	sl, #1
1000a342:	4610      	mov	r0, r2
1000a344:	4619      	mov	r1, r3
1000a346:	d007      	beq.n	1000a358 <_strtod_l+0x2c8>
1000a348:	e9d7 2300 	ldrd	r2, r3, [r7]
1000a34c:	f7fa fc4a 	bl	10004be4 <__wrap___aeabi_dmul>
1000a350:	f04f 0c01 	mov.w	ip, #1
1000a354:	4602      	mov	r2, r0
1000a356:	460b      	mov	r3, r1
1000a358:	ea4f 0a6a 	mov.w	sl, sl, asr #1
1000a35c:	3401      	adds	r4, #1
1000a35e:	3708      	adds	r7, #8
1000a360:	f1ba 0f01 	cmp.w	sl, #1
1000a364:	d1eb      	bne.n	1000a33e <_strtod_l+0x2ae>
1000a366:	4621      	mov	r1, r4
1000a368:	46ae      	mov	lr, r5
1000a36a:	9c09      	ldr	r4, [sp, #36]	@ 0x24
1000a36c:	9d0a      	ldr	r5, [sp, #40]	@ 0x28
1000a36e:	f1bc 0f00 	cmp.w	ip, #0
1000a372:	d001      	beq.n	1000a378 <_strtod_l+0x2e8>
1000a374:	e9cd 2304 	strd	r2, r3, [sp, #16]
1000a378:	9b05      	ldr	r3, [sp, #20]
1000a37a:	eb0e 0ec1 	add.w	lr, lr, r1, lsl #3
1000a37e:	f1a3 7354 	sub.w	r3, r3, #55574528	@ 0x3500000
1000a382:	9305      	str	r3, [sp, #20]
1000a384:	e9dd 2304 	ldrd	r2, r3, [sp, #16]
1000a388:	e9de 0100 	ldrd	r0, r1, [lr]
1000a38c:	f7fa fc2a 	bl	10004be4 <__wrap___aeabi_dmul>
1000a390:	4b36      	ldr	r3, [pc, #216]	@ (1000a46c <_strtod_l+0x3dc>)
1000a392:	460a      	mov	r2, r1
1000a394:	400b      	ands	r3, r1
1000a396:	e9cd 0104 	strd	r0, r1, [sp, #16]
1000a39a:	4935      	ldr	r1, [pc, #212]	@ (1000a470 <_strtod_l+0x3e0>)
1000a39c:	428b      	cmp	r3, r1
1000a39e:	f200 8467 	bhi.w	1000ac70 <_strtod_l+0xbe0>
1000a3a2:	f5a1 1180 	sub.w	r1, r1, #1048576	@ 0x100000
1000a3a6:	428b      	cmp	r3, r1
1000a3a8:	f240 8525 	bls.w	1000adf6 <_strtod_l+0xd66>
1000a3ac:	f04f 32ff 	mov.w	r2, #4294967295	@ 0xffffffff
1000a3b0:	4b30      	ldr	r3, [pc, #192]	@ (1000a474 <_strtod_l+0x3e4>)
1000a3b2:	e9cd 2304 	strd	r2, r3, [sp, #16]
1000a3b6:	e0d1      	b.n	1000a55c <_strtod_l+0x4cc>
1000a3b8:	981b      	ldr	r0, [sp, #108]	@ 0x6c
1000a3ba:	1c43      	adds	r3, r0, #1
1000a3bc:	931b      	str	r3, [sp, #108]	@ 0x6c
1000a3be:	7841      	ldrb	r1, [r0, #1]
1000a3c0:	2930      	cmp	r1, #48	@ 0x30
1000a3c2:	f040 84a1 	bne.w	1000ad08 <_strtod_l+0xc78>
1000a3c6:	1c83      	adds	r3, r0, #2
1000a3c8:	461a      	mov	r2, r3
1000a3ca:	931b      	str	r3, [sp, #108]	@ 0x6c
1000a3cc:	3301      	adds	r3, #1
1000a3ce:	7811      	ldrb	r1, [r2, #0]
1000a3d0:	2930      	cmp	r1, #48	@ 0x30
1000a3d2:	d0f9      	beq.n	1000a3c8 <_strtod_l+0x338>
1000a3d4:	1a12      	subs	r2, r2, r0
1000a3d6:	1e53      	subs	r3, r2, #1
1000a3d8:	930a      	str	r3, [sp, #40]	@ 0x28
1000a3da:	f1a1 0331 	sub.w	r3, r1, #49	@ 0x31
1000a3de:	2b08      	cmp	r3, #8
1000a3e0:	f240 82e2 	bls.w	1000a9a8 <_strtod_l+0x918>
1000a3e4:	f021 0120 	bic.w	r1, r1, #32
1000a3e8:	2945      	cmp	r1, #69	@ 0x45
1000a3ea:	f000 83a4 	beq.w	1000ab36 <_strtod_l+0xaa6>
1000a3ee:	e9dd 2309 	ldrd	r2, r3, [sp, #36]	@ 0x24
1000a3f2:	4313      	orrs	r3, r2
1000a3f4:	f43f af05 	beq.w	1000a202 <_strtod_l+0x172>
1000a3f8:	f04f 0800 	mov.w	r8, #0
1000a3fc:	f04f 0900 	mov.w	r9, #0
1000a400:	9a07      	ldr	r2, [sp, #28]
1000a402:	b10a      	cbz	r2, 1000a408 <_strtod_l+0x378>
1000a404:	9b1b      	ldr	r3, [sp, #108]	@ 0x6c
1000a406:	6013      	str	r3, [r2, #0]
1000a408:	9b08      	ldr	r3, [sp, #32]
1000a40a:	2b00      	cmp	r3, #0
1000a40c:	f43f af00 	beq.w	1000a210 <_strtod_l+0x180>
1000a410:	f109 4300 	add.w	r3, r9, #2147483648	@ 0x80000000
1000a414:	4640      	mov	r0, r8
1000a416:	4699      	mov	r9, r3
1000a418:	4649      	mov	r1, r9
1000a41a:	b021      	add	sp, #132	@ 0x84
1000a41c:	e8bd 8ff0 	ldmia.w	sp!, {r4, r5, r6, r7, r8, r9, sl, fp, pc}
1000a420:	46a6      	mov	lr, r4
1000a422:	900a      	str	r0, [sp, #40]	@ 0x28
1000a424:	9a0a      	ldr	r2, [sp, #40]	@ 0x28
1000a426:	4608      	mov	r0, r1
1000a428:	4661      	mov	r1, ip
1000a42a:	1c53      	adds	r3, r2, #1
1000a42c:	f1bc 0f00 	cmp.w	ip, #0
1000a430:	f000 8489 	beq.w	1000ad46 <_strtod_l+0xcb6>
1000a434:	2b01      	cmp	r3, #1
1000a436:	4499      	add	r9, r3
1000a438:	f000 862d 	beq.w	1000b096 <_strtod_l+0x1006>
1000a43c:	4422      	add	r2, r4
1000a43e:	e004      	b.n	1000a44a <_strtod_l+0x3ba>
1000a440:	ea4f 054a 	mov.w	r5, sl, lsl #1
1000a444:	42a2      	cmp	r2, r4
1000a446:	f000 8627 	beq.w	1000b098 <_strtod_l+0x1008>
1000a44a:	2c08      	cmp	r4, #8
1000a44c:	eb05 0a85 	add.w	sl, r5, r5, lsl #2
1000a450:	f104 0401 	add.w	r4, r4, #1
1000a454:	ddf4      	ble.n	1000a440 <_strtod_l+0x3b0>
1000a456:	eb07 0387 	add.w	r3, r7, r7, lsl #2
1000a45a:	2c10      	cmp	r4, #16
1000a45c:	bfd8      	it	le
1000a45e:	005f      	lslle	r7, r3, #1
1000a460:	e7f0      	b.n	1000a444 <_strtod_l+0x3b4>
1000a462:	bf00      	nop
1000a464:	1000d298 	.word	0x1000d298
1000a468:	10011968 	.word	0x10011968
1000a46c:	7ff00000 	.word	0x7ff00000
1000a470:	7ca00000 	.word	0x7ca00000
1000a474:	7fefffff 	.word	0x7fefffff
1000a478:	10011940 	.word	0x10011940
1000a47c:	2300      	movs	r3, #0
1000a47e:	46a6      	mov	lr, r4
1000a480:	4699      	mov	r9, r3
1000a482:	469a      	mov	sl, r3
1000a484:	930a      	str	r3, [sp, #40]	@ 0x28
1000a486:	9e1b      	ldr	r6, [sp, #108]	@ 0x6c
1000a488:	1c73      	adds	r3, r6, #1
1000a48a:	931b      	str	r3, [sp, #108]	@ 0x6c
1000a48c:	7873      	ldrb	r3, [r6, #1]
1000a48e:	2b2b      	cmp	r3, #43	@ 0x2b
1000a490:	f000 826a 	beq.w	1000a968 <_strtod_l+0x8d8>
1000a494:	2b2d      	cmp	r3, #45	@ 0x2d
1000a496:	d141      	bne.n	1000a51c <_strtod_l+0x48c>
1000a498:	2301      	movs	r3, #1
1000a49a:	930c      	str	r3, [sp, #48]	@ 0x30
1000a49c:	1cb3      	adds	r3, r6, #2
1000a49e:	931b      	str	r3, [sp, #108]	@ 0x6c
1000a4a0:	78b3      	ldrb	r3, [r6, #2]
1000a4a2:	f1a3 0c30 	sub.w	ip, r3, #48	@ 0x30
1000a4a6:	f1bc 0f09 	cmp.w	ip, #9
1000a4aa:	f200 821e 	bhi.w	1000a8ea <_strtod_l+0x85a>
1000a4ae:	2b30      	cmp	r3, #48	@ 0x30
1000a4b0:	991b      	ldr	r1, [sp, #108]	@ 0x6c
1000a4b2:	f040 82c0 	bne.w	1000aa36 <_strtod_l+0x9a6>
1000a4b6:	3101      	adds	r1, #1
1000a4b8:	911b      	str	r1, [sp, #108]	@ 0x6c
1000a4ba:	780b      	ldrb	r3, [r1, #0]
1000a4bc:	2b30      	cmp	r3, #48	@ 0x30
1000a4be:	d0fa      	beq.n	1000a4b6 <_strtod_l+0x426>
1000a4c0:	f1a3 0031 	sub.w	r0, r3, #49	@ 0x31
1000a4c4:	2808      	cmp	r0, #8
1000a4c6:	f240 82b4 	bls.w	1000aa32 <_strtod_l+0x9a2>
1000a4ca:	2200      	movs	r2, #0
1000a4cc:	920e      	str	r2, [sp, #56]	@ 0x38
1000a4ce:	2c00      	cmp	r4, #0
1000a4d0:	d138      	bne.n	1000a544 <_strtod_l+0x4b4>
1000a4d2:	e9dd 2109 	ldrd	r2, r1, [sp, #36]	@ 0x24
1000a4d6:	430a      	orrs	r2, r1
1000a4d8:	d18e      	bne.n	1000a3f8 <_strtod_l+0x368>
1000a4da:	f1ba 0f00 	cmp.w	sl, #0
1000a4de:	f47f ae90 	bne.w	1000a202 <_strtod_l+0x172>
1000a4e2:	2b69      	cmp	r3, #105	@ 0x69
1000a4e4:	f000 834f 	beq.w	1000ab86 <_strtod_l+0xaf6>
1000a4e8:	f300 8348 	bgt.w	1000ab7c <_strtod_l+0xaec>
1000a4ec:	2b49      	cmp	r3, #73	@ 0x49
1000a4ee:	f000 834a 	beq.w	1000ab86 <_strtod_l+0xaf6>
1000a4f2:	2b4e      	cmp	r3, #78	@ 0x4e
1000a4f4:	f47f ae85 	bne.w	1000a202 <_strtod_l+0x172>
1000a4f8:	49b7      	ldr	r1, [pc, #732]	@ (1000a7d8 <_strtod_l+0x748>)
1000a4fa:	a81b      	add	r0, sp, #108	@ 0x6c
1000a4fc:	f001 fda0 	bl	1000c040 <__match>
1000a500:	2800      	cmp	r0, #0
1000a502:	f43f ae7e 	beq.w	1000a202 <_strtod_l+0x172>
1000a506:	9b1b      	ldr	r3, [sp, #108]	@ 0x6c
1000a508:	781b      	ldrb	r3, [r3, #0]
1000a50a:	2b28      	cmp	r3, #40	@ 0x28
1000a50c:	f000 8498 	beq.w	1000ae40 <_strtod_l+0xdb0>
1000a510:	48b2      	ldr	r0, [pc, #712]	@ (1000a7dc <_strtod_l+0x74c>)
1000a512:	f001 fa35 	bl	1000b980 <nan>
1000a516:	4680      	mov	r8, r0
1000a518:	4689      	mov	r9, r1
1000a51a:	e771      	b.n	1000a400 <_strtod_l+0x370>
1000a51c:	2200      	movs	r2, #0
1000a51e:	920c      	str	r2, [sp, #48]	@ 0x30
1000a520:	e7bf      	b.n	1000a4a2 <_strtod_l+0x412>
1000a522:	2200      	movs	r2, #0
1000a524:	9208      	str	r2, [sp, #32]
1000a526:	f108 0201 	add.w	r2, r8, #1
1000a52a:	921b      	str	r2, [sp, #108]	@ 0x6c
1000a52c:	f898 a001 	ldrb.w	sl, [r8, #1]
1000a530:	f1ba 0f00 	cmp.w	sl, #0
1000a534:	f43f ae65 	beq.w	1000a202 <_strtod_l+0x172>
1000a538:	4690      	mov	r8, r2
1000a53a:	e61f      	b.n	1000a17c <_strtod_l+0xec>
1000a53c:	2201      	movs	r2, #1
1000a53e:	9208      	str	r2, [sp, #32]
1000a540:	e7f1      	b.n	1000a526 <_strtod_l+0x496>
1000a542:	900e      	str	r0, [sp, #56]	@ 0x38
1000a544:	9b0e      	ldr	r3, [sp, #56]	@ 0x38
1000a546:	eba3 0309 	sub.w	r3, r3, r9
1000a54a:	930c      	str	r3, [sp, #48]	@ 0x30
1000a54c:	f1be 0f00 	cmp.w	lr, #0
1000a550:	f47f ae6f 	bne.w	1000a232 <_strtod_l+0x1a2>
1000a554:	4626      	mov	r6, r4
1000a556:	e66e      	b.n	1000a236 <_strtod_l+0x1a6>
1000a558:	f040 8334 	bne.w	1000abc4 <_strtod_l+0xb34>
1000a55c:	2300      	movs	r3, #0
1000a55e:	930d      	str	r3, [sp, #52]	@ 0x34
1000a560:	4633      	mov	r3, r6
1000a562:	4622      	mov	r2, r4
1000a564:	4641      	mov	r1, r8
1000a566:	4658      	mov	r0, fp
1000a568:	9500      	str	r5, [sp, #0]
1000a56a:	f001 fee7 	bl	1000c33c <__s2b>
1000a56e:	9015      	str	r0, [sp, #84]	@ 0x54
1000a570:	2800      	cmp	r0, #0
1000a572:	f000 837d 	beq.w	1000ac70 <_strtod_l+0xbe0>
1000a576:	9b0e      	ldr	r3, [sp, #56]	@ 0x38
1000a578:	2100      	movs	r1, #0
1000a57a:	eba9 0903 	sub.w	r9, r9, r3
1000a57e:	9b0c      	ldr	r3, [sp, #48]	@ 0x30
1000a580:	468a      	mov	sl, r1
1000a582:	9109      	str	r1, [sp, #36]	@ 0x24
1000a584:	2b00      	cmp	r3, #0
1000a586:	ea23 73e3 	bic.w	r3, r3, r3, asr #31
1000a58a:	bfb4      	ite	lt
1000a58c:	464a      	movlt	r2, r9
1000a58e:	2200      	movge	r2, #0
1000a590:	9314      	str	r3, [sp, #80]	@ 0x50
1000a592:	920e      	str	r2, [sp, #56]	@ 0x38
1000a594:	9a0d      	ldr	r2, [sp, #52]	@ 0x34
1000a596:	1a53      	subs	r3, r2, r1
1000a598:	fab2 fc82 	clz	ip, r2
1000a59c:	bf18      	it	ne
1000a59e:	2301      	movne	r3, #1
1000a5a0:	ea4f 1c5c 	mov.w	ip, ip, lsr #5
1000a5a4:	9316      	str	r3, [sp, #88]	@ 0x58
1000a5a6:	f8cd c05c 	str.w	ip, [sp, #92]	@ 0x5c
1000a5aa:	e0d1      	b.n	1000a750 <_strtod_l+0x6c0>
1000a5ac:	1ad2      	subs	r2, r2, r3
1000a5ae:	2a1f      	cmp	r2, #31
1000a5b0:	eba4 0402 	sub.w	r4, r4, r2
1000a5b4:	f300 819d 	bgt.w	1000a8f2 <_strtod_l+0x862>
1000a5b8:	2301      	movs	r3, #1
1000a5ba:	2700      	movs	r7, #0
1000a5bc:	4093      	lsls	r3, r2
1000a5be:	9312      	str	r3, [sp, #72]	@ 0x48
1000a5c0:	4425      	add	r5, r4
1000a5c2:	4434      	add	r4, r6
1000a5c4:	9b0d      	ldr	r3, [sp, #52]	@ 0x34
1000a5c6:	42a6      	cmp	r6, r4
1000a5c8:	441d      	add	r5, r3
1000a5ca:	4633      	mov	r3, r6
1000a5cc:	bfa8      	it	ge
1000a5ce:	4623      	movge	r3, r4
1000a5d0:	42ab      	cmp	r3, r5
1000a5d2:	bfa8      	it	ge
1000a5d4:	462b      	movge	r3, r5
1000a5d6:	2b00      	cmp	r3, #0
1000a5d8:	dd02      	ble.n	1000a5e0 <_strtod_l+0x550>
1000a5da:	1ae4      	subs	r4, r4, r3
1000a5dc:	1aed      	subs	r5, r5, r3
1000a5de:	1af6      	subs	r6, r6, r3
1000a5e0:	9b0e      	ldr	r3, [sp, #56]	@ 0x38
1000a5e2:	2b00      	cmp	r3, #0
1000a5e4:	f300 8128 	bgt.w	1000a838 <_strtod_l+0x7a8>
1000a5e8:	2c00      	cmp	r4, #0
1000a5ea:	f300 813d 	bgt.w	1000a868 <_strtod_l+0x7d8>
1000a5ee:	9b0c      	ldr	r3, [sp, #48]	@ 0x30
1000a5f0:	2b00      	cmp	r3, #0
1000a5f2:	f300 8170 	bgt.w	1000a8d6 <_strtod_l+0x846>
1000a5f6:	2d00      	cmp	r5, #0
1000a5f8:	f300 8161 	bgt.w	1000a8be <_strtod_l+0x82e>
1000a5fc:	2e00      	cmp	r6, #0
1000a5fe:	dd08      	ble.n	1000a612 <_strtod_l+0x582>
1000a600:	4651      	mov	r1, sl
1000a602:	4632      	mov	r2, r6
1000a604:	4658      	mov	r0, fp
1000a606:	f002 f89d 	bl	1000c744 <__lshift>
1000a60a:	4682      	mov	sl, r0
1000a60c:	2800      	cmp	r0, #0
1000a60e:	f000 815f 	beq.w	1000a8d0 <_strtod_l+0x840>
1000a612:	464a      	mov	r2, r9
1000a614:	991c      	ldr	r1, [sp, #112]	@ 0x70
1000a616:	4658      	mov	r0, fp
1000a618:	f002 f928 	bl	1000c86c <__mdiff>
1000a61c:	9009      	str	r0, [sp, #36]	@ 0x24
1000a61e:	2800      	cmp	r0, #0
1000a620:	f000 8156 	beq.w	1000a8d0 <_strtod_l+0x840>
1000a624:	9a09      	ldr	r2, [sp, #36]	@ 0x24
1000a626:	2300      	movs	r3, #0
1000a628:	68d1      	ldr	r1, [r2, #12]
1000a62a:	60d3      	str	r3, [r2, #12]
1000a62c:	910f      	str	r1, [sp, #60]	@ 0x3c
1000a62e:	4651      	mov	r1, sl
1000a630:	f002 f8fa 	bl	1000c828 <__mcmp>
1000a634:	2800      	cmp	r0, #0
1000a636:	f2c0 842b 	blt.w	1000ae90 <_strtod_l+0xe00>
1000a63a:	9e05      	ldr	r6, [sp, #20]
1000a63c:	f000 838e 	beq.w	1000ad5c <_strtod_l+0xccc>
1000a640:	4651      	mov	r1, sl
1000a642:	9809      	ldr	r0, [sp, #36]	@ 0x24
1000a644:	f002 faae 	bl	1000cba4 <__ratio>
1000a648:	2200      	movs	r2, #0
1000a64a:	f04f 4380 	mov.w	r3, #1073741824	@ 0x40000000
1000a64e:	4604      	mov	r4, r0
1000a650:	460d      	mov	r5, r1
1000a652:	f7fa fbc9 	bl	10004de8 <__wrap___aeabi_dcmple>
1000a656:	2800      	cmp	r0, #0
1000a658:	f000 80de 	beq.w	1000a818 <_strtod_l+0x788>
1000a65c:	9b0f      	ldr	r3, [sp, #60]	@ 0x3c
1000a65e:	2b00      	cmp	r3, #0
1000a660:	f040 8153 	bne.w	1000a90a <_strtod_l+0x87a>
1000a664:	9b04      	ldr	r3, [sp, #16]
1000a666:	2b00      	cmp	r3, #0
1000a668:	f040 8254 	bne.w	1000ab14 <_strtod_l+0xa84>
1000a66c:	f3c6 0313 	ubfx	r3, r6, #0, #20
1000a670:	2b00      	cmp	r3, #0
1000a672:	f040 817c 	bne.w	1000a96e <_strtod_l+0x8de>
1000a676:	2200      	movs	r2, #0
1000a678:	4b59      	ldr	r3, [pc, #356]	@ (1000a7e0 <_strtod_l+0x750>)
1000a67a:	4620      	mov	r0, r4
1000a67c:	4629      	mov	r1, r5
1000a67e:	f7fa fb9f 	bl	10004dc0 <__wrap___aeabi_dcmplt>
1000a682:	2800      	cmp	r0, #0
1000a684:	f040 8361 	bne.w	1000ad4a <_strtod_l+0xcba>
1000a688:	2200      	movs	r2, #0
1000a68a:	4b56      	ldr	r3, [pc, #344]	@ (1000a7e4 <_strtod_l+0x754>)
1000a68c:	4620      	mov	r0, r4
1000a68e:	4629      	mov	r1, r5
1000a690:	f7fa faa8 	bl	10004be4 <__wrap___aeabi_dmul>
1000a694:	460a      	mov	r2, r1
1000a696:	4601      	mov	r1, r0
1000a698:	9010      	str	r0, [sp, #64]	@ 0x40
1000a69a:	f102 4300 	add.w	r3, r2, #2147483648	@ 0x80000000
1000a69e:	e9cd 1212 	strd	r1, r2, [sp, #72]	@ 0x48
1000a6a2:	9311      	str	r3, [sp, #68]	@ 0x44
1000a6a4:	4f50      	ldr	r7, [pc, #320]	@ (1000a7e8 <_strtod_l+0x758>)
1000a6a6:	4b51      	ldr	r3, [pc, #324]	@ (1000a7ec <_strtod_l+0x75c>)
1000a6a8:	4037      	ands	r7, r6
1000a6aa:	429f      	cmp	r7, r3
1000a6ac:	e9dd 4510 	ldrd	r4, r5, [sp, #64]	@ 0x40
1000a6b0:	f000 8132 	beq.w	1000a918 <_strtod_l+0x888>
1000a6b4:	f1b7 6fd4 	cmp.w	r7, #111149056	@ 0x6a00000
1000a6b8:	d821      	bhi.n	1000a6fe <_strtod_l+0x66e>
1000a6ba:	9b16      	ldr	r3, [sp, #88]	@ 0x58
1000a6bc:	b1fb      	cbz	r3, 1000a6fe <_strtod_l+0x66e>
1000a6be:	a344      	add	r3, pc, #272	@ (adr r3, 1000a7d0 <_strtod_l+0x740>)
1000a6c0:	e9d3 2300 	ldrd	r2, r3, [r3]
1000a6c4:	e9dd 0112 	ldrd	r0, r1, [sp, #72]	@ 0x48
1000a6c8:	f7fa fb8e 	bl	10004de8 <__wrap___aeabi_dcmple>
1000a6cc:	b1a0      	cbz	r0, 1000a6f8 <_strtod_l+0x668>
1000a6ce:	e9dd 0112 	ldrd	r0, r1, [sp, #72]	@ 0x48
1000a6d2:	f7fa fb3f 	bl	10004d54 <__wrap___aeabi_d2uiz>
1000a6d6:	2801      	cmp	r0, #1
1000a6d8:	bf38      	it	cc
1000a6da:	2001      	movcc	r0, #1
1000a6dc:	f7fa fb16 	bl	10004d0c <__wrap___aeabi_ui2d>
1000a6e0:	9b0f      	ldr	r3, [sp, #60]	@ 0x3c
1000a6e2:	e9cd 0112 	strd	r0, r1, [sp, #72]	@ 0x48
1000a6e6:	2b00      	cmp	r3, #0
1000a6e8:	f040 8233 	bne.w	1000ab52 <_strtod_l+0xac2>
1000a6ec:	f101 4300 	add.w	r3, r1, #2147483648	@ 0x80000000
1000a6f0:	9018      	str	r0, [sp, #96]	@ 0x60
1000a6f2:	9319      	str	r3, [sp, #100]	@ 0x64
1000a6f4:	e9dd 4518 	ldrd	r4, r5, [sp, #96]	@ 0x60
1000a6f8:	f105 63d6 	add.w	r3, r5, #112197632	@ 0x6b00000
1000a6fc:	1bdd      	subs	r5, r3, r7
1000a6fe:	e9dd 010a 	ldrd	r0, r1, [sp, #40]	@ 0x28
1000a702:	f002 f96b 	bl	1000c9dc <__ulp>
1000a706:	4602      	mov	r2, r0
1000a708:	460b      	mov	r3, r1
1000a70a:	4620      	mov	r0, r4
1000a70c:	4629      	mov	r1, r5
1000a70e:	f7fa fa69 	bl	10004be4 <__wrap___aeabi_dmul>
1000a712:	e9dd 230a 	ldrd	r2, r3, [sp, #40]	@ 0x28
1000a716:	f7fa fa3d 	bl	10004b94 <__wrap___aeabi_dadd>
1000a71a:	460c      	mov	r4, r1
1000a71c:	e9cd 0104 	strd	r0, r1, [sp, #16]
1000a720:	4b31      	ldr	r3, [pc, #196]	@ (1000a7e8 <_strtod_l+0x758>)
1000a722:	4023      	ands	r3, r4
1000a724:	42bb      	cmp	r3, r7
1000a726:	d103      	bne.n	1000a730 <_strtod_l+0x6a0>
1000a728:	9b17      	ldr	r3, [sp, #92]	@ 0x5c
1000a72a:	2b00      	cmp	r3, #0
1000a72c:	f040 815d 	bne.w	1000a9ea <_strtod_l+0x95a>
1000a730:	991c      	ldr	r1, [sp, #112]	@ 0x70
1000a732:	4658      	mov	r0, fp
1000a734:	f001 fda6 	bl	1000c284 <_Bfree>
1000a738:	4649      	mov	r1, r9
1000a73a:	4658      	mov	r0, fp
1000a73c:	f001 fda2 	bl	1000c284 <_Bfree>
1000a740:	4651      	mov	r1, sl
1000a742:	4658      	mov	r0, fp
1000a744:	f001 fd9e 	bl	1000c284 <_Bfree>
1000a748:	9909      	ldr	r1, [sp, #36]	@ 0x24
1000a74a:	4658      	mov	r0, fp
1000a74c:	f001 fd9a 	bl	1000c284 <_Bfree>
1000a750:	9c15      	ldr	r4, [sp, #84]	@ 0x54
1000a752:	4658      	mov	r0, fp
1000a754:	6861      	ldr	r1, [r4, #4]
1000a756:	f001 fd6f 	bl	1000c238 <_Balloc>
1000a75a:	4681      	mov	r9, r0
1000a75c:	2800      	cmp	r0, #0
1000a75e:	f000 80b7 	beq.w	1000a8d0 <_strtod_l+0x840>
1000a762:	6922      	ldr	r2, [r4, #16]
1000a764:	f104 010c 	add.w	r1, r4, #12
1000a768:	300c      	adds	r0, #12
1000a76a:	3202      	adds	r2, #2
1000a76c:	0092      	lsls	r2, r2, #2
1000a76e:	f7fd fbc9 	bl	10007f04 <memcpy>
1000a772:	ab1e      	add	r3, sp, #120	@ 0x78
1000a774:	4658      	mov	r0, fp
1000a776:	9301      	str	r3, [sp, #4]
1000a778:	ab1d      	add	r3, sp, #116	@ 0x74
1000a77a:	ed9d 7b04 	vldr	d7, [sp, #16]
1000a77e:	9300      	str	r3, [sp, #0]
1000a780:	ec53 2b17 	vmov	r2, r3, d7
1000a784:	ed8d 7b0a 	vstr	d7, [sp, #40]	@ 0x28
1000a788:	f002 f9ae 	bl	1000cae8 <__d2b>
1000a78c:	4602      	mov	r2, r0
1000a78e:	901c      	str	r0, [sp, #112]	@ 0x70
1000a790:	2800      	cmp	r0, #0
1000a792:	d073      	beq.n	1000a87c <_strtod_l+0x7ec>
1000a794:	2101      	movs	r1, #1
1000a796:	4658      	mov	r0, fp
1000a798:	f001 fe92 	bl	1000c4c0 <__i2b>
1000a79c:	4682      	mov	sl, r0
1000a79e:	2800      	cmp	r0, #0
1000a7a0:	f000 8096 	beq.w	1000a8d0 <_strtod_l+0x840>
1000a7a4:	9b1d      	ldr	r3, [sp, #116]	@ 0x74
1000a7a6:	2b00      	cmp	r3, #0
1000a7a8:	f2c0 8085 	blt.w	1000a8b6 <_strtod_l+0x826>
1000a7ac:	9a0e      	ldr	r2, [sp, #56]	@ 0x38
1000a7ae:	9d14      	ldr	r5, [sp, #80]	@ 0x50
1000a7b0:	189e      	adds	r6, r3, r2
1000a7b2:	9a0d      	ldr	r2, [sp, #52]	@ 0x34
1000a7b4:	9c1e      	ldr	r4, [sp, #120]	@ 0x78
1000a7b6:	1a9b      	subs	r3, r3, r2
1000a7b8:	4a0d      	ldr	r2, [pc, #52]	@ (1000a7f0 <_strtod_l+0x760>)
1000a7ba:	4423      	add	r3, r4
1000a7bc:	f1c4 0436 	rsb	r4, r4, #54	@ 0x36
1000a7c0:	3b01      	subs	r3, #1
1000a7c2:	4293      	cmp	r3, r2
1000a7c4:	f6ff aef2 	blt.w	1000a5ac <_strtod_l+0x51c>
1000a7c8:	2301      	movs	r3, #1
1000a7ca:	2700      	movs	r7, #0
1000a7cc:	9312      	str	r3, [sp, #72]	@ 0x48
1000a7ce:	e6f7      	b.n	1000a5c0 <_strtod_l+0x530>
1000a7d0:	ffc00000 	.word	0xffc00000
1000a7d4:	41dfffff 	.word	0x41dfffff
1000a7d8:	1000d2ec 	.word	0x1000d2ec
1000a7dc:	1000d1d8 	.word	0x1000d1d8
1000a7e0:	3ff00000 	.word	0x3ff00000
1000a7e4:	3fe00000 	.word	0x3fe00000
1000a7e8:	7ff00000 	.word	0x7ff00000
1000a7ec:	7fe00000 	.word	0x7fe00000
1000a7f0:	fffffc02 	.word	0xfffffc02
1000a7f4:	3316      	adds	r3, #22
1000a7f6:	f6ff ad80 	blt.w	1000a2fa <_strtod_l+0x26a>
1000a7fa:	9b0e      	ldr	r3, [sp, #56]	@ 0x38
1000a7fc:	eba9 0903 	sub.w	r9, r9, r3
1000a800:	4bb3      	ldr	r3, [pc, #716]	@ (1000aad0 <_strtod_l+0xa40>)
1000a802:	eb03 03c9 	add.w	r3, r3, r9, lsl #3
1000a806:	e9dd 0104 	ldrd	r0, r1, [sp, #16]
1000a80a:	e9d3 2300 	ldrd	r2, r3, [r3]
1000a80e:	f7fa fa0f 	bl	10004c30 <__wrap___aeabi_ddiv>
1000a812:	4680      	mov	r8, r0
1000a814:	4689      	mov	r9, r1
1000a816:	e5f3      	b.n	1000a400 <_strtod_l+0x370>
1000a818:	4bae      	ldr	r3, [pc, #696]	@ (1000aad4 <_strtod_l+0xa44>)
1000a81a:	4620      	mov	r0, r4
1000a81c:	4629      	mov	r1, r5
1000a81e:	2200      	movs	r2, #0
1000a820:	f7fa f9e0 	bl	10004be4 <__wrap___aeabi_dmul>
1000a824:	9b0f      	ldr	r3, [sp, #60]	@ 0x3c
1000a826:	e9cd 0112 	strd	r0, r1, [sp, #72]	@ 0x48
1000a82a:	2b00      	cmp	r3, #0
1000a82c:	d168      	bne.n	1000a900 <_strtod_l+0x870>
1000a82e:	f101 4300 	add.w	r3, r1, #2147483648	@ 0x80000000
1000a832:	9010      	str	r0, [sp, #64]	@ 0x40
1000a834:	9311      	str	r3, [sp, #68]	@ 0x44
1000a836:	e735      	b.n	1000a6a4 <_strtod_l+0x614>
1000a838:	4651      	mov	r1, sl
1000a83a:	461a      	mov	r2, r3
1000a83c:	4658      	mov	r0, fp
1000a83e:	f001 ff21 	bl	1000c684 <__pow5mult>
1000a842:	9a1c      	ldr	r2, [sp, #112]	@ 0x70
1000a844:	4682      	mov	sl, r0
1000a846:	b1c8      	cbz	r0, 1000a87c <_strtod_l+0x7ec>
1000a848:	4601      	mov	r1, r0
1000a84a:	4658      	mov	r0, fp
1000a84c:	f001 fe66 	bl	1000c51c <__multiply>
1000a850:	9a1c      	ldr	r2, [sp, #112]	@ 0x70
1000a852:	900f      	str	r0, [sp, #60]	@ 0x3c
1000a854:	b190      	cbz	r0, 1000a87c <_strtod_l+0x7ec>
1000a856:	4611      	mov	r1, r2
1000a858:	4658      	mov	r0, fp
1000a85a:	f001 fd13 	bl	1000c284 <_Bfree>
1000a85e:	9b0f      	ldr	r3, [sp, #60]	@ 0x3c
1000a860:	2c00      	cmp	r4, #0
1000a862:	931c      	str	r3, [sp, #112]	@ 0x70
1000a864:	f77f aec3 	ble.w	1000a5ee <_strtod_l+0x55e>
1000a868:	4622      	mov	r2, r4
1000a86a:	991c      	ldr	r1, [sp, #112]	@ 0x70
1000a86c:	4658      	mov	r0, fp
1000a86e:	f001 ff69 	bl	1000c744 <__lshift>
1000a872:	4602      	mov	r2, r0
1000a874:	901c      	str	r0, [sp, #112]	@ 0x70
1000a876:	2800      	cmp	r0, #0
1000a878:	f47f aeb9 	bne.w	1000a5ee <_strtod_l+0x55e>
1000a87c:	464f      	mov	r7, r9
1000a87e:	4611      	mov	r1, r2
1000a880:	2322      	movs	r3, #34	@ 0x22
1000a882:	f04f 0800 	mov.w	r8, #0
1000a886:	f8df 9254 	ldr.w	r9, [pc, #596]	@ 1000aadc <_strtod_l+0xa4c>
1000a88a:	f8cb 3000 	str.w	r3, [fp]
1000a88e:	4658      	mov	r0, fp
1000a890:	f001 fcf8 	bl	1000c284 <_Bfree>
1000a894:	4639      	mov	r1, r7
1000a896:	4658      	mov	r0, fp
1000a898:	f001 fcf4 	bl	1000c284 <_Bfree>
1000a89c:	4651      	mov	r1, sl
1000a89e:	4658      	mov	r0, fp
1000a8a0:	f001 fcf0 	bl	1000c284 <_Bfree>
1000a8a4:	9915      	ldr	r1, [sp, #84]	@ 0x54
1000a8a6:	4658      	mov	r0, fp
1000a8a8:	f001 fcec 	bl	1000c284 <_Bfree>
1000a8ac:	9909      	ldr	r1, [sp, #36]	@ 0x24
1000a8ae:	4658      	mov	r0, fp
1000a8b0:	f001 fce8 	bl	1000c284 <_Bfree>
1000a8b4:	e5a4      	b.n	1000a400 <_strtod_l+0x370>
1000a8b6:	9a14      	ldr	r2, [sp, #80]	@ 0x50
1000a8b8:	9e0e      	ldr	r6, [sp, #56]	@ 0x38
1000a8ba:	1ad5      	subs	r5, r2, r3
1000a8bc:	e779      	b.n	1000a7b2 <_strtod_l+0x722>
1000a8be:	4649      	mov	r1, r9
1000a8c0:	462a      	mov	r2, r5
1000a8c2:	4658      	mov	r0, fp
1000a8c4:	f001 ff3e 	bl	1000c744 <__lshift>
1000a8c8:	4681      	mov	r9, r0
1000a8ca:	2800      	cmp	r0, #0
1000a8cc:	f47f ae96 	bne.w	1000a5fc <_strtod_l+0x56c>
1000a8d0:	464f      	mov	r7, r9
1000a8d2:	991c      	ldr	r1, [sp, #112]	@ 0x70
1000a8d4:	e7d4      	b.n	1000a880 <_strtod_l+0x7f0>
1000a8d6:	4649      	mov	r1, r9
1000a8d8:	9a14      	ldr	r2, [sp, #80]	@ 0x50
1000a8da:	4658      	mov	r0, fp
1000a8dc:	f001 fed2 	bl	1000c684 <__pow5mult>
1000a8e0:	4681      	mov	r9, r0
1000a8e2:	2800      	cmp	r0, #0
1000a8e4:	f47f ae87 	bne.w	1000a5f6 <_strtod_l+0x566>
1000a8e8:	e7f2      	b.n	1000a8d0 <_strtod_l+0x840>
1000a8ea:	2200      	movs	r2, #0
1000a8ec:	961b      	str	r6, [sp, #108]	@ 0x6c
1000a8ee:	920e      	str	r2, [sp, #56]	@ 0x38
1000a8f0:	e5ed      	b.n	1000a4ce <_strtod_l+0x43e>
1000a8f2:	4a79      	ldr	r2, [pc, #484]	@ (1000aad8 <_strtod_l+0xa48>)
1000a8f4:	1ad2      	subs	r2, r2, r3
1000a8f6:	2301      	movs	r3, #1
1000a8f8:	fa03 f702 	lsl.w	r7, r3, r2
1000a8fc:	9312      	str	r3, [sp, #72]	@ 0x48
1000a8fe:	e65f      	b.n	1000a5c0 <_strtod_l+0x530>
1000a900:	ed9d 7b12 	vldr	d7, [sp, #72]	@ 0x48
1000a904:	ed8d 7b10 	vstr	d7, [sp, #64]	@ 0x40
1000a908:	e6cc      	b.n	1000a6a4 <_strtod_l+0x614>
1000a90a:	ed9f 7b6b 	vldr	d7, [pc, #428]	@ 1000aab8 <_strtod_l+0xa28>
1000a90e:	ed8d 7b10 	vstr	d7, [sp, #64]	@ 0x40
1000a912:	ed8d 7b12 	vstr	d7, [sp, #72]	@ 0x48
1000a916:	e6c5      	b.n	1000a6a4 <_strtod_l+0x614>
1000a918:	f1a6 7354 	sub.w	r3, r6, #55574528	@ 0x3500000
1000a91c:	4e6f      	ldr	r6, [pc, #444]	@ (1000aadc <_strtod_l+0xa4c>)
1000a91e:	9305      	str	r3, [sp, #20]
1000a920:	e9dd 4504 	ldrd	r4, r5, [sp, #16]
1000a924:	4620      	mov	r0, r4
1000a926:	4629      	mov	r1, r5
1000a928:	f002 f858 	bl	1000c9dc <__ulp>
1000a92c:	e9dd 2310 	ldrd	r2, r3, [sp, #64]	@ 0x40
1000a930:	f7fa f958 	bl	10004be4 <__wrap___aeabi_dmul>
1000a934:	462b      	mov	r3, r5
1000a936:	4622      	mov	r2, r4
1000a938:	f7fa f92c 	bl	10004b94 <__wrap___aeabi_dadd>
1000a93c:	4b68      	ldr	r3, [pc, #416]	@ (1000aae0 <_strtod_l+0xa50>)
1000a93e:	400e      	ands	r6, r1
1000a940:	429e      	cmp	r6, r3
1000a942:	e9cd 0104 	strd	r0, r1, [sp, #16]
1000a946:	f240 8100 	bls.w	1000ab4a <_strtod_l+0xaba>
1000a94a:	f103 7354 	add.w	r3, r3, #55574528	@ 0x3500000
1000a94e:	e9dd 010a 	ldrd	r0, r1, [sp, #40]	@ 0x28
1000a952:	4299      	cmp	r1, r3
1000a954:	d102      	bne.n	1000a95c <_strtod_l+0x8cc>
1000a956:	f1b0 3fff 	cmp.w	r0, #4294967295	@ 0xffffffff
1000a95a:	d0b9      	beq.n	1000a8d0 <_strtod_l+0x840>
1000a95c:	f04f 33ff 	mov.w	r3, #4294967295	@ 0xffffffff
1000a960:	4c60      	ldr	r4, [pc, #384]	@ (1000aae4 <_strtod_l+0xa54>)
1000a962:	e9cd 3404 	strd	r3, r4, [sp, #16]
1000a966:	e6e3      	b.n	1000a730 <_strtod_l+0x6a0>
1000a968:	2300      	movs	r3, #0
1000a96a:	930c      	str	r3, [sp, #48]	@ 0x30
1000a96c:	e596      	b.n	1000a49c <_strtod_l+0x40c>
1000a96e:	ed9f 7b54 	vldr	d7, [pc, #336]	@ 1000aac0 <_strtod_l+0xa30>
1000a972:	ed8d 7b10 	vstr	d7, [sp, #64]	@ 0x40
1000a976:	ed9f 7b50 	vldr	d7, [pc, #320]	@ 1000aab8 <_strtod_l+0xa28>
1000a97a:	ed8d 7b12 	vstr	d7, [sp, #72]	@ 0x48
1000a97e:	e691      	b.n	1000a6a4 <_strtod_l+0x614>
1000a980:	2201      	movs	r2, #1
1000a982:	4959      	ldr	r1, [pc, #356]	@ (1000aae8 <_strtod_l+0xa58>)
1000a984:	4640      	mov	r0, r8
1000a986:	f7ff faed 	bl	10009f64 <strncmp>
1000a98a:	4686      	mov	lr, r0
1000a98c:	2800      	cmp	r0, #0
1000a98e:	f43f ad13 	beq.w	1000a3b8 <_strtod_l+0x328>
1000a992:	f02a 0220 	bic.w	r2, sl, #32
1000a996:	4653      	mov	r3, sl
1000a998:	2a45      	cmp	r2, #69	@ 0x45
1000a99a:	f000 81b9 	beq.w	1000ad10 <_strtod_l+0xc80>
1000a99e:	9a09      	ldr	r2, [sp, #36]	@ 0x24
1000a9a0:	2a00      	cmp	r2, #0
1000a9a2:	f43f ad9e 	beq.w	1000a4e2 <_strtod_l+0x452>
1000a9a6:	e527      	b.n	1000a3f8 <_strtod_l+0x368>
1000a9a8:	9b0a      	ldr	r3, [sp, #40]	@ 0x28
1000a9aa:	3930      	subs	r1, #48	@ 0x30
1000a9ac:	f8dd 806c 	ldr.w	r8, [sp, #108]	@ 0x6c
1000a9b0:	2401      	movs	r4, #1
1000a9b2:	f103 0901 	add.w	r9, r3, #1
1000a9b6:	2300      	movs	r3, #0
1000a9b8:	4640      	mov	r0, r8
1000a9ba:	461f      	mov	r7, r3
1000a9bc:	18cd      	adds	r5, r1, r3
1000a9be:	2300      	movs	r3, #0
1000a9c0:	930a      	str	r3, [sp, #40]	@ 0x28
1000a9c2:	1c41      	adds	r1, r0, #1
1000a9c4:	911b      	str	r1, [sp, #108]	@ 0x6c
1000a9c6:	7843      	ldrb	r3, [r0, #1]
1000a9c8:	f1a3 0c30 	sub.w	ip, r3, #48	@ 0x30
1000a9cc:	f1bc 0f09 	cmp.w	ip, #9
1000a9d0:	f67f ad28 	bls.w	1000a424 <_strtod_l+0x394>
1000a9d4:	f023 0120 	bic.w	r1, r3, #32
1000a9d8:	f04f 0a01 	mov.w	sl, #1
1000a9dc:	2945      	cmp	r1, #69	@ 0x45
1000a9de:	f47f ad74 	bne.w	1000a4ca <_strtod_l+0x43a>
1000a9e2:	e408      	b.n	1000a1f6 <_strtod_l+0x166>
1000a9e4:	e9dd 8904 	ldrd	r8, r9, [sp, #16]
1000a9e8:	e50a      	b.n	1000a400 <_strtod_l+0x370>
1000a9ea:	e9dd 5612 	ldrd	r5, r6, [sp, #72]	@ 0x48
1000a9ee:	f3c4 0713 	ubfx	r7, r4, #0, #20
1000a9f2:	4628      	mov	r0, r5
1000a9f4:	4631      	mov	r1, r6
1000a9f6:	f7fa fb35 	bl	10005064 <__wrap___aeabi_d2lz>
1000a9fa:	f7fa fa2d 	bl	10004e58 <__wrap___aeabi_l2d>
1000a9fe:	4602      	mov	r2, r0
1000aa00:	460b      	mov	r3, r1
1000aa02:	4628      	mov	r0, r5
1000aa04:	4631      	mov	r1, r6
1000aa06:	f7fa f8d9 	bl	10004bbc <__wrap___aeabi_dsub>
1000aa0a:	9d04      	ldr	r5, [sp, #16]
1000aa0c:	9e0f      	ldr	r6, [sp, #60]	@ 0x3c
1000aa0e:	4604      	mov	r4, r0
1000aa10:	432e      	orrs	r6, r5
1000aa12:	460d      	mov	r5, r1
1000aa14:	4337      	orrs	r7, r6
1000aa16:	d16b      	bne.n	1000aaf0 <_strtod_l+0xa60>
1000aa18:	a32b      	add	r3, pc, #172	@ (adr r3, 1000aac8 <_strtod_l+0xa38>)
1000aa1a:	e9d3 2300 	ldrd	r2, r3, [r3]
1000aa1e:	f7fa f9cf 	bl	10004dc0 <__wrap___aeabi_dcmplt>
1000aa22:	2800      	cmp	r0, #0
1000aa24:	f43f ae84 	beq.w	1000a730 <_strtod_l+0x6a0>
1000aa28:	464f      	mov	r7, r9
1000aa2a:	e9dd 8904 	ldrd	r8, r9, [sp, #16]
1000aa2e:	991c      	ldr	r1, [sp, #112]	@ 0x70
1000aa30:	e72d      	b.n	1000a88e <_strtod_l+0x7fe>
1000aa32:	f1a3 0c30 	sub.w	ip, r3, #48	@ 0x30
1000aa36:	1c48      	adds	r0, r1, #1
1000aa38:	901b      	str	r0, [sp, #108]	@ 0x6c
1000aa3a:	784b      	ldrb	r3, [r1, #1]
1000aa3c:	f1a3 0230 	sub.w	r2, r3, #48	@ 0x30
1000aa40:	2a09      	cmp	r2, #9
1000aa42:	f200 80b7 	bhi.w	1000abb4 <_strtod_l+0xb24>
1000aa46:	3001      	adds	r0, #1
1000aa48:	eb0c 0c8c 	add.w	ip, ip, ip, lsl #2
1000aa4c:	901b      	str	r0, [sp, #108]	@ 0x6c
1000aa4e:	eb03 0c4c 	add.w	ip, r3, ip, lsl #1
1000aa52:	7803      	ldrb	r3, [r0, #0]
1000aa54:	f1ac 0c30 	sub.w	ip, ip, #48	@ 0x30
1000aa58:	f1a3 0230 	sub.w	r2, r3, #48	@ 0x30
1000aa5c:	2a09      	cmp	r2, #9
1000aa5e:	d9f2      	bls.n	1000aa46 <_strtod_l+0x9b6>
1000aa60:	1a40      	subs	r0, r0, r1
1000aa62:	2808      	cmp	r0, #8
1000aa64:	f340 80a6 	ble.w	1000abb4 <_strtod_l+0xb24>
1000aa68:	f644 621f 	movw	r2, #19999	@ 0x4e1f
1000aa6c:	920e      	str	r2, [sp, #56]	@ 0x38
1000aa6e:	9a0c      	ldr	r2, [sp, #48]	@ 0x30
1000aa70:	2a00      	cmp	r2, #0
1000aa72:	f43f ad2c 	beq.w	1000a4ce <_strtod_l+0x43e>
1000aa76:	9a0e      	ldr	r2, [sp, #56]	@ 0x38
1000aa78:	4252      	negs	r2, r2
1000aa7a:	920e      	str	r2, [sp, #56]	@ 0x38
1000aa7c:	e527      	b.n	1000a4ce <_strtod_l+0x43e>
1000aa7e:	9302      	str	r3, [sp, #8]
1000aa80:	a91b      	add	r1, sp, #108	@ 0x6c
1000aa82:	9b08      	ldr	r3, [sp, #32]
1000aa84:	4658      	mov	r0, fp
1000aa86:	4a19      	ldr	r2, [pc, #100]	@ (1000aaec <_strtod_l+0xa5c>)
1000aa88:	9301      	str	r3, [sp, #4]
1000aa8a:	ab1c      	add	r3, sp, #112	@ 0x70
1000aa8c:	9300      	str	r3, [sp, #0]
1000aa8e:	ab1d      	add	r3, sp, #116	@ 0x74
1000aa90:	f000 ffd2 	bl	1000ba38 <__gethex>
1000aa94:	f010 050f 	ands.w	r5, r0, #15
1000aa98:	4604      	mov	r4, r0
1000aa9a:	f43f acad 	beq.w	1000a3f8 <_strtod_l+0x368>
1000aa9e:	2d06      	cmp	r5, #6
1000aaa0:	f040 80ee 	bne.w	1000ac80 <_strtod_l+0xbf0>
1000aaa4:	f108 0301 	add.w	r3, r8, #1
1000aaa8:	2200      	movs	r2, #0
1000aaaa:	f04f 0800 	mov.w	r8, #0
1000aaae:	f04f 0900 	mov.w	r9, #0
1000aab2:	9208      	str	r2, [sp, #32]
1000aab4:	931b      	str	r3, [sp, #108]	@ 0x6c
1000aab6:	e4a3      	b.n	1000a400 <_strtod_l+0x370>
1000aab8:	00000000 	.word	0x00000000
1000aabc:	3ff00000 	.word	0x3ff00000
1000aac0:	00000000 	.word	0x00000000
1000aac4:	bff00000 	.word	0xbff00000
1000aac8:	94a03595 	.word	0x94a03595
1000aacc:	3fcfffff 	.word	0x3fcfffff
1000aad0:	10011968 	.word	0x10011968
1000aad4:	3fe00000 	.word	0x3fe00000
1000aad8:	fffffbe2 	.word	0xfffffbe2
1000aadc:	7ff00000 	.word	0x7ff00000
1000aae0:	7c9fffff 	.word	0x7c9fffff
1000aae4:	7fefffff 	.word	0x7fefffff
1000aae8:	1000d298 	.word	0x1000d298
1000aaec:	1000e320 	.word	0x1000e320
1000aaf0:	a3ce      	add	r3, pc, #824	@ (adr r3, 1000ae2c <_strtod_l+0xd9c>)
1000aaf2:	e9d3 2300 	ldrd	r2, r3, [r3]
1000aaf6:	f7fa f963 	bl	10004dc0 <__wrap___aeabi_dcmplt>
1000aafa:	2800      	cmp	r0, #0
1000aafc:	d194      	bne.n	1000aa28 <_strtod_l+0x998>
1000aafe:	4620      	mov	r0, r4
1000ab00:	4629      	mov	r1, r5
1000ab02:	a3cc      	add	r3, pc, #816	@ (adr r3, 1000ae34 <_strtod_l+0xda4>)
1000ab04:	e9d3 2300 	ldrd	r2, r3, [r3]
1000ab08:	f7fa f996 	bl	10004e38 <__wrap___aeabi_dcmpgt>
1000ab0c:	2800      	cmp	r0, #0
1000ab0e:	f43f ae0f 	beq.w	1000a730 <_strtod_l+0x6a0>
1000ab12:	e789      	b.n	1000aa28 <_strtod_l+0x998>
1000ab14:	9b04      	ldr	r3, [sp, #16]
1000ab16:	2b01      	cmp	r3, #1
1000ab18:	f47f af29 	bne.w	1000a96e <_strtod_l+0x8de>
1000ab1c:	2e00      	cmp	r6, #0
1000ab1e:	f47f af26 	bne.w	1000a96e <_strtod_l+0x8de>
1000ab22:	464f      	mov	r7, r9
1000ab24:	2322      	movs	r3, #34	@ 0x22
1000ab26:	991c      	ldr	r1, [sp, #112]	@ 0x70
1000ab28:	f04f 0800 	mov.w	r8, #0
1000ab2c:	f04f 0900 	mov.w	r9, #0
1000ab30:	f8cb 3000 	str.w	r3, [fp]
1000ab34:	e6ab      	b.n	1000a88e <_strtod_l+0x7fe>
1000ab36:	f04f 0900 	mov.w	r9, #0
1000ab3a:	9b0a      	ldr	r3, [sp, #40]	@ 0x28
1000ab3c:	f04f 0a01 	mov.w	sl, #1
1000ab40:	464c      	mov	r4, r9
1000ab42:	464f      	mov	r7, r9
1000ab44:	464d      	mov	r5, r9
1000ab46:	f7ff bb58 	b.w	1000a1fa <_strtod_l+0x16a>
1000ab4a:	f101 7454 	add.w	r4, r1, #55574528	@ 0x3500000
1000ab4e:	9405      	str	r4, [sp, #20]
1000ab50:	e5e6      	b.n	1000a720 <_strtod_l+0x690>
1000ab52:	ed9d 7b12 	vldr	d7, [sp, #72]	@ 0x48
1000ab56:	ed8d 7b18 	vstr	d7, [sp, #96]	@ 0x60
1000ab5a:	e5cb      	b.n	1000a6f4 <_strtod_l+0x664>
1000ab5c:	49ac      	ldr	r1, [pc, #688]	@ (1000ae10 <_strtod_l+0xd80>)
1000ab5e:	eb01 01ca 	add.w	r1, r1, sl, lsl #3
1000ab62:	e9dd 2304 	ldrd	r2, r3, [sp, #16]
1000ab66:	e9d1 0100 	ldrd	r0, r1, [r1]
1000ab6a:	f7fa f83b 	bl	10004be4 <__wrap___aeabi_dmul>
1000ab6e:	e9cd 0104 	strd	r0, r1, [sp, #16]
1000ab72:	2f00      	cmp	r7, #0
1000ab74:	f43f acf2 	beq.w	1000a55c <_strtod_l+0x4cc>
1000ab78:	f7ff bbcd 	b.w	1000a316 <_strtod_l+0x286>
1000ab7c:	2b6e      	cmp	r3, #110	@ 0x6e
1000ab7e:	f43f acbb 	beq.w	1000a4f8 <_strtod_l+0x468>
1000ab82:	f7ff bb3e 	b.w	1000a202 <_strtod_l+0x172>
1000ab86:	49a3      	ldr	r1, [pc, #652]	@ (1000ae14 <_strtod_l+0xd84>)
1000ab88:	a81b      	add	r0, sp, #108	@ 0x6c
1000ab8a:	f001 fa59 	bl	1000c040 <__match>
1000ab8e:	2800      	cmp	r0, #0
1000ab90:	f43f ab37 	beq.w	1000a202 <_strtod_l+0x172>
1000ab94:	9b1b      	ldr	r3, [sp, #108]	@ 0x6c
1000ab96:	a81b      	add	r0, sp, #108	@ 0x6c
1000ab98:	499f      	ldr	r1, [pc, #636]	@ (1000ae18 <_strtod_l+0xd88>)
1000ab9a:	3b01      	subs	r3, #1
1000ab9c:	931b      	str	r3, [sp, #108]	@ 0x6c
1000ab9e:	f001 fa4f 	bl	1000c040 <__match>
1000aba2:	b910      	cbnz	r0, 1000abaa <_strtod_l+0xb1a>
1000aba4:	9b1b      	ldr	r3, [sp, #108]	@ 0x6c
1000aba6:	3301      	adds	r3, #1
1000aba8:	931b      	str	r3, [sp, #108]	@ 0x6c
1000abaa:	f04f 0800 	mov.w	r8, #0
1000abae:	f8df 926c 	ldr.w	r9, [pc, #620]	@ 1000ae1c <_strtod_l+0xd8c>
1000abb2:	e425      	b.n	1000a400 <_strtod_l+0x370>
1000abb4:	f644 611f 	movw	r1, #19999	@ 0x4e1f
1000abb8:	4662      	mov	r2, ip
1000abba:	458c      	cmp	ip, r1
1000abbc:	bfa8      	it	ge
1000abbe:	460a      	movge	r2, r1
1000abc0:	920e      	str	r2, [sp, #56]	@ 0x38
1000abc2:	e754      	b.n	1000aa6e <_strtod_l+0x9de>
1000abc4:	f1ca 0a00 	rsb	sl, sl, #0
1000abc8:	ea4f 172a 	mov.w	r7, sl, asr #4
1000abcc:	f01a 0a0f 	ands.w	sl, sl, #15
1000abd0:	f040 80a9 	bne.w	1000ad26 <_strtod_l+0xc96>
1000abd4:	2f1f      	cmp	r7, #31
1000abd6:	dc34      	bgt.n	1000ac42 <_strtod_l+0xbb2>
1000abd8:	f017 0110 	ands.w	r1, r7, #16
1000abdc:	f8df a25c 	ldr.w	sl, [pc, #604]	@ 1000ae3c <_strtod_l+0xdac>
1000abe0:	bf18      	it	ne
1000abe2:	216a      	movne	r1, #106	@ 0x6a
1000abe4:	e9dd 2304 	ldrd	r2, r3, [sp, #16]
1000abe8:	910d      	str	r1, [sp, #52]	@ 0x34
1000abea:	f017 0f01 	tst.w	r7, #1
1000abee:	4610      	mov	r0, r2
1000abf0:	4619      	mov	r1, r3
1000abf2:	d041      	beq.n	1000ac78 <_strtod_l+0xbe8>
1000abf4:	f10a 0a08 	add.w	sl, sl, #8
1000abf8:	e95a 2302 	ldrd	r2, r3, [sl, #-8]
1000abfc:	f7f9 fff2 	bl	10004be4 <__wrap___aeabi_dmul>
1000ac00:	4602      	mov	r2, r0
1000ac02:	107f      	asrs	r7, r7, #1
1000ac04:	460b      	mov	r3, r1
1000ac06:	d1f0      	bne.n	1000abea <_strtod_l+0xb5a>
1000ac08:	9b0d      	ldr	r3, [sp, #52]	@ 0x34
1000ac0a:	e9cd 0104 	strd	r0, r1, [sp, #16]
1000ac0e:	b17b      	cbz	r3, 1000ac30 <_strtod_l+0xba0>
1000ac10:	f3c1 520a 	ubfx	r2, r1, #20, #11
1000ac14:	f1c2 036b 	rsb	r3, r2, #107	@ 0x6b
1000ac18:	2b00      	cmp	r3, #0
1000ac1a:	dd09      	ble.n	1000ac30 <_strtod_l+0xba0>
1000ac1c:	2b1f      	cmp	r3, #31
1000ac1e:	f340 81ac 	ble.w	1000af7a <_strtod_l+0xeea>
1000ac22:	2b34      	cmp	r3, #52	@ 0x34
1000ac24:	9704      	str	r7, [sp, #16]
1000ac26:	f340 81f9 	ble.w	1000b01c <_strtod_l+0xf8c>
1000ac2a:	f04f 735c 	mov.w	r3, #57671680	@ 0x3700000
1000ac2e:	9305      	str	r3, [sp, #20]
1000ac30:	2200      	movs	r2, #0
1000ac32:	2300      	movs	r3, #0
1000ac34:	e9dd 0104 	ldrd	r0, r1, [sp, #16]
1000ac38:	f7fa f8b0 	bl	10004d9c <__wrap___aeabi_dcmpeq>
1000ac3c:	2800      	cmp	r0, #0
1000ac3e:	f43f ac8f 	beq.w	1000a560 <_strtod_l+0x4d0>
1000ac42:	2322      	movs	r3, #34	@ 0x22
1000ac44:	f04f 0800 	mov.w	r8, #0
1000ac48:	f04f 0900 	mov.w	r9, #0
1000ac4c:	f8cb 3000 	str.w	r3, [fp]
1000ac50:	f7ff bbd6 	b.w	1000a400 <_strtod_l+0x370>
1000ac54:	980c      	ldr	r0, [sp, #48]	@ 0x30
1000ac56:	496e      	ldr	r1, [pc, #440]	@ (1000ae10 <_strtod_l+0xd80>)
1000ac58:	eb01 01c0 	add.w	r1, r1, r0, lsl #3
1000ac5c:	e9dd 2304 	ldrd	r2, r3, [sp, #16]
1000ac60:	e9d1 0100 	ldrd	r0, r1, [r1]
1000ac64:	f7f9 ffbe 	bl	10004be4 <__wrap___aeabi_dmul>
1000ac68:	4680      	mov	r8, r0
1000ac6a:	4689      	mov	r9, r1
1000ac6c:	f7ff bbc8 	b.w	1000a400 <_strtod_l+0x370>
1000ac70:	2322      	movs	r3, #34	@ 0x22
1000ac72:	f8cb 3000 	str.w	r3, [fp]
1000ac76:	e798      	b.n	1000abaa <_strtod_l+0xb1a>
1000ac78:	107f      	asrs	r7, r7, #1
1000ac7a:	f10a 0a08 	add.w	sl, sl, #8
1000ac7e:	e7b4      	b.n	1000abea <_strtod_l+0xb5a>
1000ac80:	9a1c      	ldr	r2, [sp, #112]	@ 0x70
1000ac82:	b13a      	cbz	r2, 1000ac94 <_strtod_l+0xc04>
1000ac84:	2135      	movs	r1, #53	@ 0x35
1000ac86:	a81e      	add	r0, sp, #120	@ 0x78
1000ac88:	f001 ffba 	bl	1000cc00 <__copybits>
1000ac8c:	4658      	mov	r0, fp
1000ac8e:	991c      	ldr	r1, [sp, #112]	@ 0x70
1000ac90:	f001 faf8 	bl	1000c284 <_Bfree>
1000ac94:	3d01      	subs	r5, #1
1000ac96:	2d04      	cmp	r5, #4
1000ac98:	f200 8216 	bhi.w	1000b0c8 <_strtod_l+0x1038>
1000ac9c:	e8df f005 	tbb	[pc, r5]
1000aca0:	202b2e03 	.word	0x202b2e03
1000aca4:	03          	.byte	0x03
1000aca5:	00          	.byte	0x00
1000aca6:	9b1e      	ldr	r3, [sp, #120]	@ 0x78
1000aca8:	9304      	str	r3, [sp, #16]
1000acaa:	9b1d      	ldr	r3, [sp, #116]	@ 0x74
1000acac:	f203 4233 	addw	r2, r3, #1075	@ 0x433
1000acb0:	9b1f      	ldr	r3, [sp, #124]	@ 0x7c
1000acb2:	f423 1380 	bic.w	r3, r3, #1048576	@ 0x100000
1000acb6:	ea43 5302 	orr.w	r3, r3, r2, lsl #20
1000acba:	9305      	str	r3, [sp, #20]
1000acbc:	05e2      	lsls	r2, r4, #23
1000acbe:	d502      	bpl.n	1000acc6 <_strtod_l+0xc36>
1000acc0:	f043 4300 	orr.w	r3, r3, #2147483648	@ 0x80000000
1000acc4:	9305      	str	r3, [sp, #20]
1000acc6:	4a55      	ldr	r2, [pc, #340]	@ (1000ae1c <_strtod_l+0xd8c>)
1000acc8:	401a      	ands	r2, r3
1000acca:	e9dd 8904 	ldrd	r8, r9, [sp, #16]
1000acce:	2a00      	cmp	r2, #0
1000acd0:	f47f ab96 	bne.w	1000a400 <_strtod_l+0x370>
1000acd4:	f7fd f820 	bl	10007d18 <__errno>
1000acd8:	2322      	movs	r3, #34	@ 0x22
1000acda:	6003      	str	r3, [r0, #0]
1000acdc:	f7ff bb90 	b.w	1000a400 <_strtod_l+0x370>
1000ace0:	f04f 32ff 	mov.w	r2, #4294967295	@ 0xffffffff
1000ace4:	f06f 4300 	mvn.w	r3, #2147483648	@ 0x80000000
1000ace8:	e9cd 2304 	strd	r2, r3, [sp, #16]
1000acec:	05e3      	lsls	r3, r4, #23
1000acee:	f57f ae79 	bpl.w	1000a9e4 <_strtod_l+0x954>
1000acf2:	9b05      	ldr	r3, [sp, #20]
1000acf4:	e7e4      	b.n	1000acc0 <_strtod_l+0xc30>
1000acf6:	4b49      	ldr	r3, [pc, #292]	@ (1000ae1c <_strtod_l+0xd8c>)
1000acf8:	9305      	str	r3, [sp, #20]
1000acfa:	e7f7      	b.n	1000acec <_strtod_l+0xc5c>
1000acfc:	e9dd 121e 	ldrd	r1, r2, [sp, #120]	@ 0x78
1000ad00:	9b1f      	ldr	r3, [sp, #124]	@ 0x7c
1000ad02:	e9cd 1204 	strd	r1, r2, [sp, #16]
1000ad06:	e7d9      	b.n	1000acbc <_strtod_l+0xc2c>
1000ad08:	f8cd e028 	str.w	lr, [sp, #40]	@ 0x28
1000ad0c:	f7ff bb65 	b.w	1000a3da <_strtod_l+0x34a>
1000ad10:	f04f 0e00 	mov.w	lr, #0
1000ad14:	4677      	mov	r7, lr
1000ad16:	4675      	mov	r5, lr
1000ad18:	46f1      	mov	r9, lr
1000ad1a:	4674      	mov	r4, lr
1000ad1c:	46f2      	mov	sl, lr
1000ad1e:	f8cd e028 	str.w	lr, [sp, #40]	@ 0x28
1000ad22:	f7ff ba68 	b.w	1000a1f6 <_strtod_l+0x166>
1000ad26:	4b3a      	ldr	r3, [pc, #232]	@ (1000ae10 <_strtod_l+0xd80>)
1000ad28:	eb03 03ca 	add.w	r3, r3, sl, lsl #3
1000ad2c:	e9dd 0104 	ldrd	r0, r1, [sp, #16]
1000ad30:	e9d3 2300 	ldrd	r2, r3, [r3]
1000ad34:	f7f9 ff7c 	bl	10004c30 <__wrap___aeabi_ddiv>
1000ad38:	e9cd 0104 	strd	r0, r1, [sp, #16]
1000ad3c:	2f00      	cmp	r7, #0
1000ad3e:	f43f ac0d 	beq.w	1000a55c <_strtod_l+0x4cc>
1000ad42:	e747      	b.n	1000abd4 <_strtod_l+0xb44>
1000ad44:	2300      	movs	r3, #0
1000ad46:	930a      	str	r3, [sp, #40]	@ 0x28
1000ad48:	e63b      	b.n	1000a9c2 <_strtod_l+0x932>
1000ad4a:	ed9f 7b2d 	vldr	d7, [pc, #180]	@ 1000ae00 <_strtod_l+0xd70>
1000ad4e:	ed8d 7b10 	vstr	d7, [sp, #64]	@ 0x40
1000ad52:	ed9f 7b2d 	vldr	d7, [pc, #180]	@ 1000ae08 <_strtod_l+0xd78>
1000ad56:	ed8d 7b12 	vstr	d7, [sp, #72]	@ 0x48
1000ad5a:	e4a3      	b.n	1000a6a4 <_strtod_l+0x614>
1000ad5c:	9c0f      	ldr	r4, [sp, #60]	@ 0x3c
1000ad5e:	46be      	mov	lr, r7
1000ad60:	4633      	mov	r3, r6
1000ad62:	464f      	mov	r7, r9
1000ad64:	492e      	ldr	r1, [pc, #184]	@ (1000ae20 <_strtod_l+0xd90>)
1000ad66:	f3c6 0213 	ubfx	r2, r6, #0, #20
1000ad6a:	e9dd 890a 	ldrd	r8, r9, [sp, #40]	@ 0x28
1000ad6e:	2c00      	cmp	r4, #0
1000ad70:	d07a      	beq.n	1000ae68 <_strtod_l+0xdd8>
1000ad72:	428a      	cmp	r2, r1
1000ad74:	f000 810f 	beq.w	1000af96 <_strtod_l+0xf06>
1000ad78:	f1be 0f00 	cmp.w	lr, #0
1000ad7c:	f000 8105 	beq.w	1000af8a <_strtod_l+0xefa>
1000ad80:	ea1e 0f06 	tst.w	lr, r6
1000ad84:	d033      	beq.n	1000adee <_strtod_l+0xd5e>
1000ad86:	4640      	mov	r0, r8
1000ad88:	4649      	mov	r1, r9
1000ad8a:	9304      	str	r3, [sp, #16]
1000ad8c:	f001 fe26 	bl	1000c9dc <__ulp>
1000ad90:	9b0d      	ldr	r3, [sp, #52]	@ 0x34
1000ad92:	2b00      	cmp	r3, #0
1000ad94:	f000 8118 	beq.w	1000afc8 <_strtod_l+0xf38>
1000ad98:	9b04      	ldr	r3, [sp, #16]
1000ad9a:	f3c3 530a 	ubfx	r3, r3, #20, #11
1000ad9e:	f1c3 066b 	rsb	r6, r3, #107	@ 0x6b
1000ada2:	2e00      	cmp	r6, #0
1000ada4:	f340 818a 	ble.w	1000b0bc <_strtod_l+0x102c>
1000ada8:	4c1e      	ldr	r4, [pc, #120]	@ (1000ae24 <_strtod_l+0xd94>)
1000adaa:	2200      	movs	r2, #0
1000adac:	eb04 5306 	add.w	r3, r4, r6, lsl #20
1000adb0:	f7f9 ff18 	bl	10004be4 <__wrap___aeabi_dmul>
1000adb4:	4602      	mov	r2, r0
1000adb6:	460b      	mov	r3, r1
1000adb8:	4640      	mov	r0, r8
1000adba:	4649      	mov	r1, r9
1000adbc:	f7f9 feea 	bl	10004b94 <__wrap___aeabi_dadd>
1000adc0:	4680      	mov	r8, r0
1000adc2:	4689      	mov	r9, r1
1000adc4:	4640      	mov	r0, r8
1000adc6:	4649      	mov	r1, r9
1000adc8:	4b17      	ldr	r3, [pc, #92]	@ (1000ae28 <_strtod_l+0xd98>)
1000adca:	2200      	movs	r2, #0
1000adcc:	f7f9 ff0a 	bl	10004be4 <__wrap___aeabi_dmul>
1000add0:	4b12      	ldr	r3, [pc, #72]	@ (1000ae1c <_strtod_l+0xd8c>)
1000add2:	4680      	mov	r8, r0
1000add4:	4689      	mov	r9, r1
1000add6:	400b      	ands	r3, r1
1000add8:	2b00      	cmp	r3, #0
1000adda:	f47f ae28 	bne.w	1000aa2e <_strtod_l+0x99e>
1000adde:	2322      	movs	r3, #34	@ 0x22
1000ade0:	f8cb 3000 	str.w	r3, [fp]
1000ade4:	e623      	b.n	1000aa2e <_strtod_l+0x99e>
1000ade6:	ea1e 0f03 	tst.w	lr, r3
1000adea:	f040 8097 	bne.w	1000af1c <_strtod_l+0xe8c>
1000adee:	9b0d      	ldr	r3, [sp, #52]	@ 0x34
1000adf0:	2b00      	cmp	r3, #0
1000adf2:	d1e7      	bne.n	1000adc4 <_strtod_l+0xd34>
1000adf4:	e61b      	b.n	1000aa2e <_strtod_l+0x99e>
1000adf6:	f102 7354 	add.w	r3, r2, #55574528	@ 0x3500000
1000adfa:	9305      	str	r3, [sp, #20]
1000adfc:	f7ff bbae 	b.w	1000a55c <_strtod_l+0x4cc>
1000ae00:	00000000 	.word	0x00000000
1000ae04:	bfe00000 	.word	0xbfe00000
1000ae08:	00000000 	.word	0x00000000
1000ae0c:	3fe00000 	.word	0x3fe00000
1000ae10:	10011968 	.word	0x10011968
1000ae14:	1000d2e0 	.word	0x1000d2e0
1000ae18:	1000d2e4 	.word	0x1000d2e4
1000ae1c:	7ff00000 	.word	0x7ff00000
1000ae20:	000fffff 	.word	0x000fffff
1000ae24:	3ff00000 	.word	0x3ff00000
1000ae28:	39500000 	.word	0x39500000
1000ae2c:	94a03595 	.word	0x94a03595
1000ae30:	3fdfffff 	.word	0x3fdfffff
1000ae34:	35afe535 	.word	0x35afe535
1000ae38:	3fe00000 	.word	0x3fe00000
1000ae3c:	1000e338 	.word	0x1000e338
1000ae40:	a81b      	add	r0, sp, #108	@ 0x6c
1000ae42:	aa1e      	add	r2, sp, #120	@ 0x78
1000ae44:	49a7      	ldr	r1, [pc, #668]	@ (1000b0e4 <_strtod_l+0x1054>)
1000ae46:	f001 f915 	bl	1000c074 <__hexnan>
1000ae4a:	2805      	cmp	r0, #5
1000ae4c:	f47f ab60 	bne.w	1000a510 <_strtod_l+0x480>
1000ae50:	9b1f      	ldr	r3, [sp, #124]	@ 0x7c
1000ae52:	f043 43ff 	orr.w	r3, r3, #2139095040	@ 0x7f800000
1000ae56:	f443 03e0 	orr.w	r3, r3, #7340032	@ 0x700000
1000ae5a:	9305      	str	r3, [sp, #20]
1000ae5c:	9b1e      	ldr	r3, [sp, #120]	@ 0x78
1000ae5e:	9304      	str	r3, [sp, #16]
1000ae60:	e9dd 8904 	ldrd	r8, r9, [sp, #16]
1000ae64:	f7ff bacc 	b.w	1000a400 <_strtod_l+0x370>
1000ae68:	2a00      	cmp	r2, #0
1000ae6a:	d14e      	bne.n	1000af0a <_strtod_l+0xe7a>
1000ae6c:	e9dd 0104 	ldrd	r0, r1, [sp, #16]
1000ae70:	4602      	mov	r2, r0
1000ae72:	2800      	cmp	r0, #0
1000ae74:	d178      	bne.n	1000af68 <_strtod_l+0xed8>
1000ae76:	9a0d      	ldr	r2, [sp, #52]	@ 0x34
1000ae78:	2a00      	cmp	r2, #0
1000ae7a:	f000 80af 	beq.w	1000afdc <_strtod_l+0xf4c>
1000ae7e:	4c9a      	ldr	r4, [pc, #616]	@ (1000b0e8 <_strtod_l+0x1058>)
1000ae80:	4034      	ands	r4, r6
1000ae82:	f1b4 6fd6 	cmp.w	r4, #112197632	@ 0x6b00000
1000ae86:	d82d      	bhi.n	1000aee4 <_strtod_l+0xe54>
1000ae88:	f1b4 7f5c 	cmp.w	r4, #57671680	@ 0x3700000
1000ae8c:	d89a      	bhi.n	1000adc4 <_strtod_l+0xd34>
1000ae8e:	e649      	b.n	1000ab24 <_strtod_l+0xa94>
1000ae90:	9b0f      	ldr	r3, [sp, #60]	@ 0x3c
1000ae92:	464f      	mov	r7, r9
1000ae94:	e9dd 0104 	ldrd	r0, r1, [sp, #16]
1000ae98:	e9dd 890a 	ldrd	r8, r9, [sp, #40]	@ 0x28
1000ae9c:	4303      	orrs	r3, r0
1000ae9e:	d1a6      	bne.n	1000adee <_strtod_l+0xd5e>
1000aea0:	f3c1 0213 	ubfx	r2, r1, #0, #20
1000aea4:	460b      	mov	r3, r1
1000aea6:	2a00      	cmp	r2, #0
1000aea8:	d1a1      	bne.n	1000adee <_strtod_l+0xd5e>
1000aeaa:	f021 4400 	bic.w	r4, r1, #2147483648	@ 0x80000000
1000aeae:	0d24      	lsrs	r4, r4, #20
1000aeb0:	0524      	lsls	r4, r4, #20
1000aeb2:	f1b4 6fd6 	cmp.w	r4, #112197632	@ 0x6b00000
1000aeb6:	d99a      	bls.n	1000adee <_strtod_l+0xd5e>
1000aeb8:	9909      	ldr	r1, [sp, #36]	@ 0x24
1000aeba:	694a      	ldr	r2, [r1, #20]
1000aebc:	b912      	cbnz	r2, 1000aec4 <_strtod_l+0xe34>
1000aebe:	690a      	ldr	r2, [r1, #16]
1000aec0:	2a01      	cmp	r2, #1
1000aec2:	dd94      	ble.n	1000adee <_strtod_l+0xd5e>
1000aec4:	9909      	ldr	r1, [sp, #36]	@ 0x24
1000aec6:	2201      	movs	r2, #1
1000aec8:	4658      	mov	r0, fp
1000aeca:	930a      	str	r3, [sp, #40]	@ 0x28
1000aecc:	f001 fc3a 	bl	1000c744 <__lshift>
1000aed0:	4651      	mov	r1, sl
1000aed2:	9009      	str	r0, [sp, #36]	@ 0x24
1000aed4:	f001 fca8 	bl	1000c828 <__mcmp>
1000aed8:	2800      	cmp	r0, #0
1000aeda:	dd88      	ble.n	1000adee <_strtod_l+0xd5e>
1000aedc:	9a0d      	ldr	r2, [sp, #52]	@ 0x34
1000aede:	9b0a      	ldr	r3, [sp, #40]	@ 0x28
1000aee0:	2a00      	cmp	r2, #0
1000aee2:	d07b      	beq.n	1000afdc <_strtod_l+0xf4c>
1000aee4:	f5a4 1480 	sub.w	r4, r4, #1048576	@ 0x100000
1000aee8:	ea6f 5314 	mvn.w	r3, r4, lsr #20
1000aeec:	ea6f 5303 	mvn.w	r3, r3, lsl #20
1000aef0:	9305      	str	r3, [sp, #20]
1000aef2:	f04f 33ff 	mov.w	r3, #4294967295	@ 0xffffffff
1000aef6:	9304      	str	r3, [sp, #16]
1000aef8:	e9dd 8904 	ldrd	r8, r9, [sp, #16]
1000aefc:	e762      	b.n	1000adc4 <_strtod_l+0xd34>
1000aefe:	2300      	movs	r3, #0
1000af00:	f8df e1f0 	ldr.w	lr, [pc, #496]	@ 1000b0f4 <_strtod_l+0x1064>
1000af04:	4619      	mov	r1, r3
1000af06:	f7ff ba37 	b.w	1000a378 <_strtod_l+0x2e8>
1000af0a:	f1be 0f00 	cmp.w	lr, #0
1000af0e:	f47f af6a 	bne.w	1000ade6 <_strtod_l+0xd56>
1000af12:	9a12      	ldr	r2, [sp, #72]	@ 0x48
1000af14:	9904      	ldr	r1, [sp, #16]
1000af16:	420a      	tst	r2, r1
1000af18:	f43f af69 	beq.w	1000adee <_strtod_l+0xd5e>
1000af1c:	4640      	mov	r0, r8
1000af1e:	4649      	mov	r1, r9
1000af20:	9304      	str	r3, [sp, #16]
1000af22:	f001 fd5b 	bl	1000c9dc <__ulp>
1000af26:	9b0d      	ldr	r3, [sp, #52]	@ 0x34
1000af28:	2b00      	cmp	r3, #0
1000af2a:	d067      	beq.n	1000affc <_strtod_l+0xf6c>
1000af2c:	9b04      	ldr	r3, [sp, #16]
1000af2e:	f3c3 530a 	ubfx	r3, r3, #20, #11
1000af32:	f1c3 066b 	rsb	r6, r3, #107	@ 0x6b
1000af36:	2e00      	cmp	r6, #0
1000af38:	f340 80c3 	ble.w	1000b0c2 <_strtod_l+0x1032>
1000af3c:	4c6b      	ldr	r4, [pc, #428]	@ (1000b0ec <_strtod_l+0x105c>)
1000af3e:	2200      	movs	r2, #0
1000af40:	eb04 5306 	add.w	r3, r4, r6, lsl #20
1000af44:	f7f9 fe4e 	bl	10004be4 <__wrap___aeabi_dmul>
1000af48:	4602      	mov	r2, r0
1000af4a:	460b      	mov	r3, r1
1000af4c:	4640      	mov	r0, r8
1000af4e:	4649      	mov	r1, r9
1000af50:	f7f9 fe34 	bl	10004bbc <__wrap___aeabi_dsub>
1000af54:	2200      	movs	r2, #0
1000af56:	2300      	movs	r3, #0
1000af58:	4680      	mov	r8, r0
1000af5a:	4689      	mov	r9, r1
1000af5c:	f7f9 ff1e 	bl	10004d9c <__wrap___aeabi_dcmpeq>
1000af60:	2800      	cmp	r0, #0
1000af62:	f43f af2f 	beq.w	1000adc4 <_strtod_l+0xd34>
1000af66:	e5dd      	b.n	1000ab24 <_strtod_l+0xa94>
1000af68:	f1be 0f00 	cmp.w	lr, #0
1000af6c:	f47f af3b 	bne.w	1000ade6 <_strtod_l+0xd56>
1000af70:	9912      	ldr	r1, [sp, #72]	@ 0x48
1000af72:	420a      	tst	r2, r1
1000af74:	f43f af3b 	beq.w	1000adee <_strtod_l+0xd5e>
1000af78:	e7d0      	b.n	1000af1c <_strtod_l+0xe8c>
1000af7a:	f04f 32ff 	mov.w	r2, #4294967295	@ 0xffffffff
1000af7e:	fa02 f303 	lsl.w	r3, r2, r3
1000af82:	9a04      	ldr	r2, [sp, #16]
1000af84:	401a      	ands	r2, r3
1000af86:	9204      	str	r2, [sp, #16]
1000af88:	e652      	b.n	1000ac30 <_strtod_l+0xba0>
1000af8a:	9a12      	ldr	r2, [sp, #72]	@ 0x48
1000af8c:	9904      	ldr	r1, [sp, #16]
1000af8e:	420a      	tst	r2, r1
1000af90:	f43f af2d 	beq.w	1000adee <_strtod_l+0xd5e>
1000af94:	e6f7      	b.n	1000ad86 <_strtod_l+0xcf6>
1000af96:	9a0d      	ldr	r2, [sp, #52]	@ 0x34
1000af98:	9d04      	ldr	r5, [sp, #16]
1000af9a:	2a00      	cmp	r2, #0
1000af9c:	d055      	beq.n	1000b04a <_strtod_l+0xfba>
1000af9e:	4c52      	ldr	r4, [pc, #328]	@ (1000b0e8 <_strtod_l+0x1058>)
1000afa0:	4034      	ands	r4, r6
1000afa2:	f1b4 6fd4 	cmp.w	r4, #111149056	@ 0x6a00000
1000afa6:	d841      	bhi.n	1000b02c <_strtod_l+0xf9c>
1000afa8:	0d21      	lsrs	r1, r4, #20
1000afaa:	f04f 32ff 	mov.w	r2, #4294967295	@ 0xffffffff
1000afae:	f1c1 016b 	rsb	r1, r1, #107	@ 0x6b
1000afb2:	408a      	lsls	r2, r1
1000afb4:	4295      	cmp	r5, r2
1000afb6:	d053      	beq.n	1000b060 <_strtod_l+0xfd0>
1000afb8:	f1be 0f00 	cmp.w	lr, #0
1000afbc:	d05c      	beq.n	1000b078 <_strtod_l+0xfe8>
1000afbe:	ea1e 0f03 	tst.w	lr, r3
1000afc2:	f43f aeff 	beq.w	1000adc4 <_strtod_l+0xd34>
1000afc6:	e6de      	b.n	1000ad86 <_strtod_l+0xcf6>
1000afc8:	4602      	mov	r2, r0
1000afca:	460b      	mov	r3, r1
1000afcc:	4640      	mov	r0, r8
1000afce:	4649      	mov	r1, r9
1000afd0:	f7f9 fde0 	bl	10004b94 <__wrap___aeabi_dadd>
1000afd4:	4689      	mov	r9, r1
1000afd6:	4680      	mov	r8, r0
1000afd8:	991c      	ldr	r1, [sp, #112]	@ 0x70
1000afda:	e458      	b.n	1000a88e <_strtod_l+0x7fe>
1000afdc:	4a42      	ldr	r2, [pc, #264]	@ (1000b0e8 <_strtod_l+0x1058>)
1000afde:	991c      	ldr	r1, [sp, #112]	@ 0x70
1000afe0:	401a      	ands	r2, r3
1000afe2:	f5a2 1280 	sub.w	r2, r2, #1048576	@ 0x100000
1000afe6:	ea6f 5312 	mvn.w	r3, r2, lsr #20
1000afea:	ea6f 5303 	mvn.w	r3, r3, lsl #20
1000afee:	9305      	str	r3, [sp, #20]
1000aff0:	f04f 33ff 	mov.w	r3, #4294967295	@ 0xffffffff
1000aff4:	9304      	str	r3, [sp, #16]
1000aff6:	e9dd 8904 	ldrd	r8, r9, [sp, #16]
1000affa:	e448      	b.n	1000a88e <_strtod_l+0x7fe>
1000affc:	4602      	mov	r2, r0
1000affe:	460b      	mov	r3, r1
1000b000:	4640      	mov	r0, r8
1000b002:	4649      	mov	r1, r9
1000b004:	f7f9 fdda 	bl	10004bbc <__wrap___aeabi_dsub>
1000b008:	2200      	movs	r2, #0
1000b00a:	2300      	movs	r3, #0
1000b00c:	4680      	mov	r8, r0
1000b00e:	4689      	mov	r9, r1
1000b010:	f7f9 fec4 	bl	10004d9c <__wrap___aeabi_dcmpeq>
1000b014:	2800      	cmp	r0, #0
1000b016:	f43f ad0a 	beq.w	1000aa2e <_strtod_l+0x99e>
1000b01a:	e583      	b.n	1000ab24 <_strtod_l+0xa94>
1000b01c:	f1c2 024b 	rsb	r2, r2, #75	@ 0x4b
1000b020:	f04f 33ff 	mov.w	r3, #4294967295	@ 0xffffffff
1000b024:	4093      	lsls	r3, r2
1000b026:	400b      	ands	r3, r1
1000b028:	9305      	str	r3, [sp, #20]
1000b02a:	e601      	b.n	1000ac30 <_strtod_l+0xba0>
1000b02c:	1c6a      	adds	r2, r5, #1
1000b02e:	d1c3      	bne.n	1000afb8 <_strtod_l+0xf28>
1000b030:	4a2f      	ldr	r2, [pc, #188]	@ (1000b0f0 <_strtod_l+0x1060>)
1000b032:	4293      	cmp	r3, r2
1000b034:	d025      	beq.n	1000b082 <_strtod_l+0xff2>
1000b036:	3201      	adds	r2, #1
1000b038:	401a      	ands	r2, r3
1000b03a:	f502 1380 	add.w	r3, r2, #1048576	@ 0x100000
1000b03e:	9305      	str	r3, [sp, #20]
1000b040:	2300      	movs	r3, #0
1000b042:	9304      	str	r3, [sp, #16]
1000b044:	e9dd 8904 	ldrd	r8, r9, [sp, #16]
1000b048:	e6d1      	b.n	1000adee <_strtod_l+0xd5e>
1000b04a:	9a04      	ldr	r2, [sp, #16]
1000b04c:	3201      	adds	r2, #1
1000b04e:	d0ef      	beq.n	1000b030 <_strtod_l+0xfa0>
1000b050:	f1be 0f00 	cmp.w	lr, #0
1000b054:	d00b      	beq.n	1000b06e <_strtod_l+0xfde>
1000b056:	ea1e 0f06 	tst.w	lr, r6
1000b05a:	f43f ace8 	beq.w	1000aa2e <_strtod_l+0x99e>
1000b05e:	e692      	b.n	1000ad86 <_strtod_l+0xcf6>
1000b060:	f504 1380 	add.w	r3, r4, #1048576	@ 0x100000
1000b064:	e9cd 0304 	strd	r0, r3, [sp, #16]
1000b068:	e9dd 8904 	ldrd	r8, r9, [sp, #16]
1000b06c:	e6aa      	b.n	1000adc4 <_strtod_l+0xd34>
1000b06e:	9a12      	ldr	r2, [sp, #72]	@ 0x48
1000b070:	4215      	tst	r5, r2
1000b072:	f43f acdc 	beq.w	1000aa2e <_strtod_l+0x99e>
1000b076:	e686      	b.n	1000ad86 <_strtod_l+0xcf6>
1000b078:	9a12      	ldr	r2, [sp, #72]	@ 0x48
1000b07a:	4215      	tst	r5, r2
1000b07c:	f43f aea2 	beq.w	1000adc4 <_strtod_l+0xd34>
1000b080:	e681      	b.n	1000ad86 <_strtod_l+0xcf6>
1000b082:	2322      	movs	r3, #34	@ 0x22
1000b084:	991c      	ldr	r1, [sp, #112]	@ 0x70
1000b086:	f04f 0800 	mov.w	r8, #0
1000b08a:	f8df 905c 	ldr.w	r9, [pc, #92]	@ 1000b0e8 <_strtod_l+0x1058>
1000b08e:	f8cb 3000 	str.w	r3, [fp]
1000b092:	f7ff bbfc 	b.w	1000a88e <_strtod_l+0x7fe>
1000b096:	4622      	mov	r2, r4
1000b098:	2a08      	cmp	r2, #8
1000b09a:	f102 0401 	add.w	r4, r2, #1
1000b09e:	dd09      	ble.n	1000b0b4 <_strtod_l+0x1024>
1000b0a0:	2c10      	cmp	r4, #16
1000b0a2:	f73f ae4f 	bgt.w	1000ad44 <_strtod_l+0xcb4>
1000b0a6:	eb07 0787 	add.w	r7, r7, r7, lsl #2
1000b0aa:	2300      	movs	r3, #0
1000b0ac:	eb0c 0747 	add.w	r7, ip, r7, lsl #1
1000b0b0:	930a      	str	r3, [sp, #40]	@ 0x28
1000b0b2:	e486      	b.n	1000a9c2 <_strtod_l+0x932>
1000b0b4:	230a      	movs	r3, #10
1000b0b6:	fb05 f303 	mul.w	r3, r5, r3
1000b0ba:	e47f      	b.n	1000a9bc <_strtod_l+0x92c>
1000b0bc:	4602      	mov	r2, r0
1000b0be:	460b      	mov	r3, r1
1000b0c0:	e67a      	b.n	1000adb8 <_strtod_l+0xd28>
1000b0c2:	4602      	mov	r2, r0
1000b0c4:	460b      	mov	r3, r1
1000b0c6:	e741      	b.n	1000af4c <_strtod_l+0xebc>
1000b0c8:	05e1      	lsls	r1, r4, #23
1000b0ca:	d505      	bpl.n	1000b0d8 <_strtod_l+0x1048>
1000b0cc:	f04f 4300 	mov.w	r3, #2147483648	@ 0x80000000
1000b0d0:	9305      	str	r3, [sp, #20]
1000b0d2:	e9dd 8904 	ldrd	r8, r9, [sp, #16]
1000b0d6:	e5fd      	b.n	1000acd4 <_strtod_l+0xc44>
1000b0d8:	f04f 0800 	mov.w	r8, #0
1000b0dc:	f04f 0900 	mov.w	r9, #0
1000b0e0:	e5f8      	b.n	1000acd4 <_strtod_l+0xc44>
1000b0e2:	bf00      	nop
1000b0e4:	1000e30c 	.word	0x1000e30c
1000b0e8:	7ff00000 	.word	0x7ff00000
1000b0ec:	3ff00000 	.word	0x3ff00000
1000b0f0:	7fefffff 	.word	0x7fefffff
1000b0f4:	10011940 	.word	0x10011940

1000b0f8 <_strtod_r>:
1000b0f8:	4b01      	ldr	r3, [pc, #4]	@ (1000b100 <_strtod_r+0x8>)
1000b0fa:	f7fe bfc9 	b.w	1000a090 <_strtod_l>
1000b0fe:	bf00      	nop
1000b100:	20000bb8 	.word	0x20000bb8

1000b104 <_strtol_l.part.0>:
1000b104:	e92d 4ff0 	stmdb	sp!, {r4, r5, r6, r7, r8, r9, sl, fp, lr}
1000b108:	4681      	mov	r9, r0
1000b10a:	468e      	mov	lr, r1
1000b10c:	486d      	ldr	r0, [pc, #436]	@ (1000b2c4 <_strtol_l.part.0+0x1c0>)
1000b10e:	4675      	mov	r5, lr
1000b110:	f81e bb01 	ldrb.w	fp, [lr], #1
1000b114:	f810 400b 	ldrb.w	r4, [r0, fp]
1000b118:	f014 0408 	ands.w	r4, r4, #8
1000b11c:	d1f7      	bne.n	1000b10e <_strtol_l.part.0+0xa>
1000b11e:	f1bb 0f2d 	cmp.w	fp, #45	@ 0x2d
1000b122:	f023 0710 	bic.w	r7, r3, #16
1000b126:	d05d      	beq.n	1000b1e4 <_strtol_l.part.0+0xe0>
1000b128:	f1bb 0f2b 	cmp.w	fp, #43	@ 0x2b
1000b12c:	d010      	beq.n	1000b150 <_strtol_l.part.0+0x4c>
1000b12e:	b9af      	cbnz	r7, 1000b15c <_strtol_l.part.0+0x58>
1000b130:	f1bb 0f30 	cmp.w	fp, #48	@ 0x30
1000b134:	f000 808d 	beq.w	1000b252 <_strtol_l.part.0+0x14e>
1000b138:	2b00      	cmp	r3, #0
1000b13a:	f000 8085 	beq.w	1000b248 <_strtol_l.part.0+0x144>
1000b13e:	2310      	movs	r3, #16
1000b140:	f06f 4678 	mvn.w	r6, #4160749568	@ 0xf8000000
1000b144:	270f      	movs	r7, #15
1000b146:	4698      	mov	r8, r3
1000b148:	2400      	movs	r4, #0
1000b14a:	f06f 4a00 	mvn.w	sl, #2147483648	@ 0x80000000
1000b14e:	e00d      	b.n	1000b16c <_strtol_l.part.0+0x68>
1000b150:	f89e b000 	ldrb.w	fp, [lr]
1000b154:	f105 0e02 	add.w	lr, r5, #2
1000b158:	2f00      	cmp	r7, #0
1000b15a:	d060      	beq.n	1000b21e <_strtol_l.part.0+0x11a>
1000b15c:	f06f 4700 	mvn.w	r7, #2147483648	@ 0x80000000
1000b160:	4698      	mov	r8, r3
1000b162:	fbb7 f6f3 	udiv	r6, r7, r3
1000b166:	46ba      	mov	sl, r7
1000b168:	fb03 7716 	mls	r7, r3, r6, r7
1000b16c:	2500      	movs	r5, #0
1000b16e:	4628      	mov	r0, r5
1000b170:	e00e      	b.n	1000b190 <_strtol_l.part.0+0x8c>
1000b172:	f1ab 0c37 	sub.w	ip, fp, #55	@ 0x37
1000b176:	459c      	cmp	ip, r3
1000b178:	da1d      	bge.n	1000b1b6 <_strtol_l.part.0+0xb2>
1000b17a:	3501      	adds	r5, #1
1000b17c:	d004      	beq.n	1000b188 <_strtol_l.part.0+0x84>
1000b17e:	42b0      	cmp	r0, r6
1000b180:	d802      	bhi.n	1000b188 <_strtol_l.part.0+0x84>
1000b182:	d122      	bne.n	1000b1ca <_strtol_l.part.0+0xc6>
1000b184:	45bc      	cmp	ip, r7
1000b186:	dd20      	ble.n	1000b1ca <_strtol_l.part.0+0xc6>
1000b188:	f04f 35ff 	mov.w	r5, #4294967295	@ 0xffffffff
1000b18c:	f81e bb01 	ldrb.w	fp, [lr], #1
1000b190:	f1ab 0c30 	sub.w	ip, fp, #48	@ 0x30
1000b194:	f1bc 0f09 	cmp.w	ip, #9
1000b198:	d9ed      	bls.n	1000b176 <_strtol_l.part.0+0x72>
1000b19a:	f1ab 0c41 	sub.w	ip, fp, #65	@ 0x41
1000b19e:	f1bc 0f19 	cmp.w	ip, #25
1000b1a2:	d9e6      	bls.n	1000b172 <_strtol_l.part.0+0x6e>
1000b1a4:	f1ab 0c61 	sub.w	ip, fp, #97	@ 0x61
1000b1a8:	f1bc 0f19 	cmp.w	ip, #25
1000b1ac:	d803      	bhi.n	1000b1b6 <_strtol_l.part.0+0xb2>
1000b1ae:	f1ab 0c57 	sub.w	ip, fp, #87	@ 0x57
1000b1b2:	459c      	cmp	ip, r3
1000b1b4:	dbe1      	blt.n	1000b17a <_strtol_l.part.0+0x76>
1000b1b6:	1c6b      	adds	r3, r5, #1
1000b1b8:	d00b      	beq.n	1000b1d2 <_strtol_l.part.0+0xce>
1000b1ba:	b104      	cbz	r4, 1000b1be <_strtol_l.part.0+0xba>
1000b1bc:	4240      	negs	r0, r0
1000b1be:	b112      	cbz	r2, 1000b1c6 <_strtol_l.part.0+0xc2>
1000b1c0:	2d00      	cmp	r5, #0
1000b1c2:	d157      	bne.n	1000b274 <_strtol_l.part.0+0x170>
1000b1c4:	6011      	str	r1, [r2, #0]
1000b1c6:	e8bd 8ff0 	ldmia.w	sp!, {r4, r5, r6, r7, r8, r9, sl, fp, pc}
1000b1ca:	fb08 c000 	mla	r0, r8, r0, ip
1000b1ce:	2501      	movs	r5, #1
1000b1d0:	e7dc      	b.n	1000b18c <_strtol_l.part.0+0x88>
1000b1d2:	2322      	movs	r3, #34	@ 0x22
1000b1d4:	f8c9 3000 	str.w	r3, [r9]
1000b1d8:	2a00      	cmp	r2, #0
1000b1da:	d04d      	beq.n	1000b278 <_strtol_l.part.0+0x174>
1000b1dc:	f10e 31ff 	add.w	r1, lr, #4294967295	@ 0xffffffff
1000b1e0:	4650      	mov	r0, sl
1000b1e2:	e7ef      	b.n	1000b1c4 <_strtol_l.part.0+0xc0>
1000b1e4:	f89e b000 	ldrb.w	fp, [lr]
1000b1e8:	f105 0e02 	add.w	lr, r5, #2
1000b1ec:	b967      	cbnz	r7, 1000b208 <_strtol_l.part.0+0x104>
1000b1ee:	f1bb 0f30 	cmp.w	fp, #48	@ 0x30
1000b1f2:	d044      	beq.n	1000b27e <_strtol_l.part.0+0x17a>
1000b1f4:	2b00      	cmp	r3, #0
1000b1f6:	d150      	bne.n	1000b29a <_strtol_l.part.0+0x196>
1000b1f8:	230a      	movs	r3, #10
1000b1fa:	4e33      	ldr	r6, [pc, #204]	@ (1000b2c8 <_strtol_l.part.0+0x1c4>)
1000b1fc:	2708      	movs	r7, #8
1000b1fe:	2401      	movs	r4, #1
1000b200:	4698      	mov	r8, r3
1000b202:	f04f 4a00 	mov.w	sl, #2147483648	@ 0x80000000
1000b206:	e7b1      	b.n	1000b16c <_strtol_l.part.0+0x68>
1000b208:	f04f 4a00 	mov.w	sl, #2147483648	@ 0x80000000
1000b20c:	4698      	mov	r8, r3
1000b20e:	2401      	movs	r4, #1
1000b210:	fbba f6f3 	udiv	r6, sl, r3
1000b214:	fb03 f706 	mul.w	r7, r3, r6
1000b218:	ebaa 0707 	sub.w	r7, sl, r7
1000b21c:	e7a6      	b.n	1000b16c <_strtol_l.part.0+0x68>
1000b21e:	f1bb 0f30 	cmp.w	fp, #48	@ 0x30
1000b222:	d189      	bne.n	1000b138 <_strtol_l.part.0+0x34>
1000b224:	78a8      	ldrb	r0, [r5, #2]
1000b226:	f000 00df 	and.w	r0, r0, #223	@ 0xdf
1000b22a:	2858      	cmp	r0, #88	@ 0x58
1000b22c:	d11e      	bne.n	1000b26c <_strtol_l.part.0+0x168>
1000b22e:	2310      	movs	r3, #16
1000b230:	f895 b003 	ldrb.w	fp, [r5, #3]
1000b234:	f105 0e04 	add.w	lr, r5, #4
1000b238:	4698      	mov	r8, r3
1000b23a:	f06f 4700 	mvn.w	r7, #2147483648	@ 0x80000000
1000b23e:	fbb7 f6f8 	udiv	r6, r7, r8
1000b242:	fb08 7716 	mls	r7, r8, r6, r7
1000b246:	e77f      	b.n	1000b148 <_strtol_l.part.0+0x44>
1000b248:	230a      	movs	r3, #10
1000b24a:	4e1f      	ldr	r6, [pc, #124]	@ (1000b2c8 <_strtol_l.part.0+0x1c4>)
1000b24c:	2707      	movs	r7, #7
1000b24e:	4698      	mov	r8, r3
1000b250:	e77a      	b.n	1000b148 <_strtol_l.part.0+0x44>
1000b252:	f89e 0000 	ldrb.w	r0, [lr]
1000b256:	f000 00df 	and.w	r0, r0, #223	@ 0xdf
1000b25a:	2858      	cmp	r0, #88	@ 0x58
1000b25c:	d106      	bne.n	1000b26c <_strtol_l.part.0+0x168>
1000b25e:	2310      	movs	r3, #16
1000b260:	f89e b001 	ldrb.w	fp, [lr, #1]
1000b264:	f105 0e03 	add.w	lr, r5, #3
1000b268:	4698      	mov	r8, r3
1000b26a:	e7e6      	b.n	1000b23a <_strtol_l.part.0+0x136>
1000b26c:	bb23      	cbnz	r3, 1000b2b8 <_strtol_l.part.0+0x1b4>
1000b26e:	2308      	movs	r3, #8
1000b270:	4698      	mov	r8, r3
1000b272:	e7e2      	b.n	1000b23a <_strtol_l.part.0+0x136>
1000b274:	4682      	mov	sl, r0
1000b276:	e7b1      	b.n	1000b1dc <_strtol_l.part.0+0xd8>
1000b278:	4650      	mov	r0, sl
1000b27a:	e8bd 8ff0 	ldmia.w	sp!, {r4, r5, r6, r7, r8, r9, sl, fp, pc}
1000b27e:	78a8      	ldrb	r0, [r5, #2]
1000b280:	f000 00df 	and.w	r0, r0, #223	@ 0xdf
1000b284:	2858      	cmp	r0, #88	@ 0x58
1000b286:	d010      	beq.n	1000b2aa <_strtol_l.part.0+0x1a6>
1000b288:	b1cb      	cbz	r3, 1000b2be <_strtol_l.part.0+0x1ba>
1000b28a:	2310      	movs	r3, #16
1000b28c:	4698      	mov	r8, r3
1000b28e:	f04f 4a00 	mov.w	sl, #2147483648	@ 0x80000000
1000b292:	2401      	movs	r4, #1
1000b294:	fbba f6f8 	udiv	r6, sl, r8
1000b298:	e768      	b.n	1000b16c <_strtol_l.part.0+0x68>
1000b29a:	2310      	movs	r3, #16
1000b29c:	f04f 6600 	mov.w	r6, #134217728	@ 0x8000000
1000b2a0:	2401      	movs	r4, #1
1000b2a2:	f04f 4a00 	mov.w	sl, #2147483648	@ 0x80000000
1000b2a6:	4698      	mov	r8, r3
1000b2a8:	e760      	b.n	1000b16c <_strtol_l.part.0+0x68>
1000b2aa:	2310      	movs	r3, #16
1000b2ac:	f895 b003 	ldrb.w	fp, [r5, #3]
1000b2b0:	f105 0e04 	add.w	lr, r5, #4
1000b2b4:	4698      	mov	r8, r3
1000b2b6:	e7ea      	b.n	1000b28e <_strtol_l.part.0+0x18a>
1000b2b8:	2310      	movs	r3, #16
1000b2ba:	4698      	mov	r8, r3
1000b2bc:	e7bd      	b.n	1000b23a <_strtol_l.part.0+0x136>
1000b2be:	2308      	movs	r3, #8
1000b2c0:	4698      	mov	r8, r3
1000b2c2:	e7e4      	b.n	1000b28e <_strtol_l.part.0+0x18a>
1000b2c4:	1000e1e5 	.word	0x1000e1e5
1000b2c8:	0ccccccc 	.word	0x0ccccccc

1000b2cc <_strtol_r>:
1000b2cc:	2b24      	cmp	r3, #36	@ 0x24
1000b2ce:	d803      	bhi.n	1000b2d8 <_strtol_r+0xc>
1000b2d0:	2b01      	cmp	r3, #1
1000b2d2:	d001      	beq.n	1000b2d8 <_strtol_r+0xc>
1000b2d4:	f7ff bf16 	b.w	1000b104 <_strtol_l.part.0>
1000b2d8:	b510      	push	{r4, lr}
1000b2da:	f7fc fd1d 	bl	10007d18 <__errno>
1000b2de:	2316      	movs	r3, #22
1000b2e0:	6003      	str	r3, [r0, #0]
1000b2e2:	2000      	movs	r0, #0
1000b2e4:	bd10      	pop	{r4, pc}
1000b2e6:	bf00      	nop

1000b2e8 <__ascii_wctomb>:
1000b2e8:	4603      	mov	r3, r0
1000b2ea:	b149      	cbz	r1, 1000b300 <__ascii_wctomb+0x18>
1000b2ec:	2aff      	cmp	r2, #255	@ 0xff
1000b2ee:	d802      	bhi.n	1000b2f6 <__ascii_wctomb+0xe>
1000b2f0:	2001      	movs	r0, #1
1000b2f2:	700a      	strb	r2, [r1, #0]
1000b2f4:	4770      	bx	lr
1000b2f6:	228a      	movs	r2, #138	@ 0x8a
1000b2f8:	f04f 30ff 	mov.w	r0, #4294967295	@ 0xffffffff
1000b2fc:	601a      	str	r2, [r3, #0]
1000b2fe:	4770      	bx	lr
1000b300:	4608      	mov	r0, r1
1000b302:	4770      	bx	lr

1000b304 <_strtoll_l.isra.0>:
1000b304:	e92d 4ff0 	stmdb	sp!, {r4, r5, r6, r7, r8, r9, sl, fp, lr}
1000b308:	461f      	mov	r7, r3
1000b30a:	b085      	sub	sp, #20
1000b30c:	468b      	mov	fp, r1
1000b30e:	460d      	mov	r5, r1
1000b310:	4ba8      	ldr	r3, [pc, #672]	@ (1000b5b4 <_strtoll_l.isra.0+0x2b0>)
1000b312:	9003      	str	r0, [sp, #12]
1000b314:	9200      	str	r2, [sp, #0]
1000b316:	462a      	mov	r2, r5
1000b318:	f815 4b01 	ldrb.w	r4, [r5], #1
1000b31c:	5d1e      	ldrb	r6, [r3, r4]
1000b31e:	f016 0608 	ands.w	r6, r6, #8
1000b322:	d1f8      	bne.n	1000b316 <_strtoll_l.isra.0+0x12>
1000b324:	2c2d      	cmp	r4, #45	@ 0x2d
1000b326:	f027 0910 	bic.w	r9, r7, #16
1000b32a:	f000 8090 	beq.w	1000b44e <_strtoll_l.isra.0+0x14a>
1000b32e:	2c2b      	cmp	r4, #43	@ 0x2b
1000b330:	d01a      	beq.n	1000b368 <_strtoll_l.isra.0+0x64>
1000b332:	f1b9 0f00 	cmp.w	r9, #0
1000b336:	d11d      	bne.n	1000b374 <_strtoll_l.isra.0+0x70>
1000b338:	2c30      	cmp	r4, #48	@ 0x30
1000b33a:	f000 80e9 	beq.w	1000b510 <_strtoll_l.isra.0+0x20c>
1000b33e:	2f00      	cmp	r7, #0
1000b340:	f000 80db 	beq.w	1000b4fa <_strtoll_l.isra.0+0x1f6>
1000b344:	f04f 0810 	mov.w	r8, #16
1000b348:	46b2      	mov	sl, r6
1000b34a:	f06f 4c78 	mvn.w	ip, #4160749568	@ 0xf8000000
1000b34e:	f04f 36ff 	mov.w	r6, #4294967295	@ 0xffffffff
1000b352:	f04f 090f 	mov.w	r9, #15
1000b356:	4647      	mov	r7, r8
1000b358:	2200      	movs	r2, #0
1000b35a:	f04f 33ff 	mov.w	r3, #4294967295	@ 0xffffffff
1000b35e:	f06f 4e00 	mvn.w	lr, #2147483648	@ 0x80000000
1000b362:	e9cd 2301 	strd	r2, r3, [sp, #4]
1000b366:	e021      	b.n	1000b3ac <_strtoll_l.isra.0+0xa8>
1000b368:	782c      	ldrb	r4, [r5, #0]
1000b36a:	1c95      	adds	r5, r2, #2
1000b36c:	f1b9 0f00 	cmp.w	r9, #0
1000b370:	f000 80a1 	beq.w	1000b4b6 <_strtoll_l.isra.0+0x1b2>
1000b374:	ea4f 7ae7 	mov.w	sl, r7, asr #31
1000b378:	463a      	mov	r2, r7
1000b37a:	f04f 30ff 	mov.w	r0, #4294967295	@ 0xffffffff
1000b37e:	f06f 4100 	mvn.w	r1, #2147483648	@ 0x80000000
1000b382:	4653      	mov	r3, sl
1000b384:	46b8      	mov	r8, r7
1000b386:	f001 fccb 	bl	1000cd20 <____aeabi_uldivmod_veneer>
1000b38a:	4653      	mov	r3, sl
1000b38c:	4691      	mov	r9, r2
1000b38e:	f04f 30ff 	mov.w	r0, #4294967295	@ 0xffffffff
1000b392:	463a      	mov	r2, r7
1000b394:	f06f 4100 	mvn.w	r1, #2147483648	@ 0x80000000
1000b398:	f001 fcc2 	bl	1000cd20 <____aeabi_uldivmod_veneer>
1000b39c:	f04f 33ff 	mov.w	r3, #4294967295	@ 0xffffffff
1000b3a0:	9601      	str	r6, [sp, #4]
1000b3a2:	468c      	mov	ip, r1
1000b3a4:	4606      	mov	r6, r0
1000b3a6:	f06f 4e00 	mvn.w	lr, #2147483648	@ 0x80000000
1000b3aa:	9302      	str	r3, [sp, #8]
1000b3ac:	2200      	movs	r2, #0
1000b3ae:	4610      	mov	r0, r2
1000b3b0:	4611      	mov	r1, r2
1000b3b2:	e013      	b.n	1000b3dc <_strtoll_l.isra.0+0xd8>
1000b3b4:	f1a4 0337 	sub.w	r3, r4, #55	@ 0x37
1000b3b8:	42bb      	cmp	r3, r7
1000b3ba:	da1f      	bge.n	1000b3fc <_strtoll_l.isra.0+0xf8>
1000b3bc:	3201      	adds	r2, #1
1000b3be:	d009      	beq.n	1000b3d4 <_strtoll_l.isra.0+0xd0>
1000b3c0:	4286      	cmp	r6, r0
1000b3c2:	eb7c 0201 	sbcs.w	r2, ip, r1
1000b3c6:	d305      	bcc.n	1000b3d4 <_strtoll_l.isra.0+0xd0>
1000b3c8:	4561      	cmp	r1, ip
1000b3ca:	bf08      	it	eq
1000b3cc:	42b0      	cmpeq	r0, r6
1000b3ce:	d127      	bne.n	1000b420 <_strtoll_l.isra.0+0x11c>
1000b3d0:	454b      	cmp	r3, r9
1000b3d2:	dd25      	ble.n	1000b420 <_strtoll_l.isra.0+0x11c>
1000b3d4:	f04f 32ff 	mov.w	r2, #4294967295	@ 0xffffffff
1000b3d8:	f815 4b01 	ldrb.w	r4, [r5], #1
1000b3dc:	f1a4 0330 	sub.w	r3, r4, #48	@ 0x30
1000b3e0:	2b09      	cmp	r3, #9
1000b3e2:	d9e9      	bls.n	1000b3b8 <_strtoll_l.isra.0+0xb4>
1000b3e4:	f1a4 0341 	sub.w	r3, r4, #65	@ 0x41
1000b3e8:	2b19      	cmp	r3, #25
1000b3ea:	d9e3      	bls.n	1000b3b4 <_strtoll_l.isra.0+0xb0>
1000b3ec:	f1a4 0361 	sub.w	r3, r4, #97	@ 0x61
1000b3f0:	2b19      	cmp	r3, #25
1000b3f2:	d803      	bhi.n	1000b3fc <_strtoll_l.isra.0+0xf8>
1000b3f4:	f1a4 0357 	sub.w	r3, r4, #87	@ 0x57
1000b3f8:	42bb      	cmp	r3, r7
1000b3fa:	dbdf      	blt.n	1000b3bc <_strtoll_l.isra.0+0xb8>
1000b3fc:	1c53      	adds	r3, r2, #1
1000b3fe:	d01b      	beq.n	1000b438 <_strtoll_l.isra.0+0x134>
1000b400:	9b01      	ldr	r3, [sp, #4]
1000b402:	b113      	cbz	r3, 1000b40a <_strtoll_l.isra.0+0x106>
1000b404:	4240      	negs	r0, r0
1000b406:	eb61 0141 	sbc.w	r1, r1, r1, lsl #1
1000b40a:	9b00      	ldr	r3, [sp, #0]
1000b40c:	b12b      	cbz	r3, 1000b41a <_strtoll_l.isra.0+0x116>
1000b40e:	2a00      	cmp	r2, #0
1000b410:	f040 8090 	bne.w	1000b534 <_strtoll_l.isra.0+0x230>
1000b414:	9b00      	ldr	r3, [sp, #0]
1000b416:	f8c3 b000 	str.w	fp, [r3]
1000b41a:	b005      	add	sp, #20
1000b41c:	e8bd 8ff0 	ldmia.w	sp!, {r4, r5, r6, r7, r8, r9, sl, fp, pc}
1000b420:	fb00 f20a 	mul.w	r2, r0, sl
1000b424:	fb08 2201 	mla	r2, r8, r1, r2
1000b428:	fba0 0108 	umull	r0, r1, r0, r8
1000b42c:	440a      	add	r2, r1
1000b42e:	1818      	adds	r0, r3, r0
1000b430:	eb42 71e3 	adc.w	r1, r2, r3, asr #31
1000b434:	2201      	movs	r2, #1
1000b436:	e7cf      	b.n	1000b3d8 <_strtoll_l.isra.0+0xd4>
1000b438:	2322      	movs	r3, #34	@ 0x22
1000b43a:	9a03      	ldr	r2, [sp, #12]
1000b43c:	6013      	str	r3, [r2, #0]
1000b43e:	9b00      	ldr	r3, [sp, #0]
1000b440:	2b00      	cmp	r3, #0
1000b442:	d07a      	beq.n	1000b53a <_strtoll_l.isra.0+0x236>
1000b444:	f105 3bff 	add.w	fp, r5, #4294967295	@ 0xffffffff
1000b448:	9802      	ldr	r0, [sp, #8]
1000b44a:	4671      	mov	r1, lr
1000b44c:	e7e2      	b.n	1000b414 <_strtoll_l.isra.0+0x110>
1000b44e:	782c      	ldrb	r4, [r5, #0]
1000b450:	1c95      	adds	r5, r2, #2
1000b452:	f1b9 0f00 	cmp.w	r9, #0
1000b456:	d114      	bne.n	1000b482 <_strtoll_l.isra.0+0x17e>
1000b458:	2c30      	cmp	r4, #48	@ 0x30
1000b45a:	d073      	beq.n	1000b544 <_strtoll_l.isra.0+0x240>
1000b45c:	2f00      	cmp	r7, #0
1000b45e:	f040 808b 	bne.w	1000b578 <_strtoll_l.isra.0+0x274>
1000b462:	f04f 080a 	mov.w	r8, #10
1000b466:	2301      	movs	r3, #1
1000b468:	46ba      	mov	sl, r7
1000b46a:	9602      	str	r6, [sp, #8]
1000b46c:	f8df c148 	ldr.w	ip, [pc, #328]	@ 1000b5b8 <_strtoll_l.isra.0+0x2b4>
1000b470:	f04f 36cc 	mov.w	r6, #3435973836	@ 0xcccccccc
1000b474:	f04f 0908 	mov.w	r9, #8
1000b478:	4647      	mov	r7, r8
1000b47a:	f04f 4e00 	mov.w	lr, #2147483648	@ 0x80000000
1000b47e:	9301      	str	r3, [sp, #4]
1000b480:	e794      	b.n	1000b3ac <_strtoll_l.isra.0+0xa8>
1000b482:	ea4f 7ae7 	mov.w	sl, r7, asr #31
1000b486:	463a      	mov	r2, r7
1000b488:	2000      	movs	r0, #0
1000b48a:	f04f 4100 	mov.w	r1, #2147483648	@ 0x80000000
1000b48e:	4653      	mov	r3, sl
1000b490:	46b8      	mov	r8, r7
1000b492:	f001 fc45 	bl	1000cd20 <____aeabi_uldivmod_veneer>
1000b496:	4653      	mov	r3, sl
1000b498:	4691      	mov	r9, r2
1000b49a:	2000      	movs	r0, #0
1000b49c:	463a      	mov	r2, r7
1000b49e:	f04f 4100 	mov.w	r1, #2147483648	@ 0x80000000
1000b4a2:	f001 fc3d 	bl	1000cd20 <____aeabi_uldivmod_veneer>
1000b4a6:	2301      	movs	r3, #1
1000b4a8:	9602      	str	r6, [sp, #8]
1000b4aa:	468c      	mov	ip, r1
1000b4ac:	4606      	mov	r6, r0
1000b4ae:	f04f 4e00 	mov.w	lr, #2147483648	@ 0x80000000
1000b4b2:	9301      	str	r3, [sp, #4]
1000b4b4:	e77a      	b.n	1000b3ac <_strtoll_l.isra.0+0xa8>
1000b4b6:	2c30      	cmp	r4, #48	@ 0x30
1000b4b8:	f47f af41 	bne.w	1000b33e <_strtoll_l.isra.0+0x3a>
1000b4bc:	7893      	ldrb	r3, [r2, #2]
1000b4be:	f003 03df 	and.w	r3, r3, #223	@ 0xdf
1000b4c2:	2b58      	cmp	r3, #88	@ 0x58
1000b4c4:	d130      	bne.n	1000b528 <_strtoll_l.isra.0+0x224>
1000b4c6:	f04f 0810 	mov.w	r8, #16
1000b4ca:	46ca      	mov	sl, r9
1000b4cc:	78d4      	ldrb	r4, [r2, #3]
1000b4ce:	1d15      	adds	r5, r2, #4
1000b4d0:	4647      	mov	r7, r8
1000b4d2:	4642      	mov	r2, r8
1000b4d4:	4653      	mov	r3, sl
1000b4d6:	f04f 30ff 	mov.w	r0, #4294967295	@ 0xffffffff
1000b4da:	f06f 4100 	mvn.w	r1, #2147483648	@ 0x80000000
1000b4de:	f001 fc1f 	bl	1000cd20 <____aeabi_uldivmod_veneer>
1000b4e2:	4653      	mov	r3, sl
1000b4e4:	4691      	mov	r9, r2
1000b4e6:	f04f 30ff 	mov.w	r0, #4294967295	@ 0xffffffff
1000b4ea:	4642      	mov	r2, r8
1000b4ec:	f06f 4100 	mvn.w	r1, #2147483648	@ 0x80000000
1000b4f0:	f001 fc16 	bl	1000cd20 <____aeabi_uldivmod_veneer>
1000b4f4:	4606      	mov	r6, r0
1000b4f6:	468c      	mov	ip, r1
1000b4f8:	e72e      	b.n	1000b358 <_strtoll_l.isra.0+0x54>
1000b4fa:	f04f 080a 	mov.w	r8, #10
1000b4fe:	46ba      	mov	sl, r7
1000b500:	f04f 36cc 	mov.w	r6, #3435973836	@ 0xcccccccc
1000b504:	f8df c0b0 	ldr.w	ip, [pc, #176]	@ 1000b5b8 <_strtoll_l.isra.0+0x2b4>
1000b508:	f04f 0907 	mov.w	r9, #7
1000b50c:	4647      	mov	r7, r8
1000b50e:	e723      	b.n	1000b358 <_strtoll_l.isra.0+0x54>
1000b510:	782b      	ldrb	r3, [r5, #0]
1000b512:	f003 03df 	and.w	r3, r3, #223	@ 0xdf
1000b516:	2b58      	cmp	r3, #88	@ 0x58
1000b518:	d106      	bne.n	1000b528 <_strtoll_l.isra.0+0x224>
1000b51a:	f04f 0810 	mov.w	r8, #16
1000b51e:	786c      	ldrb	r4, [r5, #1]
1000b520:	46ca      	mov	sl, r9
1000b522:	1cd5      	adds	r5, r2, #3
1000b524:	4647      	mov	r7, r8
1000b526:	e7d4      	b.n	1000b4d2 <_strtoll_l.isra.0+0x1ce>
1000b528:	bbd7      	cbnz	r7, 1000b5a0 <_strtoll_l.isra.0+0x29c>
1000b52a:	f04f 0808 	mov.w	r8, #8
1000b52e:	46ba      	mov	sl, r7
1000b530:	4647      	mov	r7, r8
1000b532:	e7ce      	b.n	1000b4d2 <_strtoll_l.isra.0+0x1ce>
1000b534:	468e      	mov	lr, r1
1000b536:	9002      	str	r0, [sp, #8]
1000b538:	e784      	b.n	1000b444 <_strtoll_l.isra.0+0x140>
1000b53a:	9802      	ldr	r0, [sp, #8]
1000b53c:	4671      	mov	r1, lr
1000b53e:	b005      	add	sp, #20
1000b540:	e8bd 8ff0 	ldmia.w	sp!, {r4, r5, r6, r7, r8, r9, sl, fp, pc}
1000b544:	7893      	ldrb	r3, [r2, #2]
1000b546:	f003 03df 	and.w	r3, r3, #223	@ 0xdf
1000b54a:	2b58      	cmp	r3, #88	@ 0x58
1000b54c:	d021      	beq.n	1000b592 <_strtoll_l.isra.0+0x28e>
1000b54e:	b367      	cbz	r7, 1000b5aa <_strtoll_l.isra.0+0x2a6>
1000b550:	f04f 0810 	mov.w	r8, #16
1000b554:	46ca      	mov	sl, r9
1000b556:	4647      	mov	r7, r8
1000b558:	4653      	mov	r3, sl
1000b55a:	4642      	mov	r2, r8
1000b55c:	2000      	movs	r0, #0
1000b55e:	f04f 4100 	mov.w	r1, #2147483648	@ 0x80000000
1000b562:	f001 fbdd 	bl	1000cd20 <____aeabi_uldivmod_veneer>
1000b566:	2300      	movs	r3, #0
1000b568:	468c      	mov	ip, r1
1000b56a:	2101      	movs	r1, #1
1000b56c:	4606      	mov	r6, r0
1000b56e:	f04f 4e00 	mov.w	lr, #2147483648	@ 0x80000000
1000b572:	e9cd 1301 	strd	r1, r3, [sp, #4]
1000b576:	e719      	b.n	1000b3ac <_strtoll_l.isra.0+0xa8>
1000b578:	f04f 0810 	mov.w	r8, #16
1000b57c:	2301      	movs	r3, #1
1000b57e:	464e      	mov	r6, r9
1000b580:	f04f 6c00 	mov.w	ip, #134217728	@ 0x8000000
1000b584:	46ca      	mov	sl, r9
1000b586:	4647      	mov	r7, r8
1000b588:	f04f 4e00 	mov.w	lr, #2147483648	@ 0x80000000
1000b58c:	e9cd 3901 	strd	r3, r9, [sp, #4]
1000b590:	e70c      	b.n	1000b3ac <_strtoll_l.isra.0+0xa8>
1000b592:	f04f 0810 	mov.w	r8, #16
1000b596:	78d4      	ldrb	r4, [r2, #3]
1000b598:	1d15      	adds	r5, r2, #4
1000b59a:	46ca      	mov	sl, r9
1000b59c:	4647      	mov	r7, r8
1000b59e:	e7db      	b.n	1000b558 <_strtoll_l.isra.0+0x254>
1000b5a0:	f04f 0810 	mov.w	r8, #16
1000b5a4:	46ca      	mov	sl, r9
1000b5a6:	4647      	mov	r7, r8
1000b5a8:	e793      	b.n	1000b4d2 <_strtoll_l.isra.0+0x1ce>
1000b5aa:	f04f 0808 	mov.w	r8, #8
1000b5ae:	46ba      	mov	sl, r7
1000b5b0:	4647      	mov	r7, r8
1000b5b2:	e7d1      	b.n	1000b558 <_strtoll_l.isra.0+0x254>
1000b5b4:	1000e1e5 	.word	0x1000e1e5
1000b5b8:	0ccccccc 	.word	0x0ccccccc

1000b5bc <_strtoll_r>:
1000b5bc:	f7ff bea2 	b.w	1000b304 <_strtoll_l.isra.0>

1000b5c0 <_strtoull_l.isra.0>:
1000b5c0:	e92d 4ff0 	stmdb	sp!, {r4, r5, r6, r7, r8, r9, sl, fp, lr}
1000b5c4:	b085      	sub	sp, #20
1000b5c6:	468b      	mov	fp, r1
1000b5c8:	461e      	mov	r6, r3
1000b5ca:	460d      	mov	r5, r1
1000b5cc:	9201      	str	r2, [sp, #4]
1000b5ce:	4a5c      	ldr	r2, [pc, #368]	@ (1000b740 <_strtoull_l.isra.0+0x180>)
1000b5d0:	9003      	str	r0, [sp, #12]
1000b5d2:	4629      	mov	r1, r5
1000b5d4:	f815 4b01 	ldrb.w	r4, [r5], #1
1000b5d8:	5d13      	ldrb	r3, [r2, r4]
1000b5da:	f013 0308 	ands.w	r3, r3, #8
1000b5de:	d1f8      	bne.n	1000b5d2 <_strtoull_l.isra.0+0x12>
1000b5e0:	2c2d      	cmp	r4, #45	@ 0x2d
1000b5e2:	f000 808c 	beq.w	1000b6fe <_strtoull_l.isra.0+0x13e>
1000b5e6:	2c2b      	cmp	r4, #43	@ 0x2b
1000b5e8:	d052      	beq.n	1000b690 <_strtoull_l.isra.0+0xd0>
1000b5ea:	9302      	str	r3, [sp, #8]
1000b5ec:	f036 0a10 	bics.w	sl, r6, #16
1000b5f0:	d055      	beq.n	1000b69e <_strtoull_l.isra.0+0xde>
1000b5f2:	ea4f 7ae6 	mov.w	sl, r6, asr #31
1000b5f6:	4632      	mov	r2, r6
1000b5f8:	f04f 30ff 	mov.w	r0, #4294967295	@ 0xffffffff
1000b5fc:	f04f 31ff 	mov.w	r1, #4294967295	@ 0xffffffff
1000b600:	4653      	mov	r3, sl
1000b602:	46b1      	mov	r9, r6
1000b604:	f001 fb8c 	bl	1000cd20 <____aeabi_uldivmod_veneer>
1000b608:	4632      	mov	r2, r6
1000b60a:	4607      	mov	r7, r0
1000b60c:	4688      	mov	r8, r1
1000b60e:	4653      	mov	r3, sl
1000b610:	f04f 30ff 	mov.w	r0, #4294967295	@ 0xffffffff
1000b614:	f04f 31ff 	mov.w	r1, #4294967295	@ 0xffffffff
1000b618:	f001 fb82 	bl	1000cd20 <____aeabi_uldivmod_veneer>
1000b61c:	4694      	mov	ip, r2
1000b61e:	2200      	movs	r2, #0
1000b620:	4610      	mov	r0, r2
1000b622:	4611      	mov	r1, r2
1000b624:	e013      	b.n	1000b64e <_strtoull_l.isra.0+0x8e>
1000b626:	f1a4 0337 	sub.w	r3, r4, #55	@ 0x37
1000b62a:	429e      	cmp	r6, r3
1000b62c:	dd1f      	ble.n	1000b66e <_strtoull_l.isra.0+0xae>
1000b62e:	3201      	adds	r2, #1
1000b630:	d009      	beq.n	1000b646 <_strtoull_l.isra.0+0x86>
1000b632:	4287      	cmp	r7, r0
1000b634:	eb78 0201 	sbcs.w	r2, r8, r1
1000b638:	d305      	bcc.n	1000b646 <_strtoull_l.isra.0+0x86>
1000b63a:	4541      	cmp	r1, r8
1000b63c:	bf08      	it	eq
1000b63e:	42b8      	cmpeq	r0, r7
1000b640:	d13b      	bne.n	1000b6ba <_strtoull_l.isra.0+0xfa>
1000b642:	4563      	cmp	r3, ip
1000b644:	dd39      	ble.n	1000b6ba <_strtoull_l.isra.0+0xfa>
1000b646:	f04f 32ff 	mov.w	r2, #4294967295	@ 0xffffffff
1000b64a:	f815 4b01 	ldrb.w	r4, [r5], #1
1000b64e:	f1a4 0330 	sub.w	r3, r4, #48	@ 0x30
1000b652:	2b09      	cmp	r3, #9
1000b654:	d9e9      	bls.n	1000b62a <_strtoull_l.isra.0+0x6a>
1000b656:	f1a4 0341 	sub.w	r3, r4, #65	@ 0x41
1000b65a:	2b19      	cmp	r3, #25
1000b65c:	d9e3      	bls.n	1000b626 <_strtoull_l.isra.0+0x66>
1000b65e:	f1a4 0361 	sub.w	r3, r4, #97	@ 0x61
1000b662:	2b19      	cmp	r3, #25
1000b664:	d803      	bhi.n	1000b66e <_strtoull_l.isra.0+0xae>
1000b666:	f1a4 0357 	sub.w	r3, r4, #87	@ 0x57
1000b66a:	429e      	cmp	r6, r3
1000b66c:	dcdf      	bgt.n	1000b62e <_strtoull_l.isra.0+0x6e>
1000b66e:	1c53      	adds	r3, r2, #1
1000b670:	d03a      	beq.n	1000b6e8 <_strtoull_l.isra.0+0x128>
1000b672:	9b02      	ldr	r3, [sp, #8]
1000b674:	b113      	cbz	r3, 1000b67c <_strtoull_l.isra.0+0xbc>
1000b676:	4240      	negs	r0, r0
1000b678:	eb61 0141 	sbc.w	r1, r1, r1, lsl #1
1000b67c:	9b01      	ldr	r3, [sp, #4]
1000b67e:	b123      	cbz	r3, 1000b68a <_strtoull_l.isra.0+0xca>
1000b680:	2a00      	cmp	r2, #0
1000b682:	d139      	bne.n	1000b6f8 <_strtoull_l.isra.0+0x138>
1000b684:	9b01      	ldr	r3, [sp, #4]
1000b686:	f8c3 b000 	str.w	fp, [r3]
1000b68a:	b005      	add	sp, #20
1000b68c:	e8bd 8ff0 	ldmia.w	sp!, {r4, r5, r6, r7, r8, r9, sl, fp, pc}
1000b690:	f036 0a10 	bics.w	sl, r6, #16
1000b694:	782c      	ldrb	r4, [r5, #0]
1000b696:	9302      	str	r3, [sp, #8]
1000b698:	f101 0502 	add.w	r5, r1, #2
1000b69c:	d1a9      	bne.n	1000b5f2 <_strtoull_l.isra.0+0x32>
1000b69e:	2c30      	cmp	r4, #48	@ 0x30
1000b6a0:	d032      	beq.n	1000b708 <_strtoull_l.isra.0+0x148>
1000b6a2:	b9be      	cbnz	r6, 1000b6d4 <_strtoull_l.isra.0+0x114>
1000b6a4:	f04f 090a 	mov.w	r9, #10
1000b6a8:	46b2      	mov	sl, r6
1000b6aa:	f04f 0c05 	mov.w	ip, #5
1000b6ae:	f04f 3799 	mov.w	r7, #2576980377	@ 0x99999999
1000b6b2:	f8df 8090 	ldr.w	r8, [pc, #144]	@ 1000b744 <_strtoull_l.isra.0+0x184>
1000b6b6:	464e      	mov	r6, r9
1000b6b8:	e7b1      	b.n	1000b61e <_strtoull_l.isra.0+0x5e>
1000b6ba:	fb00 f20a 	mul.w	r2, r0, sl
1000b6be:	fb09 2201 	mla	r2, r9, r1, r2
1000b6c2:	fba0 0109 	umull	r0, r1, r0, r9
1000b6c6:	440a      	add	r2, r1
1000b6c8:	1818      	adds	r0, r3, r0
1000b6ca:	eb42 71e3 	adc.w	r1, r2, r3, asr #31
1000b6ce:	2201      	movs	r2, #1
1000b6d0:	e7bb      	b.n	1000b64a <_strtoull_l.isra.0+0x8a>
1000b6d2:	b356      	cbz	r6, 1000b72a <_strtoull_l.isra.0+0x16a>
1000b6d4:	f04f 0910 	mov.w	r9, #16
1000b6d8:	f04f 0c0f 	mov.w	ip, #15
1000b6dc:	f04f 37ff 	mov.w	r7, #4294967295	@ 0xffffffff
1000b6e0:	f06f 4870 	mvn.w	r8, #4026531840	@ 0xf0000000
1000b6e4:	464e      	mov	r6, r9
1000b6e6:	e79a      	b.n	1000b61e <_strtoull_l.isra.0+0x5e>
1000b6e8:	2322      	movs	r3, #34	@ 0x22
1000b6ea:	9903      	ldr	r1, [sp, #12]
1000b6ec:	4610      	mov	r0, r2
1000b6ee:	600b      	str	r3, [r1, #0]
1000b6f0:	4611      	mov	r1, r2
1000b6f2:	9b01      	ldr	r3, [sp, #4]
1000b6f4:	2b00      	cmp	r3, #0
1000b6f6:	d0c8      	beq.n	1000b68a <_strtoull_l.isra.0+0xca>
1000b6f8:	f105 3bff 	add.w	fp, r5, #4294967295	@ 0xffffffff
1000b6fc:	e7c2      	b.n	1000b684 <_strtoull_l.isra.0+0xc4>
1000b6fe:	2301      	movs	r3, #1
1000b700:	782c      	ldrb	r4, [r5, #0]
1000b702:	1c8d      	adds	r5, r1, #2
1000b704:	9302      	str	r3, [sp, #8]
1000b706:	e771      	b.n	1000b5ec <_strtoull_l.isra.0+0x2c>
1000b708:	782b      	ldrb	r3, [r5, #0]
1000b70a:	f003 03df 	and.w	r3, r3, #223	@ 0xdf
1000b70e:	2b58      	cmp	r3, #88	@ 0x58
1000b710:	d1df      	bne.n	1000b6d2 <_strtoull_l.isra.0+0x112>
1000b712:	f04f 0910 	mov.w	r9, #16
1000b716:	786c      	ldrb	r4, [r5, #1]
1000b718:	f04f 0c0f 	mov.w	ip, #15
1000b71c:	3502      	adds	r5, #2
1000b71e:	f04f 37ff 	mov.w	r7, #4294967295	@ 0xffffffff
1000b722:	f06f 4870 	mvn.w	r8, #4026531840	@ 0xf0000000
1000b726:	464e      	mov	r6, r9
1000b728:	e779      	b.n	1000b61e <_strtoull_l.isra.0+0x5e>
1000b72a:	f04f 0908 	mov.w	r9, #8
1000b72e:	46b2      	mov	sl, r6
1000b730:	f04f 0c07 	mov.w	ip, #7
1000b734:	f04f 37ff 	mov.w	r7, #4294967295	@ 0xffffffff
1000b738:	f06f 4860 	mvn.w	r8, #3758096384	@ 0xe0000000
1000b73c:	464e      	mov	r6, r9
1000b73e:	e76e      	b.n	1000b61e <_strtoull_l.isra.0+0x5e>
1000b740:	1000e1e5 	.word	0x1000e1e5
1000b744:	19999999 	.word	0x19999999

1000b748 <_strtoull_r>:
1000b748:	f7ff bf3a 	b.w	1000b5c0 <_strtoull_l.isra.0>

1000b74c <_mbrtowc_r>:
1000b74c:	b570      	push	{r4, r5, r6, lr}
1000b74e:	b082      	sub	sp, #8
1000b750:	4604      	mov	r4, r0
1000b752:	9d06      	ldr	r5, [sp, #24]
1000b754:	b155      	cbz	r5, 1000b76c <_mbrtowc_r+0x20>
1000b756:	4810      	ldr	r0, [pc, #64]	@ (1000b798 <_mbrtowc_r+0x4c>)
1000b758:	f8d0 60e4 	ldr.w	r6, [r0, #228]	@ 0xe4
1000b75c:	b16a      	cbz	r2, 1000b77a <_mbrtowc_r+0x2e>
1000b75e:	4620      	mov	r0, r4
1000b760:	9500      	str	r5, [sp, #0]
1000b762:	47b0      	blx	r6
1000b764:	1c43      	adds	r3, r0, #1
1000b766:	d010      	beq.n	1000b78a <_mbrtowc_r+0x3e>
1000b768:	b002      	add	sp, #8
1000b76a:	bd70      	pop	{r4, r5, r6, pc}
1000b76c:	f100 05f4 	add.w	r5, r0, #244	@ 0xf4
1000b770:	4809      	ldr	r0, [pc, #36]	@ (1000b798 <_mbrtowc_r+0x4c>)
1000b772:	f8d0 60e4 	ldr.w	r6, [r0, #228]	@ 0xe4
1000b776:	2a00      	cmp	r2, #0
1000b778:	d1f1      	bne.n	1000b75e <_mbrtowc_r+0x12>
1000b77a:	2301      	movs	r3, #1
1000b77c:	4611      	mov	r1, r2
1000b77e:	4620      	mov	r0, r4
1000b780:	4a06      	ldr	r2, [pc, #24]	@ (1000b79c <_mbrtowc_r+0x50>)
1000b782:	9500      	str	r5, [sp, #0]
1000b784:	47b0      	blx	r6
1000b786:	1c43      	adds	r3, r0, #1
1000b788:	d1ee      	bne.n	1000b768 <_mbrtowc_r+0x1c>
1000b78a:	2200      	movs	r2, #0
1000b78c:	238a      	movs	r3, #138	@ 0x8a
1000b78e:	602a      	str	r2, [r5, #0]
1000b790:	6023      	str	r3, [r4, #0]
1000b792:	b002      	add	sp, #8
1000b794:	bd70      	pop	{r4, r5, r6, pc}
1000b796:	bf00      	nop
1000b798:	20000bb8 	.word	0x20000bb8
1000b79c:	1000d1d8 	.word	0x1000d1d8

1000b7a0 <iswspace>:
1000b7a0:	2100      	movs	r1, #0
1000b7a2:	f000 b801 	b.w	1000b7a8 <iswspace_l>
1000b7a6:	bf00      	nop

1000b7a8 <iswspace_l>:
1000b7a8:	b510      	push	{r4, lr}
1000b7aa:	f000 f8b7 	bl	1000b91c <_jp2uc_l>
1000b7ae:	4604      	mov	r4, r0
1000b7b0:	f001 fa82 	bl	1000ccb8 <category>
1000b7b4:	f1a0 031a 	sub.w	r3, r0, #26
1000b7b8:	b2db      	uxtb	r3, r3
1000b7ba:	2b02      	cmp	r3, #2
1000b7bc:	d801      	bhi.n	1000b7c2 <iswspace_l+0x1a>
1000b7be:	2001      	movs	r0, #1
1000b7c0:	bd10      	pop	{r4, pc}
1000b7c2:	f1a4 0009 	sub.w	r0, r4, #9
1000b7c6:	2804      	cmp	r0, #4
1000b7c8:	bf8c      	ite	hi
1000b7ca:	2000      	movhi	r0, #0
1000b7cc:	2001      	movls	r0, #1
1000b7ce:	bd10      	pop	{r4, pc}

1000b7d0 <__jp2uc>:
1000b7d0:	2902      	cmp	r1, #2
1000b7d2:	f3c0 2307 	ubfx	r3, r0, #8, #8
1000b7d6:	fa5f fc80 	uxtb.w	ip, r0
1000b7da:	d025      	beq.n	1000b828 <__jp2uc+0x58>
1000b7dc:	2903      	cmp	r1, #3
1000b7de:	d003      	beq.n	1000b7e8 <__jp2uc+0x18>
1000b7e0:	f083 0380 	eor.w	r3, r3, #128	@ 0x80
1000b7e4:	f08c 0c80 	eor.w	ip, ip, #128	@ 0x80
1000b7e8:	f103 0250 	add.w	r2, r3, #80	@ 0x50
1000b7ec:	b2d2      	uxtb	r2, r2
1000b7ee:	2a1f      	cmp	r2, #31
1000b7f0:	d90b      	bls.n	1000b80a <__jp2uc+0x3a>
1000b7f2:	f103 0230 	add.w	r2, r3, #48	@ 0x30
1000b7f6:	b2d2      	uxtb	r2, r2
1000b7f8:	2a24      	cmp	r2, #36	@ 0x24
1000b7fa:	d83b      	bhi.n	1000b874 <__jp2uc+0xa4>
1000b7fc:	f24f 42a6 	movw	r2, #62630	@ 0xf4a6
1000b800:	4290      	cmp	r0, r2
1000b802:	d92c      	bls.n	1000b85e <__jp2uc+0x8e>
1000b804:	f04f 30ff 	mov.w	r0, #4294967295	@ 0xffffffff
1000b808:	4770      	bx	lr
1000b80a:	f64c 72d3 	movw	r2, #53203	@ 0xcfd3
1000b80e:	4290      	cmp	r0, r2
1000b810:	d8f8      	bhi.n	1000b804 <__jp2uc+0x34>
1000b812:	3bb0      	subs	r3, #176	@ 0xb0
1000b814:	f1ac 0ca1 	sub.w	ip, ip, #161	@ 0xa1
1000b818:	4a38      	ldr	r2, [pc, #224]	@ (1000b8fc <__jp2uc+0x12c>)
1000b81a:	ebc3 13c3 	rsb	r3, r3, r3, lsl #7
1000b81e:	eb0c 0343 	add.w	r3, ip, r3, lsl #1
1000b822:	f832 0013 	ldrh.w	r0, [r2, r3, lsl #1]
1000b826:	4770      	bx	lr
1000b828:	f1bc 0f9e 	cmp.w	ip, #158	@ 0x9e
1000b82c:	d911      	bls.n	1000b852 <__jp2uc+0x82>
1000b82e:	f10c 0c23 	add.w	ip, ip, #35	@ 0x23
1000b832:	2280      	movs	r2, #128	@ 0x80
1000b834:	fa5f fc8c 	uxtb.w	ip, ip
1000b838:	2b9f      	cmp	r3, #159	@ 0x9f
1000b83a:	bf94      	ite	ls
1000b83c:	3b70      	subls	r3, #112	@ 0x70
1000b83e:	3350      	addhi	r3, #80	@ 0x50
1000b840:	eb02 0243 	add.w	r2, r2, r3, lsl #1
1000b844:	b2d3      	uxtb	r3, r2
1000b846:	f103 0250 	add.w	r2, r3, #80	@ 0x50
1000b84a:	b2d2      	uxtb	r2, r2
1000b84c:	2a1f      	cmp	r2, #31
1000b84e:	d8d0      	bhi.n	1000b7f2 <__jp2uc+0x22>
1000b850:	e7db      	b.n	1000b80a <__jp2uc+0x3a>
1000b852:	f1ac 0c7e 	sub.w	ip, ip, #126	@ 0x7e
1000b856:	227f      	movs	r2, #127	@ 0x7f
1000b858:	fa5f fc8c 	uxtb.w	ip, ip
1000b85c:	e7ec      	b.n	1000b838 <__jp2uc+0x68>
1000b85e:	3bd0      	subs	r3, #208	@ 0xd0
1000b860:	f1ac 0ca1 	sub.w	ip, ip, #161	@ 0xa1
1000b864:	4a26      	ldr	r2, [pc, #152]	@ (1000b900 <__jp2uc+0x130>)
1000b866:	ebc3 13c3 	rsb	r3, r3, r3, lsl #7
1000b86a:	eb0c 0343 	add.w	r3, ip, r3, lsl #1
1000b86e:	f832 0013 	ldrh.w	r0, [r2, r3, lsl #1]
1000b872:	4770      	bx	lr
1000b874:	3ba1      	subs	r3, #161	@ 0xa1
1000b876:	2b07      	cmp	r3, #7
1000b878:	d8c4      	bhi.n	1000b804 <__jp2uc+0x34>
1000b87a:	e8df f003 	tbb	[pc, r3]
1000b87e:	2e38      	.short	0x2e38
1000b880:	12171d24 	.word	0x12171d24
1000b884:	040d      	.short	0x040d
1000b886:	f1bc 0fc0 	cmp.w	ip, #192	@ 0xc0
1000b88a:	d8bb      	bhi.n	1000b804 <__jp2uc+0x34>
1000b88c:	4a1d      	ldr	r2, [pc, #116]	@ (1000b904 <__jp2uc+0x134>)
1000b88e:	f1ac 03a1 	sub.w	r3, ip, #161	@ 0xa1
1000b892:	f832 0013 	ldrh.w	r0, [r2, r3, lsl #1]
1000b896:	4770      	bx	lr
1000b898:	f1bc 0ff1 	cmp.w	ip, #241	@ 0xf1
1000b89c:	d8b2      	bhi.n	1000b804 <__jp2uc+0x34>
1000b89e:	4a1a      	ldr	r2, [pc, #104]	@ (1000b908 <__jp2uc+0x138>)
1000b8a0:	e01c      	b.n	1000b8dc <__jp2uc+0x10c>
1000b8a2:	f1bc 0fd8 	cmp.w	ip, #216	@ 0xd8
1000b8a6:	d8ad      	bhi.n	1000b804 <__jp2uc+0x34>
1000b8a8:	4a18      	ldr	r2, [pc, #96]	@ (1000b90c <__jp2uc+0x13c>)
1000b8aa:	e017      	b.n	1000b8dc <__jp2uc+0x10c>
1000b8ac:	f1bc 0ff6 	cmp.w	ip, #246	@ 0xf6
1000b8b0:	d8a8      	bhi.n	1000b804 <__jp2uc+0x34>
1000b8b2:	f50c 5040 	add.w	r0, ip, #12288	@ 0x3000
1000b8b6:	4770      	bx	lr
1000b8b8:	f1bc 0ff3 	cmp.w	ip, #243	@ 0xf3
1000b8bc:	d8a2      	bhi.n	1000b804 <__jp2uc+0x34>
1000b8be:	f642 70a0 	movw	r0, #12192	@ 0x2fa0
1000b8c2:	4460      	add	r0, ip
1000b8c4:	4770      	bx	lr
1000b8c6:	4b12      	ldr	r3, [pc, #72]	@ (1000b910 <__jp2uc+0x140>)
1000b8c8:	4463      	add	r3, ip
1000b8ca:	f813 3ca1 	ldrb.w	r3, [r3, #-161]
1000b8ce:	2b00      	cmp	r3, #0
1000b8d0:	d098      	beq.n	1000b804 <__jp2uc+0x34>
1000b8d2:	f64f 6060 	movw	r0, #65120	@ 0xfe60
1000b8d6:	4460      	add	r0, ip
1000b8d8:	4770      	bx	lr
1000b8da:	4a0e      	ldr	r2, [pc, #56]	@ (1000b914 <__jp2uc+0x144>)
1000b8dc:	f1ac 03a1 	sub.w	r3, ip, #161	@ 0xa1
1000b8e0:	f832 0013 	ldrh.w	r0, [r2, r3, lsl #1]
1000b8e4:	2800      	cmp	r0, #0
1000b8e6:	bf08      	it	eq
1000b8e8:	f04f 30ff 	moveq.w	r0, #4294967295	@ 0xffffffff
1000b8ec:	4770      	bx	lr
1000b8ee:	4a0a      	ldr	r2, [pc, #40]	@ (1000b918 <__jp2uc+0x148>)
1000b8f0:	f1ac 03a1 	sub.w	r3, ip, #161	@ 0xa1
1000b8f4:	f832 0013 	ldrh.w	r0, [r2, r3, lsl #1]
1000b8f8:	4770      	bx	lr
1000b8fa:	bf00      	nop
1000b8fc:	1000fddc 	.word	0x1000fddc
1000b900:	1000e360 	.word	0x1000e360
1000b904:	10011508 	.word	0x10011508
1000b908:	10011548 	.word	0x10011548
1000b90c:	100115ec 	.word	0x100115ec
1000b910:	1001165c 	.word	0x1001165c
1000b914:	100116b8 	.word	0x100116b8
1000b918:	10011774 	.word	0x10011774

1000b91c <_jp2uc_l>:
1000b91c:	b538      	push	{r3, r4, r5, lr}
1000b91e:	4605      	mov	r5, r0
1000b920:	b1b9      	cbz	r1, 1000b952 <_jp2uc_l+0x36>
1000b922:	f501 7495 	add.w	r4, r1, #298	@ 0x12a
1000b926:	4912      	ldr	r1, [pc, #72]	@ (1000b970 <_jp2uc_l+0x54>)
1000b928:	4620      	mov	r0, r4
1000b92a:	f7fc fa0d 	bl	10007d48 <strcmp>
1000b92e:	b928      	cbnz	r0, 1000b93c <_jp2uc_l+0x20>
1000b930:	4628      	mov	r0, r5
1000b932:	2101      	movs	r1, #1
1000b934:	e8bd 4038 	ldmia.w	sp!, {r3, r4, r5, lr}
1000b938:	f7ff bf4a 	b.w	1000b7d0 <__jp2uc>
1000b93c:	490d      	ldr	r1, [pc, #52]	@ (1000b974 <_jp2uc_l+0x58>)
1000b93e:	4620      	mov	r0, r4
1000b940:	f7fc fa02 	bl	10007d48 <strcmp>
1000b944:	b938      	cbnz	r0, 1000b956 <_jp2uc_l+0x3a>
1000b946:	4628      	mov	r0, r5
1000b948:	2102      	movs	r1, #2
1000b94a:	e8bd 4038 	ldmia.w	sp!, {r3, r4, r5, lr}
1000b94e:	f7ff bf3f 	b.w	1000b7d0 <__jp2uc>
1000b952:	4c09      	ldr	r4, [pc, #36]	@ (1000b978 <_jp2uc_l+0x5c>)
1000b954:	e7e7      	b.n	1000b926 <_jp2uc_l+0xa>
1000b956:	4909      	ldr	r1, [pc, #36]	@ (1000b97c <_jp2uc_l+0x60>)
1000b958:	4620      	mov	r0, r4
1000b95a:	f7fc f9f5 	bl	10007d48 <strcmp>
1000b95e:	b928      	cbnz	r0, 1000b96c <_jp2uc_l+0x50>
1000b960:	4628      	mov	r0, r5
1000b962:	2103      	movs	r1, #3
1000b964:	e8bd 4038 	ldmia.w	sp!, {r3, r4, r5, lr}
1000b968:	f7ff bf32 	b.w	1000b7d0 <__jp2uc>
1000b96c:	4628      	mov	r0, r5
1000b96e:	bd38      	pop	{r3, r4, r5, pc}
1000b970:	1000d2f0 	.word	0x1000d2f0
1000b974:	1000d2f4 	.word	0x1000d2f4
1000b978:	20000ce2 	.word	0x20000ce2
1000b97c:	1000d2fc 	.word	0x1000d2fc

1000b980 <nan>:
1000b980:	2000      	movs	r0, #0
1000b982:	4901      	ldr	r1, [pc, #4]	@ (1000b988 <nan+0x8>)
1000b984:	4770      	bx	lr
1000b986:	bf00      	nop
1000b988:	7ff80000 	.word	0x7ff80000

1000b98c <rshift>:
1000b98c:	e92d 41f0 	stmdb	sp!, {r4, r5, r6, r7, r8, lr}
1000b990:	6904      	ldr	r4, [r0, #16]
1000b992:	ebb4 1f61 	cmp.w	r4, r1, asr #5
1000b996:	dc05      	bgt.n	1000b9a4 <rshift+0x18>
1000b998:	2300      	movs	r3, #0
1000b99a:	6103      	str	r3, [r0, #16]
1000b99c:	2300      	movs	r3, #0
1000b99e:	6143      	str	r3, [r0, #20]
1000b9a0:	e8bd 81f0 	ldmia.w	sp!, {r4, r5, r6, r7, r8, pc}
1000b9a4:	f100 0c14 	add.w	ip, r0, #20
1000b9a8:	114e      	asrs	r6, r1, #5
1000b9aa:	f011 0e1f 	ands.w	lr, r1, #31
1000b9ae:	eb0c 0584 	add.w	r5, ip, r4, lsl #2
1000b9b2:	eb0c 0386 	add.w	r3, ip, r6, lsl #2
1000b9b6:	d023      	beq.n	1000ba00 <rshift+0x74>
1000b9b8:	3304      	adds	r3, #4
1000b9ba:	f85c 1026 	ldr.w	r1, [ip, r6, lsl #2]
1000b9be:	f1ce 0820 	rsb	r8, lr, #32
1000b9c2:	429d      	cmp	r5, r3
1000b9c4:	fa21 f10e 	lsr.w	r1, r1, lr
1000b9c8:	d930      	bls.n	1000ba2c <rshift+0xa0>
1000b9ca:	4667      	mov	r7, ip
1000b9cc:	681a      	ldr	r2, [r3, #0]
1000b9ce:	fa02 f208 	lsl.w	r2, r2, r8
1000b9d2:	430a      	orrs	r2, r1
1000b9d4:	f847 2b04 	str.w	r2, [r7], #4
1000b9d8:	f853 1b04 	ldr.w	r1, [r3], #4
1000b9dc:	429d      	cmp	r5, r3
1000b9de:	fa21 f10e 	lsr.w	r1, r1, lr
1000b9e2:	d8f3      	bhi.n	1000b9cc <rshift+0x40>
1000b9e4:	1ba3      	subs	r3, r4, r6
1000b9e6:	f10c 0204 	add.w	r2, ip, #4
1000b9ea:	009b      	lsls	r3, r3, #2
1000b9ec:	3b05      	subs	r3, #5
1000b9ee:	089c      	lsrs	r4, r3, #2
1000b9f0:	f023 0303 	bic.w	r3, r3, #3
1000b9f4:	f842 1024 	str.w	r1, [r2, r4, lsl #2]
1000b9f8:	4413      	add	r3, r2
1000b9fa:	b171      	cbz	r1, 1000ba1a <rshift+0x8e>
1000b9fc:	3304      	adds	r3, #4
1000b9fe:	e00c      	b.n	1000ba1a <rshift+0x8e>
1000ba00:	429d      	cmp	r5, r3
1000ba02:	d9c9      	bls.n	1000b998 <rshift+0xc>
1000ba04:	f100 0210 	add.w	r2, r0, #16
1000ba08:	f853 1b04 	ldr.w	r1, [r3], #4
1000ba0c:	429d      	cmp	r5, r3
1000ba0e:	f842 1f04 	str.w	r1, [r2, #4]!
1000ba12:	d8f9      	bhi.n	1000ba08 <rshift+0x7c>
1000ba14:	1ba3      	subs	r3, r4, r6
1000ba16:	eb0c 0383 	add.w	r3, ip, r3, lsl #2
1000ba1a:	eba3 020c 	sub.w	r2, r3, ip
1000ba1e:	4563      	cmp	r3, ip
1000ba20:	ea4f 02a2 	mov.w	r2, r2, asr #2
1000ba24:	6102      	str	r2, [r0, #16]
1000ba26:	d0b9      	beq.n	1000b99c <rshift+0x10>
1000ba28:	e8bd 81f0 	ldmia.w	sp!, {r4, r5, r6, r7, r8, pc}
1000ba2c:	6141      	str	r1, [r0, #20]
1000ba2e:	2900      	cmp	r1, #0
1000ba30:	d0b2      	beq.n	1000b998 <rshift+0xc>
1000ba32:	4663      	mov	r3, ip
1000ba34:	e7e2      	b.n	1000b9fc <rshift+0x70>
1000ba36:	bf00      	nop

1000ba38 <__gethex>:
1000ba38:	e92d 4ff0 	stmdb	sp!, {r4, r5, r6, r7, r8, r9, sl, fp, lr}
1000ba3c:	468a      	mov	sl, r1
1000ba3e:	b085      	sub	sp, #20
1000ba40:	6809      	ldr	r1, [r1, #0]
1000ba42:	9303      	str	r3, [sp, #12]
1000ba44:	788b      	ldrb	r3, [r1, #2]
1000ba46:	2b30      	cmp	r3, #48	@ 0x30
1000ba48:	e9cd 2000 	strd	r2, r0, [sp]
1000ba4c:	f040 81f8 	bne.w	1000be40 <__gethex+0x408>
1000ba50:	1cca      	adds	r2, r1, #3
1000ba52:	7813      	ldrb	r3, [r2, #0]
1000ba54:	4614      	mov	r4, r2
1000ba56:	3201      	adds	r2, #1
1000ba58:	2b30      	cmp	r3, #48	@ 0x30
1000ba5a:	d0fa      	beq.n	1000ba52 <__gethex+0x1a>
1000ba5c:	eba4 0901 	sub.w	r9, r4, r1
1000ba60:	f1a9 0902 	sub.w	r9, r9, #2
1000ba64:	f8df 830c 	ldr.w	r8, [pc, #780]	@ 1000bd74 <__gethex+0x33c>
1000ba68:	f818 3003 	ldrb.w	r3, [r8, r3]
1000ba6c:	2b00      	cmp	r3, #0
1000ba6e:	f000 80d3 	beq.w	1000bc18 <__gethex+0x1e0>
1000ba72:	7823      	ldrb	r3, [r4, #0]
1000ba74:	2700      	movs	r7, #0
1000ba76:	f818 3003 	ldrb.w	r3, [r8, r3]
1000ba7a:	463d      	mov	r5, r7
1000ba7c:	2b00      	cmp	r3, #0
1000ba7e:	f000 816a 	beq.w	1000bd56 <__gethex+0x31e>
1000ba82:	4626      	mov	r6, r4
1000ba84:	f816 3f01 	ldrb.w	r3, [r6, #1]!
1000ba88:	f818 3003 	ldrb.w	r3, [r8, r3]
1000ba8c:	2b00      	cmp	r3, #0
1000ba8e:	d1f9      	bne.n	1000ba84 <__gethex+0x4c>
1000ba90:	2201      	movs	r2, #1
1000ba92:	49b7      	ldr	r1, [pc, #732]	@ (1000bd70 <__gethex+0x338>)
1000ba94:	4630      	mov	r0, r6
1000ba96:	f7fe fa65 	bl	10009f64 <strncmp>
1000ba9a:	4683      	mov	fp, r0
1000ba9c:	2800      	cmp	r0, #0
1000ba9e:	d043      	beq.n	1000bb28 <__gethex+0xf0>
1000baa0:	7832      	ldrb	r2, [r6, #0]
1000baa2:	2d00      	cmp	r5, #0
1000baa4:	f000 81a2 	beq.w	1000bdec <__gethex+0x3b4>
1000baa8:	1bab      	subs	r3, r5, r6
1000baaa:	ea4f 0b83 	mov.w	fp, r3, lsl #2
1000baae:	f002 02df 	and.w	r2, r2, #223	@ 0xdf
1000bab2:	4635      	mov	r5, r6
1000bab4:	2a50      	cmp	r2, #80	@ 0x50
1000bab6:	d043      	beq.n	1000bb40 <__gethex+0x108>
1000bab8:	f8ca 6000 	str.w	r6, [sl]
1000babc:	2f00      	cmp	r7, #0
1000babe:	d154      	bne.n	1000bb6a <__gethex+0x132>
1000bac0:	1b2a      	subs	r2, r5, r4
1000bac2:	4639      	mov	r1, r7
1000bac4:	3a01      	subs	r2, #1
1000bac6:	2a07      	cmp	r2, #7
1000bac8:	dd03      	ble.n	1000bad2 <__gethex+0x9a>
1000baca:	1052      	asrs	r2, r2, #1
1000bacc:	3101      	adds	r1, #1
1000bace:	2a07      	cmp	r2, #7
1000bad0:	dcfb      	bgt.n	1000baca <__gethex+0x92>
1000bad2:	9801      	ldr	r0, [sp, #4]
1000bad4:	f000 fbb0 	bl	1000c238 <_Balloc>
1000bad8:	4682      	mov	sl, r0
1000bada:	2800      	cmp	r0, #0
1000badc:	f000 82a5 	beq.w	1000c02a <__gethex+0x5f2>
1000bae0:	f100 0614 	add.w	r6, r0, #20
1000bae4:	42ac      	cmp	r4, r5
1000bae6:	9602      	str	r6, [sp, #8]
1000bae8:	f080 81e3 	bcs.w	1000beb2 <__gethex+0x47a>
1000baec:	2700      	movs	r7, #0
1000baee:	46b9      	mov	r9, r7
1000baf0:	e00c      	b.n	1000bb0c <__gethex+0xd4>
1000baf2:	463a      	mov	r2, r7
1000baf4:	3704      	adds	r7, #4
1000baf6:	782b      	ldrb	r3, [r5, #0]
1000baf8:	42a5      	cmp	r5, r4
1000bafa:	f818 3003 	ldrb.w	r3, [r8, r3]
1000bafe:	f003 030f 	and.w	r3, r3, #15
1000bb02:	fa03 f302 	lsl.w	r3, r3, r2
1000bb06:	ea49 0903 	orr.w	r9, r9, r3
1000bb0a:	d040      	beq.n	1000bb8e <__gethex+0x156>
1000bb0c:	f815 3d01 	ldrb.w	r3, [r5, #-1]!
1000bb10:	2b2e      	cmp	r3, #46	@ 0x2e
1000bb12:	d101      	bne.n	1000bb18 <__gethex+0xe0>
1000bb14:	42a5      	cmp	r5, r4
1000bb16:	d231      	bcs.n	1000bb7c <__gethex+0x144>
1000bb18:	2f20      	cmp	r7, #32
1000bb1a:	d1ea      	bne.n	1000baf2 <__gethex+0xba>
1000bb1c:	2200      	movs	r2, #0
1000bb1e:	f846 9b04 	str.w	r9, [r6], #4
1000bb22:	2704      	movs	r7, #4
1000bb24:	4691      	mov	r9, r2
1000bb26:	e7e6      	b.n	1000baf6 <__gethex+0xbe>
1000bb28:	2d00      	cmp	r5, #0
1000bb2a:	f000 817a 	beq.w	1000be22 <__gethex+0x3ea>
1000bb2e:	7832      	ldrb	r2, [r6, #0]
1000bb30:	1bab      	subs	r3, r5, r6
1000bb32:	4635      	mov	r5, r6
1000bb34:	f002 02df 	and.w	r2, r2, #223	@ 0xdf
1000bb38:	ea4f 0b83 	mov.w	fp, r3, lsl #2
1000bb3c:	2a50      	cmp	r2, #80	@ 0x50
1000bb3e:	d1bb      	bne.n	1000bab8 <__gethex+0x80>
1000bb40:	786a      	ldrb	r2, [r5, #1]
1000bb42:	2a2b      	cmp	r2, #43	@ 0x2b
1000bb44:	f000 8150 	beq.w	1000bde8 <__gethex+0x3b0>
1000bb48:	2a2d      	cmp	r2, #45	@ 0x2d
1000bb4a:	f040 80d6 	bne.w	1000bcfa <__gethex+0x2c2>
1000bb4e:	2001      	movs	r0, #1
1000bb50:	78aa      	ldrb	r2, [r5, #2]
1000bb52:	1cae      	adds	r6, r5, #2
1000bb54:	f818 1002 	ldrb.w	r1, [r8, r2]
1000bb58:	1e4a      	subs	r2, r1, #1
1000bb5a:	2a18      	cmp	r2, #24
1000bb5c:	f240 80d5 	bls.w	1000bd0a <__gethex+0x2d2>
1000bb60:	462e      	mov	r6, r5
1000bb62:	f8ca 6000 	str.w	r6, [sl]
1000bb66:	2f00      	cmp	r7, #0
1000bb68:	d0aa      	beq.n	1000bac0 <__gethex+0x88>
1000bb6a:	f1b9 0f00 	cmp.w	r9, #0
1000bb6e:	bf0c      	ite	eq
1000bb70:	2406      	moveq	r4, #6
1000bb72:	2400      	movne	r4, #0
1000bb74:	4620      	mov	r0, r4
1000bb76:	b005      	add	sp, #20
1000bb78:	e8bd 8ff0 	ldmia.w	sp!, {r4, r5, r6, r7, r8, r9, sl, fp, pc}
1000bb7c:	2201      	movs	r2, #1
1000bb7e:	497c      	ldr	r1, [pc, #496]	@ (1000bd70 <__gethex+0x338>)
1000bb80:	4628      	mov	r0, r5
1000bb82:	f7fe f9ef 	bl	10009f64 <strncmp>
1000bb86:	2800      	cmp	r0, #0
1000bb88:	d1c6      	bne.n	1000bb18 <__gethex+0xe0>
1000bb8a:	42a5      	cmp	r5, r4
1000bb8c:	d1be      	bne.n	1000bb0c <__gethex+0xd4>
1000bb8e:	9b02      	ldr	r3, [sp, #8]
1000bb90:	4648      	mov	r0, r9
1000bb92:	f846 9b04 	str.w	r9, [r6], #4
1000bb96:	1af6      	subs	r6, r6, r3
1000bb98:	10b6      	asrs	r6, r6, #2
1000bb9a:	f8ca 6010 	str.w	r6, [sl, #16]
1000bb9e:	0176      	lsls	r6, r6, #5
1000bba0:	f000 fc24 	bl	1000c3ec <__hi0bits>
1000bba4:	9b00      	ldr	r3, [sp, #0]
1000bba6:	1a36      	subs	r6, r6, r0
1000bba8:	681d      	ldr	r5, [r3, #0]
1000bbaa:	42ae      	cmp	r6, r5
1000bbac:	dc57      	bgt.n	1000bc5e <__gethex+0x226>
1000bbae:	f2c0 811f 	blt.w	1000bdf0 <__gethex+0x3b8>
1000bbb2:	9b00      	ldr	r3, [sp, #0]
1000bbb4:	689a      	ldr	r2, [r3, #8]
1000bbb6:	455a      	cmp	r2, fp
1000bbb8:	f2c0 810d 	blt.w	1000bdd6 <__gethex+0x39e>
1000bbbc:	685a      	ldr	r2, [r3, #4]
1000bbbe:	4593      	cmp	fp, r2
1000bbc0:	f280 80be 	bge.w	1000bd40 <__gethex+0x308>
1000bbc4:	eba2 0b0b 	sub.w	fp, r2, fp
1000bbc8:	45ab      	cmp	fp, r5
1000bbca:	da73      	bge.n	1000bcb4 <__gethex+0x27c>
1000bbcc:	f10b 36ff 	add.w	r6, fp, #4294967295	@ 0xffffffff
1000bbd0:	2e00      	cmp	r6, #0
1000bbd2:	f040 8181 	bne.w	1000bed8 <__gethex+0x4a0>
1000bbd6:	4637      	mov	r7, r6
1000bbd8:	1173      	asrs	r3, r6, #5
1000bbda:	9a02      	ldr	r2, [sp, #8]
1000bbdc:	f006 061f 	and.w	r6, r6, #31
1000bbe0:	eba5 050b 	sub.w	r5, r5, fp
1000bbe4:	f852 2023 	ldr.w	r2, [r2, r3, lsl #2]
1000bbe8:	2301      	movs	r3, #1
1000bbea:	4659      	mov	r1, fp
1000bbec:	4650      	mov	r0, sl
1000bbee:	40b3      	lsls	r3, r6
1000bbf0:	4213      	tst	r3, r2
1000bbf2:	f000 8180 	beq.w	1000bef6 <__gethex+0x4be>
1000bbf6:	f7ff fec9 	bl	1000b98c <rshift>
1000bbfa:	9b00      	ldr	r3, [sp, #0]
1000bbfc:	68dc      	ldr	r4, [r3, #12]
1000bbfe:	f8d3 b004 	ldr.w	fp, [r3, #4]
1000bc02:	2c02      	cmp	r4, #2
1000bc04:	f000 812f 	beq.w	1000be66 <__gethex+0x42e>
1000bc08:	2c03      	cmp	r4, #3
1000bc0a:	f000 818f 	beq.w	1000bf2c <__gethex+0x4f4>
1000bc0e:	2c01      	cmp	r4, #1
1000bc10:	f000 8188 	beq.w	1000bf24 <__gethex+0x4ec>
1000bc14:	2412      	movs	r4, #18
1000bc16:	e094      	b.n	1000bd42 <__gethex+0x30a>
1000bc18:	2201      	movs	r2, #1
1000bc1a:	4955      	ldr	r1, [pc, #340]	@ (1000bd70 <__gethex+0x338>)
1000bc1c:	4620      	mov	r0, r4
1000bc1e:	f7fe f9a1 	bl	10009f64 <strncmp>
1000bc22:	4607      	mov	r7, r0
1000bc24:	2800      	cmp	r0, #0
1000bc26:	f040 8098 	bne.w	1000bd5a <__gethex+0x322>
1000bc2a:	7863      	ldrb	r3, [r4, #1]
1000bc2c:	1c65      	adds	r5, r4, #1
1000bc2e:	f818 2003 	ldrb.w	r2, [r8, r3]
1000bc32:	2a00      	cmp	r2, #0
1000bc34:	f000 8093 	beq.w	1000bd5e <__gethex+0x326>
1000bc38:	2b30      	cmp	r3, #48	@ 0x30
1000bc3a:	462c      	mov	r4, r5
1000bc3c:	f040 8178 	bne.w	1000bf30 <__gethex+0x4f8>
1000bc40:	f814 3f01 	ldrb.w	r3, [r4, #1]!
1000bc44:	2b30      	cmp	r3, #48	@ 0x30
1000bc46:	d0fb      	beq.n	1000bc40 <__gethex+0x208>
1000bc48:	f818 3003 	ldrb.w	r3, [r8, r3]
1000bc4c:	f04f 0901 	mov.w	r9, #1
1000bc50:	fab3 f783 	clz	r7, r3
1000bc54:	097f      	lsrs	r7, r7, #5
1000bc56:	2b00      	cmp	r3, #0
1000bc58:	f47f af13 	bne.w	1000ba82 <__gethex+0x4a>
1000bc5c:	e07b      	b.n	1000bd56 <__gethex+0x31e>
1000bc5e:	1b76      	subs	r6, r6, r5
1000bc60:	4650      	mov	r0, sl
1000bc62:	4631      	mov	r1, r6
1000bc64:	f000 fffa 	bl	1000cc5c <__any_on>
1000bc68:	4607      	mov	r7, r0
1000bc6a:	b178      	cbz	r0, 1000bc8c <__gethex+0x254>
1000bc6c:	1e71      	subs	r1, r6, #1
1000bc6e:	9b02      	ldr	r3, [sp, #8]
1000bc70:	2701      	movs	r7, #1
1000bc72:	114a      	asrs	r2, r1, #5
1000bc74:	f853 0022 	ldr.w	r0, [r3, r2, lsl #2]
1000bc78:	f001 021f 	and.w	r2, r1, #31
1000bc7c:	fa07 f202 	lsl.w	r2, r7, r2
1000bc80:	4202      	tst	r2, r0
1000bc82:	d003      	beq.n	1000bc8c <__gethex+0x254>
1000bc84:	42b9      	cmp	r1, r7
1000bc86:	f300 812d 	bgt.w	1000bee4 <__gethex+0x4ac>
1000bc8a:	2702      	movs	r7, #2
1000bc8c:	4631      	mov	r1, r6
1000bc8e:	4650      	mov	r0, sl
1000bc90:	f7ff fe7c 	bl	1000b98c <rshift>
1000bc94:	9b00      	ldr	r3, [sp, #0]
1000bc96:	44b3      	add	fp, r6
1000bc98:	689a      	ldr	r2, [r3, #8]
1000bc9a:	455a      	cmp	r2, fp
1000bc9c:	f2c0 809b 	blt.w	1000bdd6 <__gethex+0x39e>
1000bca0:	9b00      	ldr	r3, [sp, #0]
1000bca2:	685a      	ldr	r2, [r3, #4]
1000bca4:	455a      	cmp	r2, fp
1000bca6:	f340 80cf 	ble.w	1000be48 <__gethex+0x410>
1000bcaa:	eba2 0b0b 	sub.w	fp, r2, fp
1000bcae:	455d      	cmp	r5, fp
1000bcb0:	f300 8103 	bgt.w	1000beba <__gethex+0x482>
1000bcb4:	9b00      	ldr	r3, [sp, #0]
1000bcb6:	68db      	ldr	r3, [r3, #12]
1000bcb8:	2b02      	cmp	r3, #2
1000bcba:	d05d      	beq.n	1000bd78 <__gethex+0x340>
1000bcbc:	2b03      	cmp	r3, #3
1000bcbe:	f000 8125 	beq.w	1000bf0c <__gethex+0x4d4>
1000bcc2:	2b01      	cmp	r3, #1
1000bcc4:	d15b      	bne.n	1000bd7e <__gethex+0x346>
1000bcc6:	45ab      	cmp	fp, r5
1000bcc8:	d159      	bne.n	1000bd7e <__gethex+0x346>
1000bcca:	f1bb 0f01 	cmp.w	fp, #1
1000bcce:	d008      	beq.n	1000bce2 <__gethex+0x2aa>
1000bcd0:	f10b 31ff 	add.w	r1, fp, #4294967295	@ 0xffffffff
1000bcd4:	4650      	mov	r0, sl
1000bcd6:	f000 ffc1 	bl	1000cc5c <__any_on>
1000bcda:	2800      	cmp	r0, #0
1000bcdc:	d04f      	beq.n	1000bd7e <__gethex+0x346>
1000bcde:	9b00      	ldr	r3, [sp, #0]
1000bce0:	685a      	ldr	r2, [r3, #4]
1000bce2:	9903      	ldr	r1, [sp, #12]
1000bce4:	2301      	movs	r3, #1
1000bce6:	2462      	movs	r4, #98	@ 0x62
1000bce8:	600a      	str	r2, [r1, #0]
1000bcea:	9a02      	ldr	r2, [sp, #8]
1000bcec:	f8ca 3010 	str.w	r3, [sl, #16]
1000bcf0:	6013      	str	r3, [r2, #0]
1000bcf2:	9b0e      	ldr	r3, [sp, #56]	@ 0x38
1000bcf4:	f8c3 a000 	str.w	sl, [r3]
1000bcf8:	e73c      	b.n	1000bb74 <__gethex+0x13c>
1000bcfa:	f818 1002 	ldrb.w	r1, [r8, r2]
1000bcfe:	1c6e      	adds	r6, r5, #1
1000bd00:	2000      	movs	r0, #0
1000bd02:	1e4a      	subs	r2, r1, #1
1000bd04:	2a18      	cmp	r2, #24
1000bd06:	f63f af2b 	bhi.w	1000bb60 <__gethex+0x128>
1000bd0a:	7872      	ldrb	r2, [r6, #1]
1000bd0c:	3910      	subs	r1, #16
1000bd0e:	3601      	adds	r6, #1
1000bd10:	f818 2002 	ldrb.w	r2, [r8, r2]
1000bd14:	f102 3cff 	add.w	ip, r2, #4294967295	@ 0xffffffff
1000bd18:	f1bc 0f18 	cmp.w	ip, #24
1000bd1c:	d80c      	bhi.n	1000bd38 <__gethex+0x300>
1000bd1e:	eb01 0181 	add.w	r1, r1, r1, lsl #2
1000bd22:	f816 3f01 	ldrb.w	r3, [r6, #1]!
1000bd26:	eb02 0241 	add.w	r2, r2, r1, lsl #1
1000bd2a:	f1a2 0110 	sub.w	r1, r2, #16
1000bd2e:	f818 2003 	ldrb.w	r2, [r8, r3]
1000bd32:	1e53      	subs	r3, r2, #1
1000bd34:	2b18      	cmp	r3, #24
1000bd36:	d9f2      	bls.n	1000bd1e <__gethex+0x2e6>
1000bd38:	b100      	cbz	r0, 1000bd3c <__gethex+0x304>
1000bd3a:	4249      	negs	r1, r1
1000bd3c:	448b      	add	fp, r1
1000bd3e:	e6bb      	b.n	1000bab8 <__gethex+0x80>
1000bd40:	2401      	movs	r4, #1
1000bd42:	9b0e      	ldr	r3, [sp, #56]	@ 0x38
1000bd44:	4620      	mov	r0, r4
1000bd46:	f8c3 a000 	str.w	sl, [r3]
1000bd4a:	9b03      	ldr	r3, [sp, #12]
1000bd4c:	f8c3 b000 	str.w	fp, [r3]
1000bd50:	b005      	add	sp, #20
1000bd52:	e8bd 8ff0 	ldmia.w	sp!, {r4, r5, r6, r7, r8, r9, sl, fp, pc}
1000bd56:	4626      	mov	r6, r4
1000bd58:	e69a      	b.n	1000ba90 <__gethex+0x58>
1000bd5a:	7823      	ldrb	r3, [r4, #0]
1000bd5c:	4625      	mov	r5, r4
1000bd5e:	f003 03df 	and.w	r3, r3, #223	@ 0xdf
1000bd62:	2b50      	cmp	r3, #80	@ 0x50
1000bd64:	f000 80ce 	beq.w	1000bf04 <__gethex+0x4cc>
1000bd68:	f8ca 5000 	str.w	r5, [sl]
1000bd6c:	e6fd      	b.n	1000bb6a <__gethex+0x132>
1000bd6e:	bf00      	nop
1000bd70:	1000d298 	.word	0x1000d298
1000bd74:	10011830 	.word	0x10011830
1000bd78:	9b0f      	ldr	r3, [sp, #60]	@ 0x3c
1000bd7a:	2b00      	cmp	r3, #0
1000bd7c:	d0b1      	beq.n	1000bce2 <__gethex+0x2aa>
1000bd7e:	2450      	movs	r4, #80	@ 0x50
1000bd80:	9801      	ldr	r0, [sp, #4]
1000bd82:	4651      	mov	r1, sl
1000bd84:	f000 fa7e 	bl	1000c284 <_Bfree>
1000bd88:	2300      	movs	r3, #0
1000bd8a:	9a0e      	ldr	r2, [sp, #56]	@ 0x38
1000bd8c:	4620      	mov	r0, r4
1000bd8e:	6013      	str	r3, [r2, #0]
1000bd90:	b005      	add	sp, #20
1000bd92:	e8bd 8ff0 	ldmia.w	sp!, {r4, r5, r6, r7, r8, r9, sl, fp, pc}
1000bd96:	f8da 2008 	ldr.w	r2, [sl, #8]
1000bd9a:	4297      	cmp	r7, r2
1000bd9c:	f280 80cb 	bge.w	1000bf36 <__gethex+0x4fe>
1000bda0:	1c7a      	adds	r2, r7, #1
1000bda2:	2101      	movs	r1, #1
1000bda4:	eb0a 0787 	add.w	r7, sl, r7, lsl #2
1000bda8:	2c02      	cmp	r4, #2
1000bdaa:	f8ca 2010 	str.w	r2, [sl, #16]
1000bdae:	f8dd 8008 	ldr.w	r8, [sp, #8]
1000bdb2:	6179      	str	r1, [r7, #20]
1000bdb4:	f000 80af 	beq.w	1000bf16 <__gethex+0x4de>
1000bdb8:	2a00      	cmp	r2, #0
1000bdba:	f300 80e2 	bgt.w	1000bf82 <__gethex+0x54a>
1000bdbe:	2200      	movs	r2, #0
1000bdc0:	f8ca 2010 	str.w	r2, [sl, #16]
1000bdc4:	2200      	movs	r2, #0
1000bdc6:	f8ca 2014 	str.w	r2, [sl, #20]
1000bdca:	9b00      	ldr	r3, [sp, #0]
1000bdcc:	f10b 0b01 	add.w	fp, fp, #1
1000bdd0:	689a      	ldr	r2, [r3, #8]
1000bdd2:	455a      	cmp	r2, fp
1000bdd4:	da6b      	bge.n	1000beae <__gethex+0x476>
1000bdd6:	4651      	mov	r1, sl
1000bdd8:	9801      	ldr	r0, [sp, #4]
1000bdda:	f000 fa53 	bl	1000c284 <_Bfree>
1000bdde:	2300      	movs	r3, #0
1000bde0:	9a0e      	ldr	r2, [sp, #56]	@ 0x38
1000bde2:	24a3      	movs	r4, #163	@ 0xa3
1000bde4:	6013      	str	r3, [r2, #0]
1000bde6:	e6c5      	b.n	1000bb74 <__gethex+0x13c>
1000bde8:	2000      	movs	r0, #0
1000bdea:	e6b1      	b.n	1000bb50 <__gethex+0x118>
1000bdec:	46ab      	mov	fp, r5
1000bdee:	e65e      	b.n	1000baae <__gethex+0x76>
1000bdf0:	1bae      	subs	r6, r5, r6
1000bdf2:	4651      	mov	r1, sl
1000bdf4:	9801      	ldr	r0, [sp, #4]
1000bdf6:	4632      	mov	r2, r6
1000bdf8:	ebab 0b06 	sub.w	fp, fp, r6
1000bdfc:	f000 fca2 	bl	1000c744 <__lshift>
1000be00:	9b00      	ldr	r3, [sp, #0]
1000be02:	4682      	mov	sl, r0
1000be04:	689a      	ldr	r2, [r3, #8]
1000be06:	4593      	cmp	fp, r2
1000be08:	dce5      	bgt.n	1000bdd6 <__gethex+0x39e>
1000be0a:	685a      	ldr	r2, [r3, #4]
1000be0c:	4593      	cmp	fp, r2
1000be0e:	da97      	bge.n	1000bd40 <__gethex+0x308>
1000be10:	eba2 0b0b 	sub.w	fp, r2, fp
1000be14:	f100 0314 	add.w	r3, r0, #20
1000be18:	45ab      	cmp	fp, r5
1000be1a:	9302      	str	r3, [sp, #8]
1000be1c:	f6bf af4a 	bge.w	1000bcb4 <__gethex+0x27c>
1000be20:	e6d4      	b.n	1000bbcc <__gethex+0x194>
1000be22:	7872      	ldrb	r2, [r6, #1]
1000be24:	1c75      	adds	r5, r6, #1
1000be26:	f818 1002 	ldrb.w	r1, [r8, r2]
1000be2a:	462e      	mov	r6, r5
1000be2c:	2900      	cmp	r1, #0
1000be2e:	f43f ae3e 	beq.w	1000baae <__gethex+0x76>
1000be32:	f816 2f01 	ldrb.w	r2, [r6, #1]!
1000be36:	f818 3002 	ldrb.w	r3, [r8, r2]
1000be3a:	2b00      	cmp	r3, #0
1000be3c:	d1f9      	bne.n	1000be32 <__gethex+0x3fa>
1000be3e:	e633      	b.n	1000baa8 <__gethex+0x70>
1000be40:	1c8c      	adds	r4, r1, #2
1000be42:	f04f 0900 	mov.w	r9, #0
1000be46:	e60d      	b.n	1000ba64 <__gethex+0x2c>
1000be48:	2401      	movs	r4, #1
1000be4a:	2f00      	cmp	r7, #0
1000be4c:	f43f af79 	beq.w	1000bd42 <__gethex+0x30a>
1000be50:	9b00      	ldr	r3, [sp, #0]
1000be52:	68da      	ldr	r2, [r3, #12]
1000be54:	2a02      	cmp	r2, #2
1000be56:	d006      	beq.n	1000be66 <__gethex+0x42e>
1000be58:	2a03      	cmp	r2, #3
1000be5a:	d008      	beq.n	1000be6e <__gethex+0x436>
1000be5c:	2a01      	cmp	r2, #1
1000be5e:	d033      	beq.n	1000bec8 <__gethex+0x490>
1000be60:	f044 0410 	orr.w	r4, r4, #16
1000be64:	e76d      	b.n	1000bd42 <__gethex+0x30a>
1000be66:	9b0f      	ldr	r3, [sp, #60]	@ 0x3c
1000be68:	f1c3 0301 	rsb	r3, r3, #1
1000be6c:	930f      	str	r3, [sp, #60]	@ 0x3c
1000be6e:	9b0f      	ldr	r3, [sp, #60]	@ 0x3c
1000be70:	2b00      	cmp	r3, #0
1000be72:	d0f5      	beq.n	1000be60 <__gethex+0x428>
1000be74:	9b02      	ldr	r3, [sp, #8]
1000be76:	2600      	movs	r6, #0
1000be78:	f8da 7010 	ldr.w	r7, [sl, #16]
1000be7c:	4698      	mov	r8, r3
1000be7e:	461a      	mov	r2, r3
1000be80:	ea4f 0987 	mov.w	r9, r7, lsl #2
1000be84:	eb03 0087 	add.w	r0, r3, r7, lsl #2
1000be88:	e003      	b.n	1000be92 <__gethex+0x45a>
1000be8a:	4290      	cmp	r0, r2
1000be8c:	f842 6c04 	str.w	r6, [r2, #-4]
1000be90:	d981      	bls.n	1000bd96 <__gethex+0x35e>
1000be92:	4694      	mov	ip, r2
1000be94:	f852 1b04 	ldr.w	r1, [r2], #4
1000be98:	1c4b      	adds	r3, r1, #1
1000be9a:	d0f6      	beq.n	1000be8a <__gethex+0x452>
1000be9c:	3101      	adds	r1, #1
1000be9e:	2c02      	cmp	r4, #2
1000bea0:	f8cc 1000 	str.w	r1, [ip]
1000bea4:	d037      	beq.n	1000bf16 <__gethex+0x4de>
1000bea6:	f015 051f 	ands.w	r5, r5, #31
1000beaa:	f040 8097 	bne.w	1000bfdc <__gethex+0x5a4>
1000beae:	2421      	movs	r4, #33	@ 0x21
1000beb0:	e747      	b.n	1000bd42 <__gethex+0x30a>
1000beb2:	9e02      	ldr	r6, [sp, #8]
1000beb4:	f04f 0900 	mov.w	r9, #0
1000beb8:	e669      	b.n	1000bb8e <__gethex+0x156>
1000beba:	f10b 36ff 	add.w	r6, fp, #4294967295	@ 0xffffffff
1000bebe:	2f00      	cmp	r7, #0
1000bec0:	f43f ae86 	beq.w	1000bbd0 <__gethex+0x198>
1000bec4:	2701      	movs	r7, #1
1000bec6:	e687      	b.n	1000bbd8 <__gethex+0x1a0>
1000bec8:	07b9      	lsls	r1, r7, #30
1000beca:	d5c9      	bpl.n	1000be60 <__gethex+0x428>
1000becc:	9b02      	ldr	r3, [sp, #8]
1000bece:	681a      	ldr	r2, [r3, #0]
1000bed0:	4317      	orrs	r7, r2
1000bed2:	07fa      	lsls	r2, r7, #31
1000bed4:	d4ce      	bmi.n	1000be74 <__gethex+0x43c>
1000bed6:	e7c3      	b.n	1000be60 <__gethex+0x428>
1000bed8:	4631      	mov	r1, r6
1000beda:	4650      	mov	r0, sl
1000bedc:	f000 febe 	bl	1000cc5c <__any_on>
1000bee0:	4607      	mov	r7, r0
1000bee2:	e679      	b.n	1000bbd8 <__gethex+0x1a0>
1000bee4:	1eb1      	subs	r1, r6, #2
1000bee6:	4650      	mov	r0, sl
1000bee8:	f000 feb8 	bl	1000cc5c <__any_on>
1000beec:	2800      	cmp	r0, #0
1000beee:	f43f aecc 	beq.w	1000bc8a <__gethex+0x252>
1000bef2:	2703      	movs	r7, #3
1000bef4:	e6ca      	b.n	1000bc8c <__gethex+0x254>
1000bef6:	f7ff fd49 	bl	1000b98c <rshift>
1000befa:	9b00      	ldr	r3, [sp, #0]
1000befc:	2402      	movs	r4, #2
1000befe:	f8d3 b004 	ldr.w	fp, [r3, #4]
1000bf02:	e7a2      	b.n	1000be4a <__gethex+0x412>
1000bf04:	f04f 0b00 	mov.w	fp, #0
1000bf08:	2701      	movs	r7, #1
1000bf0a:	e619      	b.n	1000bb40 <__gethex+0x108>
1000bf0c:	9b0f      	ldr	r3, [sp, #60]	@ 0x3c
1000bf0e:	2b00      	cmp	r3, #0
1000bf10:	f47f aee7 	bne.w	1000bce2 <__gethex+0x2aa>
1000bf14:	e733      	b.n	1000bd7e <__gethex+0x346>
1000bf16:	9b00      	ldr	r3, [sp, #0]
1000bf18:	681a      	ldr	r2, [r3, #0]
1000bf1a:	3a01      	subs	r2, #1
1000bf1c:	42aa      	cmp	r2, r5
1000bf1e:	d06a      	beq.n	1000bff6 <__gethex+0x5be>
1000bf20:	2422      	movs	r4, #34	@ 0x22
1000bf22:	e70e      	b.n	1000bd42 <__gethex+0x30a>
1000bf24:	f047 0702 	orr.w	r7, r7, #2
1000bf28:	2402      	movs	r4, #2
1000bf2a:	e7cf      	b.n	1000becc <__gethex+0x494>
1000bf2c:	2402      	movs	r4, #2
1000bf2e:	e79e      	b.n	1000be6e <__gethex+0x436>
1000bf30:	f04f 0901 	mov.w	r9, #1
1000bf34:	e5a5      	b.n	1000ba82 <__gethex+0x4a>
1000bf36:	f8da 1004 	ldr.w	r1, [sl, #4]
1000bf3a:	9801      	ldr	r0, [sp, #4]
1000bf3c:	3101      	adds	r1, #1
1000bf3e:	f000 f97b 	bl	1000c238 <_Balloc>
1000bf42:	4606      	mov	r6, r0
1000bf44:	2800      	cmp	r0, #0
1000bf46:	d06a      	beq.n	1000c01e <__gethex+0x5e6>
1000bf48:	f8da 2010 	ldr.w	r2, [sl, #16]
1000bf4c:	f10a 010c 	add.w	r1, sl, #12
1000bf50:	300c      	adds	r0, #12
1000bf52:	f106 0814 	add.w	r8, r6, #20
1000bf56:	3202      	adds	r2, #2
1000bf58:	0092      	lsls	r2, r2, #2
1000bf5a:	f7fb ffd3 	bl	10007f04 <memcpy>
1000bf5e:	4651      	mov	r1, sl
1000bf60:	9801      	ldr	r0, [sp, #4]
1000bf62:	46b2      	mov	sl, r6
1000bf64:	f000 f98e 	bl	1000c284 <_Bfree>
1000bf68:	6931      	ldr	r1, [r6, #16]
1000bf6a:	2001      	movs	r0, #1
1000bf6c:	2c02      	cmp	r4, #2
1000bf6e:	eb01 0200 	add.w	r2, r1, r0
1000bf72:	eb06 0181 	add.w	r1, r6, r1, lsl #2
1000bf76:	6132      	str	r2, [r6, #16]
1000bf78:	6148      	str	r0, [r1, #20]
1000bf7a:	d0cc      	beq.n	1000bf16 <__gethex+0x4de>
1000bf7c:	4297      	cmp	r7, r2
1000bf7e:	da92      	bge.n	1000bea6 <__gethex+0x46e>
1000bf80:	e71a      	b.n	1000bdb8 <__gethex+0x380>
1000bf82:	eb08 0482 	add.w	r4, r8, r2, lsl #2
1000bf86:	f10a 0018 	add.w	r0, sl, #24
1000bf8a:	f8da 2014 	ldr.w	r2, [sl, #20]
1000bf8e:	4284      	cmp	r4, r0
1000bf90:	ea4f 0252 	mov.w	r2, r2, lsr #1
1000bf94:	d93b      	bls.n	1000c00e <__gethex+0x5d6>
1000bf96:	4645      	mov	r5, r8
1000bf98:	6803      	ldr	r3, [r0, #0]
1000bf9a:	ea42 72c3 	orr.w	r2, r2, r3, lsl #31
1000bf9e:	f845 2b04 	str.w	r2, [r5], #4
1000bfa2:	f850 2b04 	ldr.w	r2, [r0], #4
1000bfa6:	4284      	cmp	r4, r0
1000bfa8:	ea4f 0252 	mov.w	r2, r2, lsr #1
1000bfac:	d8f4      	bhi.n	1000bf98 <__gethex+0x560>
1000bfae:	eba4 010a 	sub.w	r1, r4, sl
1000bfb2:	f108 0004 	add.w	r0, r8, #4
1000bfb6:	3919      	subs	r1, #25
1000bfb8:	088c      	lsrs	r4, r1, #2
1000bfba:	f021 0103 	bic.w	r1, r1, #3
1000bfbe:	f840 2024 	str.w	r2, [r0, r4, lsl #2]
1000bfc2:	4401      	add	r1, r0
1000bfc4:	b102      	cbz	r2, 1000bfc8 <__gethex+0x590>
1000bfc6:	3104      	adds	r1, #4
1000bfc8:	eba1 0208 	sub.w	r2, r1, r8
1000bfcc:	4541      	cmp	r1, r8
1000bfce:	ea4f 02a2 	mov.w	r2, r2, asr #2
1000bfd2:	f8ca 2010 	str.w	r2, [sl, #16]
1000bfd6:	f47f aef8 	bne.w	1000bdca <__gethex+0x392>
1000bfda:	e6f3      	b.n	1000bdc4 <__gethex+0x38c>
1000bfdc:	44c1      	add	r9, r8
1000bfde:	f1c5 0520 	rsb	r5, r5, #32
1000bfe2:	f859 0c04 	ldr.w	r0, [r9, #-4]
1000bfe6:	f000 fa01 	bl	1000c3ec <__hi0bits>
1000bfea:	42a8      	cmp	r0, r5
1000bfec:	f6bf af5f 	bge.w	1000beae <__gethex+0x476>
1000bff0:	f8da 2010 	ldr.w	r2, [sl, #16]
1000bff4:	e6e0      	b.n	1000bdb8 <__gethex+0x380>
1000bff6:	116a      	asrs	r2, r5, #5
1000bff8:	f005 051f 	and.w	r5, r5, #31
1000bffc:	f858 1022 	ldr.w	r1, [r8, r2, lsl #2]
1000c000:	2201      	movs	r2, #1
1000c002:	40aa      	lsls	r2, r5
1000c004:	420a      	tst	r2, r1
1000c006:	bf14      	ite	ne
1000c008:	2421      	movne	r4, #33	@ 0x21
1000c00a:	2422      	moveq	r4, #34	@ 0x22
1000c00c:	e699      	b.n	1000bd42 <__gethex+0x30a>
1000c00e:	f8c8 2000 	str.w	r2, [r8]
1000c012:	b10a      	cbz	r2, 1000c018 <__gethex+0x5e0>
1000c014:	4641      	mov	r1, r8
1000c016:	e7d6      	b.n	1000bfc6 <__gethex+0x58e>
1000c018:	f8ca 2010 	str.w	r2, [sl, #16]
1000c01c:	e6d2      	b.n	1000bdc4 <__gethex+0x38c>
1000c01e:	4602      	mov	r2, r0
1000c020:	4b05      	ldr	r3, [pc, #20]	@ (1000c038 <__gethex+0x600>)
1000c022:	2184      	movs	r1, #132	@ 0x84
1000c024:	4805      	ldr	r0, [pc, #20]	@ (1000c03c <__gethex+0x604>)
1000c026:	f7fa fc8d 	bl	10006944 <__assert_func>
1000c02a:	4602      	mov	r2, r0
1000c02c:	4b02      	ldr	r3, [pc, #8]	@ (1000c038 <__gethex+0x600>)
1000c02e:	21e4      	movs	r1, #228	@ 0xe4
1000c030:	4802      	ldr	r0, [pc, #8]	@ (1000c03c <__gethex+0x604>)
1000c032:	f7fa fc87 	bl	10006944 <__assert_func>
1000c036:	bf00      	nop
1000c038:	1000d304 	.word	0x1000d304
1000c03c:	1000d318 	.word	0x1000d318

1000c040 <__match>:
1000c040:	b510      	push	{r4, lr}
1000c042:	6804      	ldr	r4, [r0, #0]
1000c044:	4686      	mov	lr, r0
1000c046:	3401      	adds	r4, #1
1000c048:	e009      	b.n	1000c05e <__match+0x1e>
1000c04a:	f814 3b01 	ldrb.w	r3, [r4], #1
1000c04e:	f1a3 0c41 	sub.w	ip, r3, #65	@ 0x41
1000c052:	f1bc 0f19 	cmp.w	ip, #25
1000c056:	bf98      	it	ls
1000c058:	3320      	addls	r3, #32
1000c05a:	4293      	cmp	r3, r2
1000c05c:	d107      	bne.n	1000c06e <__match+0x2e>
1000c05e:	f811 2b01 	ldrb.w	r2, [r1], #1
1000c062:	2a00      	cmp	r2, #0
1000c064:	d1f1      	bne.n	1000c04a <__match+0xa>
1000c066:	2001      	movs	r0, #1
1000c068:	f8ce 4000 	str.w	r4, [lr]
1000c06c:	bd10      	pop	{r4, pc}
1000c06e:	2000      	movs	r0, #0
1000c070:	bd10      	pop	{r4, pc}
1000c072:	bf00      	nop

1000c074 <__hexnan>:
1000c074:	6809      	ldr	r1, [r1, #0]
1000c076:	e92d 4ff0 	stmdb	sp!, {r4, r5, r6, r7, r8, r9, sl, fp, lr}
1000c07a:	114b      	asrs	r3, r1, #5
1000c07c:	b085      	sub	sp, #20
1000c07e:	f011 011f 	ands.w	r1, r1, #31
1000c082:	4604      	mov	r4, r0
1000c084:	eb02 0383 	add.w	r3, r2, r3, lsl #2
1000c088:	9102      	str	r1, [sp, #8]
1000c08a:	f040 809b 	bne.w	1000c1c4 <__hexnan+0x150>
1000c08e:	1f18      	subs	r0, r3, #4
1000c090:	4619      	mov	r1, r3
1000c092:	6825      	ldr	r5, [r4, #0]
1000c094:	2600      	movs	r6, #0
1000c096:	f841 6c04 	str.w	r6, [r1, #-4]
1000c09a:	3501      	adds	r5, #1
1000c09c:	782b      	ldrb	r3, [r5, #0]
1000c09e:	2b00      	cmp	r3, #0
1000c0a0:	f000 80a8 	beq.w	1000c1f4 <__hexnan+0x180>
1000c0a4:	46b4      	mov	ip, r6
1000c0a6:	9101      	str	r1, [sp, #4]
1000c0a8:	4606      	mov	r6, r0
1000c0aa:	4686      	mov	lr, r0
1000c0ac:	f8df 8184 	ldr.w	r8, [pc, #388]	@ 1000c234 <__hexnan+0x1c0>
1000c0b0:	46e1      	mov	r9, ip
1000c0b2:	4667      	mov	r7, ip
1000c0b4:	46e3      	mov	fp, ip
1000c0b6:	46aa      	mov	sl, r5
1000c0b8:	4601      	mov	r1, r0
1000c0ba:	9403      	str	r4, [sp, #12]
1000c0bc:	f818 0003 	ldrb.w	r0, [r8, r3]
1000c0c0:	2800      	cmp	r0, #0
1000c0c2:	d15d      	bne.n	1000c180 <__hexnan+0x10c>
1000c0c4:	2b20      	cmp	r3, #32
1000c0c6:	f200 808f 	bhi.w	1000c1e8 <__hexnan+0x174>
1000c0ca:	454f      	cmp	r7, r9
1000c0cc:	dd20      	ble.n	1000c110 <__hexnan+0x9c>
1000c0ce:	45b6      	cmp	lr, r6
1000c0d0:	d21a      	bcs.n	1000c108 <__hexnan+0x94>
1000c0d2:	f1bc 0f07 	cmp.w	ip, #7
1000c0d6:	dc17      	bgt.n	1000c108 <__hexnan+0x94>
1000c0d8:	f1cc 0408 	rsb	r4, ip, #8
1000c0dc:	f8de 3000 	ldr.w	r3, [lr]
1000c0e0:	4670      	mov	r0, lr
1000c0e2:	f8cd e000 	str.w	lr, [sp]
1000c0e6:	00a4      	lsls	r4, r4, #2
1000c0e8:	f1c4 0c20 	rsb	ip, r4, #32
1000c0ec:	46a6      	mov	lr, r4
1000c0ee:	6844      	ldr	r4, [r0, #4]
1000c0f0:	fa04 f50c 	lsl.w	r5, r4, ip
1000c0f4:	431d      	orrs	r5, r3
1000c0f6:	fa24 f30e 	lsr.w	r3, r4, lr
1000c0fa:	6005      	str	r5, [r0, #0]
1000c0fc:	f840 3f04 	str.w	r3, [r0, #4]!
1000c100:	42b0      	cmp	r0, r6
1000c102:	d3f4      	bcc.n	1000c0ee <__hexnan+0x7a>
1000c104:	f8dd e000 	ldr.w	lr, [sp]
1000c108:	4572      	cmp	r2, lr
1000c10a:	d352      	bcc.n	1000c1b2 <__hexnan+0x13e>
1000c10c:	f04f 0c08 	mov.w	ip, #8
1000c110:	f81a 3f01 	ldrb.w	r3, [sl, #1]!
1000c114:	2b00      	cmp	r3, #0
1000c116:	d1d1      	bne.n	1000c0bc <__hexnan+0x48>
1000c118:	4608      	mov	r0, r1
1000c11a:	9901      	ldr	r1, [sp, #4]
1000c11c:	2f00      	cmp	r7, #0
1000c11e:	d069      	beq.n	1000c1f4 <__hexnan+0x180>
1000c120:	45b6      	cmp	lr, r6
1000c122:	d202      	bcs.n	1000c12a <__hexnan+0xb6>
1000c124:	f1bc 0f07 	cmp.w	ip, #7
1000c128:	dd68      	ble.n	1000c1fc <__hexnan+0x188>
1000c12a:	4572      	cmp	r2, lr
1000c12c:	d24d      	bcs.n	1000c1ca <__hexnan+0x156>
1000c12e:	1f14      	subs	r4, r2, #4
1000c130:	4673      	mov	r3, lr
1000c132:	f853 5b04 	ldr.w	r5, [r3], #4
1000c136:	4283      	cmp	r3, r0
1000c138:	f844 5f04 	str.w	r5, [r4, #4]!
1000c13c:	d9f9      	bls.n	1000c132 <__hexnan+0xbe>
1000c13e:	eba0 030e 	sub.w	r3, r0, lr
1000c142:	1c44      	adds	r4, r0, #1
1000c144:	f10e 0e01 	add.w	lr, lr, #1
1000c148:	2500      	movs	r5, #0
1000c14a:	f023 0303 	bic.w	r3, r3, #3
1000c14e:	45a6      	cmp	lr, r4
1000c150:	bf88      	it	hi
1000c152:	2300      	movhi	r3, #0
1000c154:	1d14      	adds	r4, r2, #4
1000c156:	4423      	add	r3, r4
1000c158:	461c      	mov	r4, r3
1000c15a:	3304      	adds	r3, #4
1000c15c:	4283      	cmp	r3, r0
1000c15e:	6025      	str	r5, [r4, #0]
1000c160:	d9fa      	bls.n	1000c158 <__hexnan+0xe4>
1000c162:	f851 4c04 	ldr.w	r4, [r1, #-4]
1000c166:	b11c      	cbz	r4, 1000c170 <__hexnan+0xfc>
1000c168:	e006      	b.n	1000c178 <__hexnan+0x104>
1000c16a:	f850 3d04 	ldr.w	r3, [r0, #-4]!
1000c16e:	b91b      	cbnz	r3, 1000c178 <__hexnan+0x104>
1000c170:	4282      	cmp	r2, r0
1000c172:	d1fa      	bne.n	1000c16a <__hexnan+0xf6>
1000c174:	2301      	movs	r3, #1
1000c176:	6013      	str	r3, [r2, #0]
1000c178:	2005      	movs	r0, #5
1000c17a:	b005      	add	sp, #20
1000c17c:	e8bd 8ff0 	ldmia.w	sp!, {r4, r5, r6, r7, r8, r9, sl, fp, pc}
1000c180:	f10c 0c01 	add.w	ip, ip, #1
1000c184:	3701      	adds	r7, #1
1000c186:	f1bc 0f08 	cmp.w	ip, #8
1000c18a:	dc08      	bgt.n	1000c19e <__hexnan+0x12a>
1000c18c:	f8de 3000 	ldr.w	r3, [lr]
1000c190:	011b      	lsls	r3, r3, #4
1000c192:	f000 000f 	and.w	r0, r0, #15
1000c196:	4318      	orrs	r0, r3
1000c198:	f8ce 0000 	str.w	r0, [lr]
1000c19c:	e7b8      	b.n	1000c110 <__hexnan+0x9c>
1000c19e:	4572      	cmp	r2, lr
1000c1a0:	d2b6      	bcs.n	1000c110 <__hexnan+0x9c>
1000c1a2:	f84e bc04 	str.w	fp, [lr, #-4]
1000c1a6:	2300      	movs	r3, #0
1000c1a8:	f1ae 0e04 	sub.w	lr, lr, #4
1000c1ac:	f04f 0c01 	mov.w	ip, #1
1000c1b0:	e7ef      	b.n	1000c192 <__hexnan+0x11e>
1000c1b2:	f1ae 0604 	sub.w	r6, lr, #4
1000c1b6:	f84e bc04 	str.w	fp, [lr, #-4]
1000c1ba:	46b9      	mov	r9, r7
1000c1bc:	f04f 0c00 	mov.w	ip, #0
1000c1c0:	46b6      	mov	lr, r6
1000c1c2:	e7a5      	b.n	1000c110 <__hexnan+0x9c>
1000c1c4:	1d19      	adds	r1, r3, #4
1000c1c6:	4618      	mov	r0, r3
1000c1c8:	e763      	b.n	1000c092 <__hexnan+0x1e>
1000c1ca:	9b02      	ldr	r3, [sp, #8]
1000c1cc:	f851 4c04 	ldr.w	r4, [r1, #-4]
1000c1d0:	2b00      	cmp	r3, #0
1000c1d2:	d0c8      	beq.n	1000c166 <__hexnan+0xf2>
1000c1d4:	f1c3 0320 	rsb	r3, r3, #32
1000c1d8:	f04f 35ff 	mov.w	r5, #4294967295	@ 0xffffffff
1000c1dc:	fa25 f303 	lsr.w	r3, r5, r3
1000c1e0:	401c      	ands	r4, r3
1000c1e2:	f841 4c04 	str.w	r4, [r1, #-4]
1000c1e6:	e7be      	b.n	1000c166 <__hexnan+0xf2>
1000c1e8:	2b29      	cmp	r3, #41	@ 0x29
1000c1ea:	4608      	mov	r0, r1
1000c1ec:	4655      	mov	r5, sl
1000c1ee:	9901      	ldr	r1, [sp, #4]
1000c1f0:	9c03      	ldr	r4, [sp, #12]
1000c1f2:	d01b      	beq.n	1000c22c <__hexnan+0x1b8>
1000c1f4:	2004      	movs	r0, #4
1000c1f6:	b005      	add	sp, #20
1000c1f8:	e8bd 8ff0 	ldmia.w	sp!, {r4, r5, r6, r7, r8, r9, sl, fp, pc}
1000c1fc:	f1cc 0308 	rsb	r3, ip, #8
1000c200:	f8de 4000 	ldr.w	r4, [lr]
1000c204:	4677      	mov	r7, lr
1000c206:	009b      	lsls	r3, r3, #2
1000c208:	4625      	mov	r5, r4
1000c20a:	f1c3 0820 	rsb	r8, r3, #32
1000c20e:	469c      	mov	ip, r3
1000c210:	687b      	ldr	r3, [r7, #4]
1000c212:	fa03 f408 	lsl.w	r4, r3, r8
1000c216:	432c      	orrs	r4, r5
1000c218:	fa23 f50c 	lsr.w	r5, r3, ip
1000c21c:	603c      	str	r4, [r7, #0]
1000c21e:	f847 5f04 	str.w	r5, [r7, #4]!
1000c222:	42b7      	cmp	r7, r6
1000c224:	d3f4      	bcc.n	1000c210 <__hexnan+0x19c>
1000c226:	4572      	cmp	r2, lr
1000c228:	d381      	bcc.n	1000c12e <__hexnan+0xba>
1000c22a:	e7ce      	b.n	1000c1ca <__hexnan+0x156>
1000c22c:	3501      	adds	r5, #1
1000c22e:	6025      	str	r5, [r4, #0]
1000c230:	e774      	b.n	1000c11c <__hexnan+0xa8>
1000c232:	bf00      	nop
1000c234:	10011830 	.word	0x10011830

1000c238 <_Balloc>:
1000c238:	b538      	push	{r3, r4, r5, lr}
1000c23a:	6c43      	ldr	r3, [r0, #68]	@ 0x44
1000c23c:	4605      	mov	r5, r0
1000c23e:	460c      	mov	r4, r1
1000c240:	b14b      	cbz	r3, 1000c256 <_Balloc+0x1e>
1000c242:	f853 0024 	ldr.w	r0, [r3, r4, lsl #2]
1000c246:	b180      	cbz	r0, 1000c26a <_Balloc+0x32>
1000c248:	6802      	ldr	r2, [r0, #0]
1000c24a:	f843 2024 	str.w	r2, [r3, r4, lsl #2]
1000c24e:	2300      	movs	r3, #0
1000c250:	e9c0 3303 	strd	r3, r3, [r0, #12]
1000c254:	bd38      	pop	{r3, r4, r5, pc}
1000c256:	2221      	movs	r2, #33	@ 0x21
1000c258:	2104      	movs	r1, #4
1000c25a:	f7fa ff5f 	bl	1000711c <_calloc_r>
1000c25e:	4603      	mov	r3, r0
1000c260:	6468      	str	r0, [r5, #68]	@ 0x44
1000c262:	2800      	cmp	r0, #0
1000c264:	d1ed      	bne.n	1000c242 <_Balloc+0xa>
1000c266:	2000      	movs	r0, #0
1000c268:	bd38      	pop	{r3, r4, r5, pc}
1000c26a:	2101      	movs	r1, #1
1000c26c:	4628      	mov	r0, r5
1000c26e:	fa01 f504 	lsl.w	r5, r1, r4
1000c272:	1d6a      	adds	r2, r5, #5
1000c274:	0092      	lsls	r2, r2, #2
1000c276:	f7fa ff51 	bl	1000711c <_calloc_r>
1000c27a:	2800      	cmp	r0, #0
1000c27c:	d0f3      	beq.n	1000c266 <_Balloc+0x2e>
1000c27e:	e9c0 4501 	strd	r4, r5, [r0, #4]
1000c282:	e7e4      	b.n	1000c24e <_Balloc+0x16>

1000c284 <_Bfree>:
1000c284:	b131      	cbz	r1, 1000c294 <_Bfree+0x10>
1000c286:	6c43      	ldr	r3, [r0, #68]	@ 0x44
1000c288:	684a      	ldr	r2, [r1, #4]
1000c28a:	f853 0022 	ldr.w	r0, [r3, r2, lsl #2]
1000c28e:	6008      	str	r0, [r1, #0]
1000c290:	f843 1022 	str.w	r1, [r3, r2, lsl #2]
1000c294:	4770      	bx	lr
1000c296:	bf00      	nop

1000c298 <__multadd>:
1000c298:	e92d 41f0 	stmdb	sp!, {r4, r5, r6, r7, r8, lr}
1000c29c:	4607      	mov	r7, r0
1000c29e:	460e      	mov	r6, r1
1000c2a0:	461c      	mov	r4, r3
1000c2a2:	690d      	ldr	r5, [r1, #16]
1000c2a4:	f101 0e14 	add.w	lr, r1, #20
1000c2a8:	2000      	movs	r0, #0
1000c2aa:	f8de 1000 	ldr.w	r1, [lr]
1000c2ae:	3001      	adds	r0, #1
1000c2b0:	b28b      	uxth	r3, r1
1000c2b2:	4285      	cmp	r5, r0
1000c2b4:	ea4f 4111 	mov.w	r1, r1, lsr #16
1000c2b8:	fb02 4303 	mla	r3, r2, r3, r4
1000c2bc:	ea4f 4c13 	mov.w	ip, r3, lsr #16
1000c2c0:	b29b      	uxth	r3, r3
1000c2c2:	fb02 cc01 	mla	ip, r2, r1, ip
1000c2c6:	eb03 430c 	add.w	r3, r3, ip, lsl #16
1000c2ca:	ea4f 441c 	mov.w	r4, ip, lsr #16
1000c2ce:	f84e 3b04 	str.w	r3, [lr], #4
1000c2d2:	dcea      	bgt.n	1000c2aa <__multadd+0x12>
1000c2d4:	b13c      	cbz	r4, 1000c2e6 <__multadd+0x4e>
1000c2d6:	68b3      	ldr	r3, [r6, #8]
1000c2d8:	42ab      	cmp	r3, r5
1000c2da:	dd07      	ble.n	1000c2ec <__multadd+0x54>
1000c2dc:	eb06 0385 	add.w	r3, r6, r5, lsl #2
1000c2e0:	3501      	adds	r5, #1
1000c2e2:	615c      	str	r4, [r3, #20]
1000c2e4:	6135      	str	r5, [r6, #16]
1000c2e6:	4630      	mov	r0, r6
1000c2e8:	e8bd 81f0 	ldmia.w	sp!, {r4, r5, r6, r7, r8, pc}
1000c2ec:	6871      	ldr	r1, [r6, #4]
1000c2ee:	4638      	mov	r0, r7
1000c2f0:	3101      	adds	r1, #1
1000c2f2:	f7ff ffa1 	bl	1000c238 <_Balloc>
1000c2f6:	4680      	mov	r8, r0
1000c2f8:	b1a8      	cbz	r0, 1000c326 <__multadd+0x8e>
1000c2fa:	6932      	ldr	r2, [r6, #16]
1000c2fc:	f106 010c 	add.w	r1, r6, #12
1000c300:	300c      	adds	r0, #12
1000c302:	3202      	adds	r2, #2
1000c304:	0092      	lsls	r2, r2, #2
1000c306:	f7fb fdfd 	bl	10007f04 <memcpy>
1000c30a:	6c7b      	ldr	r3, [r7, #68]	@ 0x44
1000c30c:	6872      	ldr	r2, [r6, #4]
1000c30e:	f853 1022 	ldr.w	r1, [r3, r2, lsl #2]
1000c312:	6031      	str	r1, [r6, #0]
1000c314:	f843 6022 	str.w	r6, [r3, r2, lsl #2]
1000c318:	4646      	mov	r6, r8
1000c31a:	eb06 0385 	add.w	r3, r6, r5, lsl #2
1000c31e:	3501      	adds	r5, #1
1000c320:	615c      	str	r4, [r3, #20]
1000c322:	6135      	str	r5, [r6, #16]
1000c324:	e7df      	b.n	1000c2e6 <__multadd+0x4e>
1000c326:	4602      	mov	r2, r0
1000c328:	4b02      	ldr	r3, [pc, #8]	@ (1000c334 <__multadd+0x9c>)
1000c32a:	21ba      	movs	r1, #186	@ 0xba
1000c32c:	4802      	ldr	r0, [pc, #8]	@ (1000c338 <__multadd+0xa0>)
1000c32e:	f7fa fb09 	bl	10006944 <__assert_func>
1000c332:	bf00      	nop
1000c334:	1000d304 	.word	0x1000d304
1000c338:	1000d37c 	.word	0x1000d37c

1000c33c <__s2b>:
1000c33c:	e92d 43f8 	stmdb	sp!, {r3, r4, r5, r6, r7, r8, r9, lr}
1000c340:	461e      	mov	r6, r3
1000c342:	4617      	mov	r7, r2
1000c344:	3308      	adds	r3, #8
1000c346:	4a26      	ldr	r2, [pc, #152]	@ (1000c3e0 <__s2b+0xa4>)
1000c348:	460c      	mov	r4, r1
1000c34a:	2e09      	cmp	r6, #9
1000c34c:	fb82 1203 	smull	r1, r2, r2, r3
1000c350:	ea4f 73e3 	mov.w	r3, r3, asr #31
1000c354:	4605      	mov	r5, r0
1000c356:	ebc3 0362 	rsb	r3, r3, r2, asr #1
1000c35a:	dd38      	ble.n	1000c3ce <__s2b+0x92>
1000c35c:	f04f 0c01 	mov.w	ip, #1
1000c360:	2100      	movs	r1, #0
1000c362:	ea4f 0c4c 	mov.w	ip, ip, lsl #1
1000c366:	3101      	adds	r1, #1
1000c368:	4563      	cmp	r3, ip
1000c36a:	dcfa      	bgt.n	1000c362 <__s2b+0x26>
1000c36c:	4628      	mov	r0, r5
1000c36e:	f7ff ff63 	bl	1000c238 <_Balloc>
1000c372:	4601      	mov	r1, r0
1000c374:	b368      	cbz	r0, 1000c3d2 <__s2b+0x96>
1000c376:	9b08      	ldr	r3, [sp, #32]
1000c378:	2f09      	cmp	r7, #9
1000c37a:	6143      	str	r3, [r0, #20]
1000c37c:	f04f 0301 	mov.w	r3, #1
1000c380:	6103      	str	r3, [r0, #16]
1000c382:	dc12      	bgt.n	1000c3aa <__s2b+0x6e>
1000c384:	340a      	adds	r4, #10
1000c386:	2709      	movs	r7, #9
1000c388:	42be      	cmp	r6, r7
1000c38a:	dd0b      	ble.n	1000c3a4 <__s2b+0x68>
1000c38c:	1bf6      	subs	r6, r6, r7
1000c38e:	4426      	add	r6, r4
1000c390:	f814 3b01 	ldrb.w	r3, [r4], #1
1000c394:	220a      	movs	r2, #10
1000c396:	4628      	mov	r0, r5
1000c398:	3b30      	subs	r3, #48	@ 0x30
1000c39a:	f7ff ff7d 	bl	1000c298 <__multadd>
1000c39e:	42b4      	cmp	r4, r6
1000c3a0:	4601      	mov	r1, r0
1000c3a2:	d1f5      	bne.n	1000c390 <__s2b+0x54>
1000c3a4:	4608      	mov	r0, r1
1000c3a6:	e8bd 83f8 	ldmia.w	sp!, {r3, r4, r5, r6, r7, r8, r9, pc}
1000c3aa:	f104 0909 	add.w	r9, r4, #9
1000c3ae:	443c      	add	r4, r7
1000c3b0:	46c8      	mov	r8, r9
1000c3b2:	f818 3b01 	ldrb.w	r3, [r8], #1
1000c3b6:	220a      	movs	r2, #10
1000c3b8:	4628      	mov	r0, r5
1000c3ba:	3b30      	subs	r3, #48	@ 0x30
1000c3bc:	f7ff ff6c 	bl	1000c298 <__multadd>
1000c3c0:	45a0      	cmp	r8, r4
1000c3c2:	4601      	mov	r1, r0
1000c3c4:	d1f5      	bne.n	1000c3b2 <__s2b+0x76>
1000c3c6:	44b9      	add	r9, r7
1000c3c8:	f1a9 0408 	sub.w	r4, r9, #8
1000c3cc:	e7dc      	b.n	1000c388 <__s2b+0x4c>
1000c3ce:	2100      	movs	r1, #0
1000c3d0:	e7cc      	b.n	1000c36c <__s2b+0x30>
1000c3d2:	4602      	mov	r2, r0
1000c3d4:	4b03      	ldr	r3, [pc, #12]	@ (1000c3e4 <__s2b+0xa8>)
1000c3d6:	21d3      	movs	r1, #211	@ 0xd3
1000c3d8:	4803      	ldr	r0, [pc, #12]	@ (1000c3e8 <__s2b+0xac>)
1000c3da:	f7fa fab3 	bl	10006944 <__assert_func>
1000c3de:	bf00      	nop
1000c3e0:	38e38e39 	.word	0x38e38e39
1000c3e4:	1000d304 	.word	0x1000d304
1000c3e8:	1000d37c 	.word	0x1000d37c

1000c3ec <__hi0bits>:
1000c3ec:	f5b0 3f80 	cmp.w	r0, #65536	@ 0x10000
1000c3f0:	4603      	mov	r3, r0
1000c3f2:	d210      	bcs.n	1000c416 <__hi0bits+0x2a>
1000c3f4:	0403      	lsls	r3, r0, #16
1000c3f6:	2010      	movs	r0, #16
1000c3f8:	f1b3 7f80 	cmp.w	r3, #16777216	@ 0x1000000
1000c3fc:	d201      	bcs.n	1000c402 <__hi0bits+0x16>
1000c3fe:	3008      	adds	r0, #8
1000c400:	021b      	lsls	r3, r3, #8
1000c402:	f1b3 5f80 	cmp.w	r3, #268435456	@ 0x10000000
1000c406:	d308      	bcc.n	1000c41a <__hi0bits+0x2e>
1000c408:	f1b3 4f80 	cmp.w	r3, #1073741824	@ 0x40000000
1000c40c:	d210      	bcs.n	1000c430 <__hi0bits+0x44>
1000c40e:	009a      	lsls	r2, r3, #2
1000c410:	d413      	bmi.n	1000c43a <__hi0bits+0x4e>
1000c412:	3003      	adds	r0, #3
1000c414:	4770      	bx	lr
1000c416:	2000      	movs	r0, #0
1000c418:	e7ee      	b.n	1000c3f8 <__hi0bits+0xc>
1000c41a:	011a      	lsls	r2, r3, #4
1000c41c:	3004      	adds	r0, #4
1000c41e:	f1b2 4f80 	cmp.w	r2, #1073741824	@ 0x40000000
1000c422:	d206      	bcs.n	1000c432 <__hi0bits+0x46>
1000c424:	019b      	lsls	r3, r3, #6
1000c426:	d408      	bmi.n	1000c43a <__hi0bits+0x4e>
1000c428:	005b      	lsls	r3, r3, #1
1000c42a:	d4f2      	bmi.n	1000c412 <__hi0bits+0x26>
1000c42c:	2020      	movs	r0, #32
1000c42e:	4770      	bx	lr
1000c430:	461a      	mov	r2, r3
1000c432:	2a00      	cmp	r2, #0
1000c434:	dbfb      	blt.n	1000c42e <__hi0bits+0x42>
1000c436:	3001      	adds	r0, #1
1000c438:	4770      	bx	lr
1000c43a:	3002      	adds	r0, #2
1000c43c:	4770      	bx	lr
1000c43e:	bf00      	nop

1000c440 <__lo0bits>:
1000c440:	6803      	ldr	r3, [r0, #0]
1000c442:	4602      	mov	r2, r0
1000c444:	0759      	lsls	r1, r3, #29
1000c446:	d007      	beq.n	1000c458 <__lo0bits+0x18>
1000c448:	07d8      	lsls	r0, r3, #31
1000c44a:	d41d      	bmi.n	1000c488 <__lo0bits+0x48>
1000c44c:	0799      	lsls	r1, r3, #30
1000c44e:	d52a      	bpl.n	1000c4a6 <__lo0bits+0x66>
1000c450:	085b      	lsrs	r3, r3, #1
1000c452:	2001      	movs	r0, #1
1000c454:	6013      	str	r3, [r2, #0]
1000c456:	4770      	bx	lr
1000c458:	b299      	uxth	r1, r3
1000c45a:	b979      	cbnz	r1, 1000c47c <__lo0bits+0x3c>
1000c45c:	0c1b      	lsrs	r3, r3, #16
1000c45e:	b2d9      	uxtb	r1, r3
1000c460:	b1a1      	cbz	r1, 1000c48c <__lo0bits+0x4c>
1000c462:	2010      	movs	r0, #16
1000c464:	0719      	lsls	r1, r3, #28
1000c466:	d101      	bne.n	1000c46c <__lo0bits+0x2c>
1000c468:	3004      	adds	r0, #4
1000c46a:	091b      	lsrs	r3, r3, #4
1000c46c:	0799      	lsls	r1, r3, #30
1000c46e:	d012      	beq.n	1000c496 <__lo0bits+0x56>
1000c470:	07d9      	lsls	r1, r3, #31
1000c472:	d401      	bmi.n	1000c478 <__lo0bits+0x38>
1000c474:	3001      	adds	r0, #1
1000c476:	085b      	lsrs	r3, r3, #1
1000c478:	6013      	str	r3, [r2, #0]
1000c47a:	4770      	bx	lr
1000c47c:	b2d9      	uxtb	r1, r3
1000c47e:	b141      	cbz	r1, 1000c492 <__lo0bits+0x52>
1000c480:	0718      	lsls	r0, r3, #28
1000c482:	d118      	bne.n	1000c4b6 <__lo0bits+0x76>
1000c484:	2004      	movs	r0, #4
1000c486:	e7f0      	b.n	1000c46a <__lo0bits+0x2a>
1000c488:	2000      	movs	r0, #0
1000c48a:	4770      	bx	lr
1000c48c:	2018      	movs	r0, #24
1000c48e:	0a1b      	lsrs	r3, r3, #8
1000c490:	e7e8      	b.n	1000c464 <__lo0bits+0x24>
1000c492:	2008      	movs	r0, #8
1000c494:	e7fb      	b.n	1000c48e <__lo0bits+0x4e>
1000c496:	f013 0f04 	tst.w	r3, #4
1000c49a:	ea4f 0193 	mov.w	r1, r3, lsr #2
1000c49e:	d006      	beq.n	1000c4ae <__lo0bits+0x6e>
1000c4a0:	3002      	adds	r0, #2
1000c4a2:	460b      	mov	r3, r1
1000c4a4:	e7e8      	b.n	1000c478 <__lo0bits+0x38>
1000c4a6:	089b      	lsrs	r3, r3, #2
1000c4a8:	2002      	movs	r0, #2
1000c4aa:	6013      	str	r3, [r2, #0]
1000c4ac:	4770      	bx	lr
1000c4ae:	08db      	lsrs	r3, r3, #3
1000c4b0:	d104      	bne.n	1000c4bc <__lo0bits+0x7c>
1000c4b2:	2020      	movs	r0, #32
1000c4b4:	4770      	bx	lr
1000c4b6:	08db      	lsrs	r3, r3, #3
1000c4b8:	2003      	movs	r0, #3
1000c4ba:	e7dd      	b.n	1000c478 <__lo0bits+0x38>
1000c4bc:	3003      	adds	r0, #3
1000c4be:	e7db      	b.n	1000c478 <__lo0bits+0x38>

1000c4c0 <__i2b>:
1000c4c0:	b538      	push	{r3, r4, r5, lr}
1000c4c2:	6c43      	ldr	r3, [r0, #68]	@ 0x44
1000c4c4:	4604      	mov	r4, r0
1000c4c6:	460d      	mov	r5, r1
1000c4c8:	b14b      	cbz	r3, 1000c4de <__i2b+0x1e>
1000c4ca:	6858      	ldr	r0, [r3, #4]
1000c4cc:	b1b0      	cbz	r0, 1000c4fc <__i2b+0x3c>
1000c4ce:	6802      	ldr	r2, [r0, #0]
1000c4d0:	605a      	str	r2, [r3, #4]
1000c4d2:	2200      	movs	r2, #0
1000c4d4:	2301      	movs	r3, #1
1000c4d6:	6145      	str	r5, [r0, #20]
1000c4d8:	e9c0 2303 	strd	r2, r3, [r0, #12]
1000c4dc:	bd38      	pop	{r3, r4, r5, pc}
1000c4de:	2221      	movs	r2, #33	@ 0x21
1000c4e0:	2104      	movs	r1, #4
1000c4e2:	f7fa fe1b 	bl	1000711c <_calloc_r>
1000c4e6:	4603      	mov	r3, r0
1000c4e8:	6460      	str	r0, [r4, #68]	@ 0x44
1000c4ea:	2800      	cmp	r0, #0
1000c4ec:	d1ed      	bne.n	1000c4ca <__i2b+0xa>
1000c4ee:	4b09      	ldr	r3, [pc, #36]	@ (1000c514 <__i2b+0x54>)
1000c4f0:	2200      	movs	r2, #0
1000c4f2:	f240 1145 	movw	r1, #325	@ 0x145
1000c4f6:	4808      	ldr	r0, [pc, #32]	@ (1000c518 <__i2b+0x58>)
1000c4f8:	f7fa fa24 	bl	10006944 <__assert_func>
1000c4fc:	221c      	movs	r2, #28
1000c4fe:	2101      	movs	r1, #1
1000c500:	4620      	mov	r0, r4
1000c502:	f7fa fe0b 	bl	1000711c <_calloc_r>
1000c506:	2800      	cmp	r0, #0
1000c508:	d0f1      	beq.n	1000c4ee <__i2b+0x2e>
1000c50a:	2201      	movs	r2, #1
1000c50c:	2302      	movs	r3, #2
1000c50e:	e9c0 2301 	strd	r2, r3, [r0, #4]
1000c512:	e7de      	b.n	1000c4d2 <__i2b+0x12>
1000c514:	1000d304 	.word	0x1000d304
1000c518:	1000d37c 	.word	0x1000d37c

1000c51c <__multiply>:
1000c51c:	e92d 4ff0 	stmdb	sp!, {r4, r5, r6, r7, r8, r9, sl, fp, lr}
1000c520:	f8d1 8010 	ldr.w	r8, [r1, #16]
1000c524:	b085      	sub	sp, #20
1000c526:	6915      	ldr	r5, [r2, #16]
1000c528:	460e      	mov	r6, r1
1000c52a:	4692      	mov	sl, r2
1000c52c:	45a8      	cmp	r8, r5
1000c52e:	db05      	blt.n	1000c53c <__multiply+0x20>
1000c530:	462a      	mov	r2, r5
1000c532:	4653      	mov	r3, sl
1000c534:	4645      	mov	r5, r8
1000c536:	468a      	mov	sl, r1
1000c538:	4690      	mov	r8, r2
1000c53a:	461e      	mov	r6, r3
1000c53c:	eb05 0408 	add.w	r4, r5, r8
1000c540:	e9da 1301 	ldrd	r1, r3, [sl, #4]
1000c544:	42a3      	cmp	r3, r4
1000c546:	bfb8      	it	lt
1000c548:	3101      	addlt	r1, #1
1000c54a:	f7ff fe75 	bl	1000c238 <_Balloc>
1000c54e:	2800      	cmp	r0, #0
1000c550:	f000 808c 	beq.w	1000c66c <__multiply+0x150>
1000c554:	f100 0714 	add.w	r7, r0, #20
1000c558:	eb07 0e84 	add.w	lr, r7, r4, lsl #2
1000c55c:	4577      	cmp	r7, lr
1000c55e:	d205      	bcs.n	1000c56c <__multiply+0x50>
1000c560:	463b      	mov	r3, r7
1000c562:	2200      	movs	r2, #0
1000c564:	f843 2b04 	str.w	r2, [r3], #4
1000c568:	459e      	cmp	lr, r3
1000c56a:	d8fb      	bhi.n	1000c564 <__multiply+0x48>
1000c56c:	3614      	adds	r6, #20
1000c56e:	f10a 0914 	add.w	r9, sl, #20
1000c572:	eb06 0888 	add.w	r8, r6, r8, lsl #2
1000c576:	eb09 0585 	add.w	r5, r9, r5, lsl #2
1000c57a:	4546      	cmp	r6, r8
1000c57c:	d269      	bcs.n	1000c652 <__multiply+0x136>
1000c57e:	eba5 030a 	sub.w	r3, r5, sl
1000c582:	f10a 0a15 	add.w	sl, sl, #21
1000c586:	f8cd e008 	str.w	lr, [sp, #8]
1000c58a:	46ae      	mov	lr, r5
1000c58c:	3b15      	subs	r3, #21
1000c58e:	9403      	str	r4, [sp, #12]
1000c590:	f023 0303 	bic.w	r3, r3, #3
1000c594:	45aa      	cmp	sl, r5
1000c596:	bf94      	ite	ls
1000c598:	469b      	movls	fp, r3
1000c59a:	f04f 0b00 	movhi.w	fp, #0
1000c59e:	4682      	mov	sl, r0
1000c5a0:	e005      	b.n	1000c5ae <__multiply+0x92>
1000c5a2:	0c09      	lsrs	r1, r1, #16
1000c5a4:	d12d      	bne.n	1000c602 <__multiply+0xe6>
1000c5a6:	45b0      	cmp	r8, r6
1000c5a8:	f107 0704 	add.w	r7, r7, #4
1000c5ac:	d94e      	bls.n	1000c64c <__multiply+0x130>
1000c5ae:	f856 1b04 	ldr.w	r1, [r6], #4
1000c5b2:	b28d      	uxth	r5, r1
1000c5b4:	2d00      	cmp	r5, #0
1000c5b6:	d0f4      	beq.n	1000c5a2 <__multiply+0x86>
1000c5b8:	46cc      	mov	ip, r9
1000c5ba:	463c      	mov	r4, r7
1000c5bc:	2300      	movs	r3, #0
1000c5be:	9601      	str	r6, [sp, #4]
1000c5c0:	f85c 0b04 	ldr.w	r0, [ip], #4
1000c5c4:	6821      	ldr	r1, [r4, #0]
1000c5c6:	b286      	uxth	r6, r0
1000c5c8:	45e6      	cmp	lr, ip
1000c5ca:	b28a      	uxth	r2, r1
1000c5cc:	ea4f 4010 	mov.w	r0, r0, lsr #16
1000c5d0:	fb05 2206 	mla	r2, r5, r6, r2
1000c5d4:	ea4f 4111 	mov.w	r1, r1, lsr #16
1000c5d8:	441a      	add	r2, r3
1000c5da:	fb05 1100 	mla	r1, r5, r0, r1
1000c5de:	eb01 4112 	add.w	r1, r1, r2, lsr #16
1000c5e2:	b292      	uxth	r2, r2
1000c5e4:	ea4f 4311 	mov.w	r3, r1, lsr #16
1000c5e8:	ea42 4201 	orr.w	r2, r2, r1, lsl #16
1000c5ec:	f844 2b04 	str.w	r2, [r4], #4
1000c5f0:	d8e6      	bhi.n	1000c5c0 <__multiply+0xa4>
1000c5f2:	9e01      	ldr	r6, [sp, #4]
1000c5f4:	eb07 020b 	add.w	r2, r7, fp
1000c5f8:	6053      	str	r3, [r2, #4]
1000c5fa:	f856 1c04 	ldr.w	r1, [r6, #-4]
1000c5fe:	0c09      	lsrs	r1, r1, #16
1000c600:	d0d1      	beq.n	1000c5a6 <__multiply+0x8a>
1000c602:	683b      	ldr	r3, [r7, #0]
1000c604:	2200      	movs	r2, #0
1000c606:	4648      	mov	r0, r9
1000c608:	463d      	mov	r5, r7
1000c60a:	461c      	mov	r4, r3
1000c60c:	4694      	mov	ip, r2
1000c60e:	8802      	ldrh	r2, [r0, #0]
1000c610:	b29b      	uxth	r3, r3
1000c612:	fb01 c202 	mla	r2, r1, r2, ip
1000c616:	eb02 4214 	add.w	r2, r2, r4, lsr #16
1000c61a:	ea43 4302 	orr.w	r3, r3, r2, lsl #16
1000c61e:	f845 3b04 	str.w	r3, [r5], #4
1000c622:	f850 3b04 	ldr.w	r3, [r0], #4
1000c626:	682c      	ldr	r4, [r5, #0]
1000c628:	ea4f 4c13 	mov.w	ip, r3, lsr #16
1000c62c:	4586      	cmp	lr, r0
1000c62e:	b2a3      	uxth	r3, r4
1000c630:	fb01 330c 	mla	r3, r1, ip, r3
1000c634:	eb03 4312 	add.w	r3, r3, r2, lsr #16
1000c638:	ea4f 4c13 	mov.w	ip, r3, lsr #16
1000c63c:	d8e7      	bhi.n	1000c60e <__multiply+0xf2>
1000c63e:	eb07 020b 	add.w	r2, r7, fp
1000c642:	45b0      	cmp	r8, r6
1000c644:	f107 0704 	add.w	r7, r7, #4
1000c648:	6053      	str	r3, [r2, #4]
1000c64a:	d8b0      	bhi.n	1000c5ae <__multiply+0x92>
1000c64c:	4650      	mov	r0, sl
1000c64e:	e9dd e402 	ldrd	lr, r4, [sp, #8]
1000c652:	2c00      	cmp	r4, #0
1000c654:	dc02      	bgt.n	1000c65c <__multiply+0x140>
1000c656:	e005      	b.n	1000c664 <__multiply+0x148>
1000c658:	3c01      	subs	r4, #1
1000c65a:	d003      	beq.n	1000c664 <__multiply+0x148>
1000c65c:	f85e 3d04 	ldr.w	r3, [lr, #-4]!
1000c660:	2b00      	cmp	r3, #0
1000c662:	d0f9      	beq.n	1000c658 <__multiply+0x13c>
1000c664:	6104      	str	r4, [r0, #16]
1000c666:	b005      	add	sp, #20
1000c668:	e8bd 8ff0 	ldmia.w	sp!, {r4, r5, r6, r7, r8, r9, sl, fp, pc}
1000c66c:	4602      	mov	r2, r0
1000c66e:	4b03      	ldr	r3, [pc, #12]	@ (1000c67c <__multiply+0x160>)
1000c670:	f44f 71b1 	mov.w	r1, #354	@ 0x162
1000c674:	4802      	ldr	r0, [pc, #8]	@ (1000c680 <__multiply+0x164>)
1000c676:	f7fa f965 	bl	10006944 <__assert_func>
1000c67a:	bf00      	nop
1000c67c:	1000d304 	.word	0x1000d304
1000c680:	1000d37c 	.word	0x1000d37c

1000c684 <__pow5mult>:
1000c684:	f012 0303 	ands.w	r3, r2, #3
1000c688:	e92d 41f0 	stmdb	sp!, {r4, r5, r6, r7, r8, lr}
1000c68c:	4614      	mov	r4, r2
1000c68e:	4607      	mov	r7, r0
1000c690:	d132      	bne.n	1000c6f8 <__pow5mult+0x74>
1000c692:	460e      	mov	r6, r1
1000c694:	10a4      	asrs	r4, r4, #2
1000c696:	d02c      	beq.n	1000c6f2 <__pow5mult+0x6e>
1000c698:	6c3d      	ldr	r5, [r7, #64]	@ 0x40
1000c69a:	2d00      	cmp	r5, #0
1000c69c:	d035      	beq.n	1000c70a <__pow5mult+0x86>
1000c69e:	f004 0301 	and.w	r3, r4, #1
1000c6a2:	f04f 0800 	mov.w	r8, #0
1000c6a6:	1064      	asrs	r4, r4, #1
1000c6a8:	b93b      	cbnz	r3, 1000c6ba <__pow5mult+0x36>
1000c6aa:	6828      	ldr	r0, [r5, #0]
1000c6ac:	b1b8      	cbz	r0, 1000c6de <__pow5mult+0x5a>
1000c6ae:	4605      	mov	r5, r0
1000c6b0:	f004 0301 	and.w	r3, r4, #1
1000c6b4:	1064      	asrs	r4, r4, #1
1000c6b6:	2b00      	cmp	r3, #0
1000c6b8:	d0f7      	beq.n	1000c6aa <__pow5mult+0x26>
1000c6ba:	462a      	mov	r2, r5
1000c6bc:	4631      	mov	r1, r6
1000c6be:	4638      	mov	r0, r7
1000c6c0:	f7ff ff2c 	bl	1000c51c <__multiply>
1000c6c4:	b136      	cbz	r6, 1000c6d4 <__pow5mult+0x50>
1000c6c6:	6c7b      	ldr	r3, [r7, #68]	@ 0x44
1000c6c8:	6871      	ldr	r1, [r6, #4]
1000c6ca:	f853 2021 	ldr.w	r2, [r3, r1, lsl #2]
1000c6ce:	6032      	str	r2, [r6, #0]
1000c6d0:	f843 6021 	str.w	r6, [r3, r1, lsl #2]
1000c6d4:	b174      	cbz	r4, 1000c6f4 <__pow5mult+0x70>
1000c6d6:	4606      	mov	r6, r0
1000c6d8:	6828      	ldr	r0, [r5, #0]
1000c6da:	2800      	cmp	r0, #0
1000c6dc:	d1e7      	bne.n	1000c6ae <__pow5mult+0x2a>
1000c6de:	462a      	mov	r2, r5
1000c6e0:	4629      	mov	r1, r5
1000c6e2:	4638      	mov	r0, r7
1000c6e4:	f7ff ff1a 	bl	1000c51c <__multiply>
1000c6e8:	6028      	str	r0, [r5, #0]
1000c6ea:	4605      	mov	r5, r0
1000c6ec:	f8c0 8000 	str.w	r8, [r0]
1000c6f0:	e7de      	b.n	1000c6b0 <__pow5mult+0x2c>
1000c6f2:	4630      	mov	r0, r6
1000c6f4:	e8bd 81f0 	ldmia.w	sp!, {r4, r5, r6, r7, r8, pc}
1000c6f8:	3b01      	subs	r3, #1
1000c6fa:	4a0f      	ldr	r2, [pc, #60]	@ (1000c738 <__pow5mult+0xb4>)
1000c6fc:	f852 2023 	ldr.w	r2, [r2, r3, lsl #2]
1000c700:	2300      	movs	r3, #0
1000c702:	f7ff fdc9 	bl	1000c298 <__multadd>
1000c706:	4606      	mov	r6, r0
1000c708:	e7c4      	b.n	1000c694 <__pow5mult+0x10>
1000c70a:	2101      	movs	r1, #1
1000c70c:	4638      	mov	r0, r7
1000c70e:	f7ff fd93 	bl	1000c238 <_Balloc>
1000c712:	4605      	mov	r5, r0
1000c714:	b140      	cbz	r0, 1000c728 <__pow5mult+0xa4>
1000c716:	2301      	movs	r3, #1
1000c718:	f240 2271 	movw	r2, #625	@ 0x271
1000c71c:	e9c0 3204 	strd	r3, r2, [r0, #16]
1000c720:	2300      	movs	r3, #0
1000c722:	6438      	str	r0, [r7, #64]	@ 0x40
1000c724:	6003      	str	r3, [r0, #0]
1000c726:	e7ba      	b.n	1000c69e <__pow5mult+0x1a>
1000c728:	4602      	mov	r2, r0
1000c72a:	4b04      	ldr	r3, [pc, #16]	@ (1000c73c <__pow5mult+0xb8>)
1000c72c:	f240 1145 	movw	r1, #325	@ 0x145
1000c730:	4803      	ldr	r0, [pc, #12]	@ (1000c740 <__pow5mult+0xbc>)
1000c732:	f7fa f907 	bl	10006944 <__assert_func>
1000c736:	bf00      	nop
1000c738:	10011930 	.word	0x10011930
1000c73c:	1000d304 	.word	0x1000d304
1000c740:	1000d37c 	.word	0x1000d37c

1000c744 <__lshift>:
1000c744:	e92d 47f0 	stmdb	sp!, {r4, r5, r6, r7, r8, r9, sl, lr}
1000c748:	460c      	mov	r4, r1
1000c74a:	4690      	mov	r8, r2
1000c74c:	4606      	mov	r6, r0
1000c74e:	ea4f 1962 	mov.w	r9, r2, asr #5
1000c752:	6927      	ldr	r7, [r4, #16]
1000c754:	68a3      	ldr	r3, [r4, #8]
1000c756:	eb07 1762 	add.w	r7, r7, r2, asr #5
1000c75a:	6849      	ldr	r1, [r1, #4]
1000c75c:	1c7d      	adds	r5, r7, #1
1000c75e:	429d      	cmp	r5, r3
1000c760:	dd03      	ble.n	1000c76a <__lshift+0x26>
1000c762:	005b      	lsls	r3, r3, #1
1000c764:	3101      	adds	r1, #1
1000c766:	429d      	cmp	r5, r3
1000c768:	dcfb      	bgt.n	1000c762 <__lshift+0x1e>
1000c76a:	4630      	mov	r0, r6
1000c76c:	f7ff fd64 	bl	1000c238 <_Balloc>
1000c770:	2800      	cmp	r0, #0
1000c772:	d04d      	beq.n	1000c810 <__lshift+0xcc>
1000c774:	f1b9 0f00 	cmp.w	r9, #0
1000c778:	f100 0c14 	add.w	ip, r0, #20
1000c77c:	dd0b      	ble.n	1000c796 <__lshift+0x52>
1000c77e:	f109 0205 	add.w	r2, r9, #5
1000c782:	4663      	mov	r3, ip
1000c784:	2100      	movs	r1, #0
1000c786:	eb00 0282 	add.w	r2, r0, r2, lsl #2
1000c78a:	f843 1b04 	str.w	r1, [r3], #4
1000c78e:	4293      	cmp	r3, r2
1000c790:	d1fb      	bne.n	1000c78a <__lshift+0x46>
1000c792:	eb0c 0c89 	add.w	ip, ip, r9, lsl #2
1000c796:	f104 0314 	add.w	r3, r4, #20
1000c79a:	6921      	ldr	r1, [r4, #16]
1000c79c:	f018 081f 	ands.w	r8, r8, #31
1000c7a0:	eb03 0181 	add.w	r1, r3, r1, lsl #2
1000c7a4:	d02b      	beq.n	1000c7fe <__lshift+0xba>
1000c7a6:	f1c8 0920 	rsb	r9, r8, #32
1000c7aa:	46e6      	mov	lr, ip
1000c7ac:	f04f 0a00 	mov.w	sl, #0
1000c7b0:	681a      	ldr	r2, [r3, #0]
1000c7b2:	fa02 f208 	lsl.w	r2, r2, r8
1000c7b6:	ea42 020a 	orr.w	r2, r2, sl
1000c7ba:	f84e 2b04 	str.w	r2, [lr], #4
1000c7be:	f853 2b04 	ldr.w	r2, [r3], #4
1000c7c2:	4299      	cmp	r1, r3
1000c7c4:	fa22 fa09 	lsr.w	sl, r2, r9
1000c7c8:	d8f2      	bhi.n	1000c7b0 <__lshift+0x6c>
1000c7ca:	1b0b      	subs	r3, r1, r4
1000c7cc:	f104 0215 	add.w	r2, r4, #21
1000c7d0:	3b15      	subs	r3, #21
1000c7d2:	f023 0303 	bic.w	r3, r3, #3
1000c7d6:	4291      	cmp	r1, r2
1000c7d8:	bf38      	it	cc
1000c7da:	2300      	movcc	r3, #0
1000c7dc:	3304      	adds	r3, #4
1000c7de:	f84c a003 	str.w	sl, [ip, r3]
1000c7e2:	f1ba 0f00 	cmp.w	sl, #0
1000c7e6:	d100      	bne.n	1000c7ea <__lshift+0xa6>
1000c7e8:	463d      	mov	r5, r7
1000c7ea:	6c73      	ldr	r3, [r6, #68]	@ 0x44
1000c7ec:	6862      	ldr	r2, [r4, #4]
1000c7ee:	6105      	str	r5, [r0, #16]
1000c7f0:	f853 1022 	ldr.w	r1, [r3, r2, lsl #2]
1000c7f4:	6021      	str	r1, [r4, #0]
1000c7f6:	f843 4022 	str.w	r4, [r3, r2, lsl #2]
1000c7fa:	e8bd 87f0 	ldmia.w	sp!, {r4, r5, r6, r7, r8, r9, sl, pc}
1000c7fe:	f1ac 0c04 	sub.w	ip, ip, #4
1000c802:	f853 2b04 	ldr.w	r2, [r3], #4
1000c806:	4299      	cmp	r1, r3
1000c808:	f84c 2f04 	str.w	r2, [ip, #4]!
1000c80c:	d8f9      	bhi.n	1000c802 <__lshift+0xbe>
1000c80e:	e7eb      	b.n	1000c7e8 <__lshift+0xa4>
1000c810:	4602      	mov	r2, r0
1000c812:	4b03      	ldr	r3, [pc, #12]	@ (1000c820 <__lshift+0xdc>)
1000c814:	f44f 71ef 	mov.w	r1, #478	@ 0x1de
1000c818:	4802      	ldr	r0, [pc, #8]	@ (1000c824 <__lshift+0xe0>)
1000c81a:	f7fa f893 	bl	10006944 <__assert_func>
1000c81e:	bf00      	nop
1000c820:	1000d304 	.word	0x1000d304
1000c824:	1000d37c 	.word	0x1000d37c

1000c828 <__mcmp>:
1000c828:	4684      	mov	ip, r0
1000c82a:	690b      	ldr	r3, [r1, #16]
1000c82c:	6900      	ldr	r0, [r0, #16]
1000c82e:	1ac0      	subs	r0, r0, r3
1000c830:	d116      	bne.n	1000c860 <__mcmp+0x38>
1000c832:	f10c 0c14 	add.w	ip, ip, #20
1000c836:	3114      	adds	r1, #20
1000c838:	eb0c 0283 	add.w	r2, ip, r3, lsl #2
1000c83c:	eb01 0383 	add.w	r3, r1, r3, lsl #2
1000c840:	b410      	push	{r4}
1000c842:	e001      	b.n	1000c848 <__mcmp+0x20>
1000c844:	4594      	cmp	ip, r2
1000c846:	d208      	bcs.n	1000c85a <__mcmp+0x32>
1000c848:	f852 4d04 	ldr.w	r4, [r2, #-4]!
1000c84c:	f853 1d04 	ldr.w	r1, [r3, #-4]!
1000c850:	428c      	cmp	r4, r1
1000c852:	d0f7      	beq.n	1000c844 <__mcmp+0x1c>
1000c854:	d205      	bcs.n	1000c862 <__mcmp+0x3a>
1000c856:	f04f 30ff 	mov.w	r0, #4294967295	@ 0xffffffff
1000c85a:	f85d 4b04 	ldr.w	r4, [sp], #4
1000c85e:	4770      	bx	lr
1000c860:	4770      	bx	lr
1000c862:	2001      	movs	r0, #1
1000c864:	f85d 4b04 	ldr.w	r4, [sp], #4
1000c868:	4770      	bx	lr
1000c86a:	bf00      	nop

1000c86c <__mdiff>:
1000c86c:	e92d 4ff0 	stmdb	sp!, {r4, r5, r6, r7, r8, r9, sl, fp, lr}
1000c870:	6913      	ldr	r3, [r2, #16]
1000c872:	b083      	sub	sp, #12
1000c874:	690e      	ldr	r6, [r1, #16]
1000c876:	4689      	mov	r9, r1
1000c878:	4615      	mov	r5, r2
1000c87a:	1af6      	subs	r6, r6, r3
1000c87c:	2e00      	cmp	r6, #0
1000c87e:	d114      	bne.n	1000c8aa <__mdiff+0x3e>
1000c880:	f101 0714 	add.w	r7, r1, #20
1000c884:	f102 0114 	add.w	r1, r2, #20
1000c888:	eb01 0183 	add.w	r1, r1, r3, lsl #2
1000c88c:	eb07 0383 	add.w	r3, r7, r3, lsl #2
1000c890:	e001      	b.n	1000c896 <__mdiff+0x2a>
1000c892:	429f      	cmp	r7, r3
1000c894:	d27e      	bcs.n	1000c994 <__mdiff+0x128>
1000c896:	f853 4d04 	ldr.w	r4, [r3, #-4]!
1000c89a:	f851 2d04 	ldr.w	r2, [r1, #-4]!
1000c89e:	4294      	cmp	r4, r2
1000c8a0:	d0f7      	beq.n	1000c892 <__mdiff+0x26>
1000c8a2:	f080 8082 	bcs.w	1000c9aa <__mdiff+0x13e>
1000c8a6:	2601      	movs	r6, #1
1000c8a8:	e003      	b.n	1000c8b2 <__mdiff+0x46>
1000c8aa:	dbfc      	blt.n	1000c8a6 <__mdiff+0x3a>
1000c8ac:	2600      	movs	r6, #0
1000c8ae:	460d      	mov	r5, r1
1000c8b0:	4691      	mov	r9, r2
1000c8b2:	6869      	ldr	r1, [r5, #4]
1000c8b4:	f7ff fcc0 	bl	1000c238 <_Balloc>
1000c8b8:	2800      	cmp	r0, #0
1000c8ba:	f000 8083 	beq.w	1000c9c4 <__mdiff+0x158>
1000c8be:	692f      	ldr	r7, [r5, #16]
1000c8c0:	f105 0b14 	add.w	fp, r5, #20
1000c8c4:	f105 0210 	add.w	r2, r5, #16
1000c8c8:	f8d9 3010 	ldr.w	r3, [r9, #16]
1000c8cc:	f109 0514 	add.w	r5, r9, #20
1000c8d0:	f100 0114 	add.w	r1, r0, #20
1000c8d4:	eb0b 0e87 	add.w	lr, fp, r7, lsl #2
1000c8d8:	4694      	mov	ip, r2
1000c8da:	eb05 0a83 	add.w	sl, r5, r3, lsl #2
1000c8de:	4688      	mov	r8, r1
1000c8e0:	2300      	movs	r3, #0
1000c8e2:	60c6      	str	r6, [r0, #12]
1000c8e4:	f8cd b004 	str.w	fp, [sp, #4]
1000c8e8:	f855 6b04 	ldr.w	r6, [r5], #4
1000c8ec:	f85c 2f04 	ldr.w	r2, [ip, #4]!
1000c8f0:	fa1f fb86 	uxth.w	fp, r6
1000c8f4:	45aa      	cmp	sl, r5
1000c8f6:	b294      	uxth	r4, r2
1000c8f8:	eba4 040b 	sub.w	r4, r4, fp
1000c8fc:	441c      	add	r4, r3
1000c8fe:	ea4f 4316 	mov.w	r3, r6, lsr #16
1000c902:	ebc3 4312 	rsb	r3, r3, r2, lsr #16
1000c906:	eb03 4324 	add.w	r3, r3, r4, asr #16
1000c90a:	b2a4      	uxth	r4, r4
1000c90c:	ea44 4403 	orr.w	r4, r4, r3, lsl #16
1000c910:	ea4f 4323 	mov.w	r3, r3, asr #16
1000c914:	f848 4b04 	str.w	r4, [r8], #4
1000c918:	d8e6      	bhi.n	1000c8e8 <__mdiff+0x7c>
1000c91a:	ebaa 0209 	sub.w	r2, sl, r9
1000c91e:	f109 0915 	add.w	r9, r9, #21
1000c922:	f8dd b004 	ldr.w	fp, [sp, #4]
1000c926:	4626      	mov	r6, r4
1000c928:	3a15      	subs	r2, #21
1000c92a:	f022 0203 	bic.w	r2, r2, #3
1000c92e:	45ca      	cmp	sl, r9
1000c930:	bf38      	it	cc
1000c932:	2200      	movcc	r2, #0
1000c934:	eb0b 0802 	add.w	r8, fp, r2
1000c938:	440a      	add	r2, r1
1000c93a:	f108 0804 	add.w	r8, r8, #4
1000c93e:	1d14      	adds	r4, r2, #4
1000c940:	45c6      	cmp	lr, r8
1000c942:	4645      	mov	r5, r8
1000c944:	d935      	bls.n	1000c9b2 <__mdiff+0x146>
1000c946:	eba1 010b 	sub.w	r1, r1, fp
1000c94a:	eb05 0c01 	add.w	ip, r5, r1
1000c94e:	f855 2b04 	ldr.w	r2, [r5], #4
1000c952:	fa1f f982 	uxth.w	r9, r2
1000c956:	18d6      	adds	r6, r2, r3
1000c958:	0c12      	lsrs	r2, r2, #16
1000c95a:	45ae      	cmp	lr, r5
1000c95c:	444b      	add	r3, r9
1000c95e:	b2b6      	uxth	r6, r6
1000c960:	eb02 4223 	add.w	r2, r2, r3, asr #16
1000c964:	ea46 4602 	orr.w	r6, r6, r2, lsl #16
1000c968:	ea4f 4322 	mov.w	r3, r2, asr #16
1000c96c:	f8cc 6000 	str.w	r6, [ip]
1000c970:	d8eb      	bhi.n	1000c94a <__mdiff+0xde>
1000c972:	f10e 33ff 	add.w	r3, lr, #4294967295	@ 0xffffffff
1000c976:	eba3 0308 	sub.w	r3, r3, r8
1000c97a:	f023 0303 	bic.w	r3, r3, #3
1000c97e:	4423      	add	r3, r4
1000c980:	b926      	cbnz	r6, 1000c98c <__mdiff+0x120>
1000c982:	f853 2d04 	ldr.w	r2, [r3, #-4]!
1000c986:	3f01      	subs	r7, #1
1000c988:	2a00      	cmp	r2, #0
1000c98a:	d0fa      	beq.n	1000c982 <__mdiff+0x116>
1000c98c:	6107      	str	r7, [r0, #16]
1000c98e:	b003      	add	sp, #12
1000c990:	e8bd 8ff0 	ldmia.w	sp!, {r4, r5, r6, r7, r8, r9, sl, fp, pc}
1000c994:	2100      	movs	r1, #0
1000c996:	f7ff fc4f 	bl	1000c238 <_Balloc>
1000c99a:	b160      	cbz	r0, 1000c9b6 <__mdiff+0x14a>
1000c99c:	2201      	movs	r2, #1
1000c99e:	2300      	movs	r3, #0
1000c9a0:	e9c0 2304 	strd	r2, r3, [r0, #16]
1000c9a4:	b003      	add	sp, #12
1000c9a6:	e8bd 8ff0 	ldmia.w	sp!, {r4, r5, r6, r7, r8, r9, sl, fp, pc}
1000c9aa:	462b      	mov	r3, r5
1000c9ac:	464d      	mov	r5, r9
1000c9ae:	4699      	mov	r9, r3
1000c9b0:	e77f      	b.n	1000c8b2 <__mdiff+0x46>
1000c9b2:	4613      	mov	r3, r2
1000c9b4:	e7e4      	b.n	1000c980 <__mdiff+0x114>
1000c9b6:	4602      	mov	r2, r0
1000c9b8:	4b06      	ldr	r3, [pc, #24]	@ (1000c9d4 <__mdiff+0x168>)
1000c9ba:	f240 2137 	movw	r1, #567	@ 0x237
1000c9be:	4806      	ldr	r0, [pc, #24]	@ (1000c9d8 <__mdiff+0x16c>)
1000c9c0:	f7f9 ffc0 	bl	10006944 <__assert_func>
1000c9c4:	4602      	mov	r2, r0
1000c9c6:	4b03      	ldr	r3, [pc, #12]	@ (1000c9d4 <__mdiff+0x168>)
1000c9c8:	f240 2145 	movw	r1, #581	@ 0x245
1000c9cc:	4802      	ldr	r0, [pc, #8]	@ (1000c9d8 <__mdiff+0x16c>)
1000c9ce:	f7f9 ffb9 	bl	10006944 <__assert_func>
1000c9d2:	bf00      	nop
1000c9d4:	1000d304 	.word	0x1000d304
1000c9d8:	1000d37c 	.word	0x1000d37c

1000c9dc <__ulp>:
1000c9dc:	4b11      	ldr	r3, [pc, #68]	@ (1000ca24 <__ulp+0x48>)
1000c9de:	400b      	ands	r3, r1
1000c9e0:	f1a3 7350 	sub.w	r3, r3, #54525952	@ 0x3400000
1000c9e4:	2b00      	cmp	r3, #0
1000c9e6:	dd03      	ble.n	1000c9f0 <__ulp+0x14>
1000c9e8:	2200      	movs	r2, #0
1000c9ea:	4619      	mov	r1, r3
1000c9ec:	4610      	mov	r0, r2
1000c9ee:	4770      	bx	lr
1000c9f0:	425b      	negs	r3, r3
1000c9f2:	f1b3 7fa0 	cmp.w	r3, #20971520	@ 0x1400000
1000c9f6:	ea4f 5123 	mov.w	r1, r3, asr #20
1000c9fa:	da06      	bge.n	1000ca0a <__ulp+0x2e>
1000c9fc:	f44f 2300 	mov.w	r3, #524288	@ 0x80000
1000ca00:	2200      	movs	r2, #0
1000ca02:	410b      	asrs	r3, r1
1000ca04:	4610      	mov	r0, r2
1000ca06:	4619      	mov	r1, r3
1000ca08:	4770      	bx	lr
1000ca0a:	3914      	subs	r1, #20
1000ca0c:	291e      	cmp	r1, #30
1000ca0e:	dd04      	ble.n	1000ca1a <__ulp+0x3e>
1000ca10:	2201      	movs	r2, #1
1000ca12:	2300      	movs	r3, #0
1000ca14:	4610      	mov	r0, r2
1000ca16:	4619      	mov	r1, r3
1000ca18:	4770      	bx	lr
1000ca1a:	f04f 4200 	mov.w	r2, #2147483648	@ 0x80000000
1000ca1e:	40ca      	lsrs	r2, r1
1000ca20:	e7f7      	b.n	1000ca12 <__ulp+0x36>
1000ca22:	bf00      	nop
1000ca24:	7ff00000 	.word	0x7ff00000

1000ca28 <__b2d>:
1000ca28:	e92d 43f8 	stmdb	sp!, {r3, r4, r5, r6, r7, r8, r9, lr}
1000ca2c:	6906      	ldr	r6, [r0, #16]
1000ca2e:	f100 0814 	add.w	r8, r0, #20
1000ca32:	eb08 0686 	add.w	r6, r8, r6, lsl #2
1000ca36:	f856 7c04 	ldr.w	r7, [r6, #-4]
1000ca3a:	f1a6 0904 	sub.w	r9, r6, #4
1000ca3e:	4638      	mov	r0, r7
1000ca40:	f7ff fcd4 	bl	1000c3ec <__hi0bits>
1000ca44:	f1c0 0320 	rsb	r3, r0, #32
1000ca48:	280a      	cmp	r0, #10
1000ca4a:	600b      	str	r3, [r1, #0]
1000ca4c:	dd34      	ble.n	1000cab8 <__b2d+0x90>
1000ca4e:	45c8      	cmp	r8, r9
1000ca50:	f1a0 020b 	sub.w	r2, r0, #11
1000ca54:	d21a      	bcs.n	1000ca8c <__b2d+0x64>
1000ca56:	f856 3c08 	ldr.w	r3, [r6, #-8]
1000ca5a:	b32a      	cbz	r2, 1000caa8 <__b2d+0x80>
1000ca5c:	f1c2 0020 	rsb	r0, r2, #32
1000ca60:	4097      	lsls	r7, r2
1000ca62:	f1a6 0108 	sub.w	r1, r6, #8
1000ca66:	fa23 f400 	lsr.w	r4, r3, r0
1000ca6a:	4093      	lsls	r3, r2
1000ca6c:	4588      	cmp	r8, r1
1000ca6e:	ea47 0704 	orr.w	r7, r7, r4
1000ca72:	f047 557f 	orr.w	r5, r7, #1069547520	@ 0x3fc00000
1000ca76:	f445 1540 	orr.w	r5, r5, #3145728	@ 0x300000
1000ca7a:	d219      	bcs.n	1000cab0 <__b2d+0x88>
1000ca7c:	f856 2c0c 	ldr.w	r2, [r6, #-12]
1000ca80:	4629      	mov	r1, r5
1000ca82:	40c2      	lsrs	r2, r0
1000ca84:	4313      	orrs	r3, r2
1000ca86:	4618      	mov	r0, r3
1000ca88:	e8bd 83f8 	ldmia.w	sp!, {r3, r4, r5, r6, r7, r8, r9, pc}
1000ca8c:	280b      	cmp	r0, #11
1000ca8e:	d00a      	beq.n	1000caa6 <__b2d+0x7e>
1000ca90:	fa07 f202 	lsl.w	r2, r7, r2
1000ca94:	2300      	movs	r3, #0
1000ca96:	f042 557f 	orr.w	r5, r2, #1069547520	@ 0x3fc00000
1000ca9a:	4618      	mov	r0, r3
1000ca9c:	f445 1540 	orr.w	r5, r5, #3145728	@ 0x300000
1000caa0:	4629      	mov	r1, r5
1000caa2:	e8bd 83f8 	ldmia.w	sp!, {r3, r4, r5, r6, r7, r8, r9, pc}
1000caa6:	2300      	movs	r3, #0
1000caa8:	f047 557f 	orr.w	r5, r7, #1069547520	@ 0x3fc00000
1000caac:	f445 1540 	orr.w	r5, r5, #3145728	@ 0x300000
1000cab0:	4618      	mov	r0, r3
1000cab2:	4629      	mov	r1, r5
1000cab4:	e8bd 83f8 	ldmia.w	sp!, {r3, r4, r5, r6, r7, r8, r9, pc}
1000cab8:	f1c0 030b 	rsb	r3, r0, #11
1000cabc:	45c8      	cmp	r8, r9
1000cabe:	fa27 f203 	lsr.w	r2, r7, r3
1000cac2:	f042 557f 	orr.w	r5, r2, #1069547520	@ 0x3fc00000
1000cac6:	f445 1540 	orr.w	r5, r5, #3145728	@ 0x300000
1000caca:	d309      	bcc.n	1000cae0 <__b2d+0xb8>
1000cacc:	2200      	movs	r2, #0
1000cace:	f100 0315 	add.w	r3, r0, #21
1000cad2:	4629      	mov	r1, r5
1000cad4:	fa07 f303 	lsl.w	r3, r7, r3
1000cad8:	4313      	orrs	r3, r2
1000cada:	4618      	mov	r0, r3
1000cadc:	e8bd 83f8 	ldmia.w	sp!, {r3, r4, r5, r6, r7, r8, r9, pc}
1000cae0:	f856 2c08 	ldr.w	r2, [r6, #-8]
1000cae4:	40da      	lsrs	r2, r3
1000cae6:	e7f2      	b.n	1000cace <__b2d+0xa6>

1000cae8 <__d2b>:
1000cae8:	b5f0      	push	{r4, r5, r6, r7, lr}
1000caea:	2101      	movs	r1, #1
1000caec:	b083      	sub	sp, #12
1000caee:	4616      	mov	r6, r2
1000caf0:	461f      	mov	r7, r3
1000caf2:	f7ff fba1 	bl	1000c238 <_Balloc>
1000caf6:	4605      	mov	r5, r0
1000caf8:	2800      	cmp	r0, #0
1000cafa:	d047      	beq.n	1000cb8c <__d2b+0xa4>
1000cafc:	f3c7 540a 	ubfx	r4, r7, #20, #11
1000cb00:	f3c7 0313 	ubfx	r3, r7, #0, #20
1000cb04:	b10c      	cbz	r4, 1000cb0a <__d2b+0x22>
1000cb06:	f443 1380 	orr.w	r3, r3, #1048576	@ 0x100000
1000cb0a:	2e00      	cmp	r6, #0
1000cb0c:	9301      	str	r3, [sp, #4]
1000cb0e:	d115      	bne.n	1000cb3c <__d2b+0x54>
1000cb10:	a801      	add	r0, sp, #4
1000cb12:	f7ff fc95 	bl	1000c440 <__lo0bits>
1000cb16:	9a01      	ldr	r2, [sp, #4]
1000cb18:	2101      	movs	r1, #1
1000cb1a:	f100 0320 	add.w	r3, r0, #32
1000cb1e:	616a      	str	r2, [r5, #20]
1000cb20:	6129      	str	r1, [r5, #16]
1000cb22:	b31c      	cbz	r4, 1000cb6c <__d2b+0x84>
1000cb24:	f2a4 4433 	subw	r4, r4, #1075	@ 0x433
1000cb28:	f1c3 0035 	rsb	r0, r3, #53	@ 0x35
1000cb2c:	441c      	add	r4, r3
1000cb2e:	9b08      	ldr	r3, [sp, #32]
1000cb30:	601c      	str	r4, [r3, #0]
1000cb32:	9b09      	ldr	r3, [sp, #36]	@ 0x24
1000cb34:	6018      	str	r0, [r3, #0]
1000cb36:	4628      	mov	r0, r5
1000cb38:	b003      	add	sp, #12
1000cb3a:	bdf0      	pop	{r4, r5, r6, r7, pc}
1000cb3c:	4668      	mov	r0, sp
1000cb3e:	9600      	str	r6, [sp, #0]
1000cb40:	f7ff fc7e 	bl	1000c440 <__lo0bits>
1000cb44:	4603      	mov	r3, r0
1000cb46:	e9dd 1200 	ldrd	r1, r2, [sp]
1000cb4a:	b130      	cbz	r0, 1000cb5a <__d2b+0x72>
1000cb4c:	f1c0 0020 	rsb	r0, r0, #32
1000cb50:	fa02 f000 	lsl.w	r0, r2, r0
1000cb54:	40da      	lsrs	r2, r3
1000cb56:	4301      	orrs	r1, r0
1000cb58:	9201      	str	r2, [sp, #4]
1000cb5a:	2a00      	cmp	r2, #0
1000cb5c:	e9c5 1205 	strd	r1, r2, [r5, #20]
1000cb60:	bf0c      	ite	eq
1000cb62:	2101      	moveq	r1, #1
1000cb64:	2102      	movne	r1, #2
1000cb66:	6129      	str	r1, [r5, #16]
1000cb68:	2c00      	cmp	r4, #0
1000cb6a:	d1db      	bne.n	1000cb24 <__d2b+0x3c>
1000cb6c:	f2a3 4332 	subw	r3, r3, #1074	@ 0x432
1000cb70:	eb05 0281 	add.w	r2, r5, r1, lsl #2
1000cb74:	9808      	ldr	r0, [sp, #32]
1000cb76:	6003      	str	r3, [r0, #0]
1000cb78:	6910      	ldr	r0, [r2, #16]
1000cb7a:	f7ff fc37 	bl	1000c3ec <__hi0bits>
1000cb7e:	9b09      	ldr	r3, [sp, #36]	@ 0x24
1000cb80:	ebc0 1041 	rsb	r0, r0, r1, lsl #5
1000cb84:	6018      	str	r0, [r3, #0]
1000cb86:	4628      	mov	r0, r5
1000cb88:	b003      	add	sp, #12
1000cb8a:	bdf0      	pop	{r4, r5, r6, r7, pc}
1000cb8c:	4602      	mov	r2, r0
1000cb8e:	4b03      	ldr	r3, [pc, #12]	@ (1000cb9c <__d2b+0xb4>)
1000cb90:	f240 310f 	movw	r1, #783	@ 0x30f
1000cb94:	4802      	ldr	r0, [pc, #8]	@ (1000cba0 <__d2b+0xb8>)
1000cb96:	f7f9 fed5 	bl	10006944 <__assert_func>
1000cb9a:	bf00      	nop
1000cb9c:	1000d304 	.word	0x1000d304
1000cba0:	1000d37c 	.word	0x1000d37c

1000cba4 <__ratio>:
1000cba4:	e92d 43f0 	stmdb	sp!, {r4, r5, r6, r7, r8, r9, lr}
1000cba8:	b083      	sub	sp, #12
1000cbaa:	4688      	mov	r8, r1
1000cbac:	4681      	mov	r9, r0
1000cbae:	4669      	mov	r1, sp
1000cbb0:	f7ff ff3a 	bl	1000ca28 <__b2d>
1000cbb4:	4604      	mov	r4, r0
1000cbb6:	460d      	mov	r5, r1
1000cbb8:	4640      	mov	r0, r8
1000cbba:	a901      	add	r1, sp, #4
1000cbbc:	f7ff ff34 	bl	1000ca28 <__b2d>
1000cbc0:	f8d9 3010 	ldr.w	r3, [r9, #16]
1000cbc4:	f8d8 2010 	ldr.w	r2, [r8, #16]
1000cbc8:	eba3 0c02 	sub.w	ip, r3, r2
1000cbcc:	e9dd 3200 	ldrd	r3, r2, [sp]
1000cbd0:	1a9b      	subs	r3, r3, r2
1000cbd2:	eb03 134c 	add.w	r3, r3, ip, lsl #5
1000cbd6:	2b00      	cmp	r3, #0
1000cbd8:	dd0b      	ble.n	1000cbf2 <__ratio+0x4e>
1000cbda:	eb05 5703 	add.w	r7, r5, r3, lsl #20
1000cbde:	463d      	mov	r5, r7
1000cbe0:	4602      	mov	r2, r0
1000cbe2:	460b      	mov	r3, r1
1000cbe4:	4620      	mov	r0, r4
1000cbe6:	4629      	mov	r1, r5
1000cbe8:	f7f8 f822 	bl	10004c30 <__wrap___aeabi_ddiv>
1000cbec:	b003      	add	sp, #12
1000cbee:	e8bd 83f0 	ldmia.w	sp!, {r4, r5, r6, r7, r8, r9, pc}
1000cbf2:	ebc3 3303 	rsb	r3, r3, r3, lsl #12
1000cbf6:	eb01 5903 	add.w	r9, r1, r3, lsl #20
1000cbfa:	4649      	mov	r1, r9
1000cbfc:	e7f0      	b.n	1000cbe0 <__ratio+0x3c>
1000cbfe:	bf00      	nop

1000cc00 <__copybits>:
1000cc00:	3901      	subs	r1, #1
1000cc02:	f102 0314 	add.w	r3, r2, #20
1000cc06:	ea4f 1c61 	mov.w	ip, r1, asr #5
1000cc0a:	6911      	ldr	r1, [r2, #16]
1000cc0c:	eb03 0181 	add.w	r1, r3, r1, lsl #2
1000cc10:	f10c 0c01 	add.w	ip, ip, #1
1000cc14:	428b      	cmp	r3, r1
1000cc16:	eb00 0c8c 	add.w	ip, r0, ip, lsl #2
1000cc1a:	d216      	bcs.n	1000cc4a <__copybits+0x4a>
1000cc1c:	b510      	push	{r4, lr}
1000cc1e:	f1a0 0e04 	sub.w	lr, r0, #4
1000cc22:	f853 4b04 	ldr.w	r4, [r3], #4
1000cc26:	4299      	cmp	r1, r3
1000cc28:	f84e 4f04 	str.w	r4, [lr, #4]!
1000cc2c:	d8f9      	bhi.n	1000cc22 <__copybits+0x22>
1000cc2e:	1a89      	subs	r1, r1, r2
1000cc30:	3004      	adds	r0, #4
1000cc32:	3915      	subs	r1, #21
1000cc34:	f021 0103 	bic.w	r1, r1, #3
1000cc38:	4408      	add	r0, r1
1000cc3a:	4584      	cmp	ip, r0
1000cc3c:	d904      	bls.n	1000cc48 <__copybits+0x48>
1000cc3e:	2300      	movs	r3, #0
1000cc40:	f840 3b04 	str.w	r3, [r0], #4
1000cc44:	4584      	cmp	ip, r0
1000cc46:	d8fb      	bhi.n	1000cc40 <__copybits+0x40>
1000cc48:	bd10      	pop	{r4, pc}
1000cc4a:	4584      	cmp	ip, r0
1000cc4c:	d905      	bls.n	1000cc5a <__copybits+0x5a>
1000cc4e:	2300      	movs	r3, #0
1000cc50:	f840 3b04 	str.w	r3, [r0], #4
1000cc54:	4584      	cmp	ip, r0
1000cc56:	d8fb      	bhi.n	1000cc50 <__copybits+0x50>
1000cc58:	4770      	bx	lr
1000cc5a:	4770      	bx	lr

1000cc5c <__any_on>:
1000cc5c:	6903      	ldr	r3, [r0, #16]
1000cc5e:	114a      	asrs	r2, r1, #5
1000cc60:	3014      	adds	r0, #20
1000cc62:	4293      	cmp	r3, r2
1000cc64:	da09      	bge.n	1000cc7a <__any_on+0x1e>
1000cc66:	eb00 0383 	add.w	r3, r0, r3, lsl #2
1000cc6a:	e002      	b.n	1000cc72 <__any_on+0x16>
1000cc6c:	f853 2d04 	ldr.w	r2, [r3, #-4]!
1000cc70:	b9aa      	cbnz	r2, 1000cc9e <__any_on+0x42>
1000cc72:	4283      	cmp	r3, r0
1000cc74:	d8fa      	bhi.n	1000cc6c <__any_on+0x10>
1000cc76:	2000      	movs	r0, #0
1000cc78:	4770      	bx	lr
1000cc7a:	eb00 0382 	add.w	r3, r0, r2, lsl #2
1000cc7e:	ddf8      	ble.n	1000cc72 <__any_on+0x16>
1000cc80:	f011 011f 	ands.w	r1, r1, #31
1000cc84:	d0f5      	beq.n	1000cc72 <__any_on+0x16>
1000cc86:	b410      	push	{r4}
1000cc88:	f850 4022 	ldr.w	r4, [r0, r2, lsl #2]
1000cc8c:	fa24 f201 	lsr.w	r2, r4, r1
1000cc90:	408a      	lsls	r2, r1
1000cc92:	4294      	cmp	r4, r2
1000cc94:	d009      	beq.n	1000ccaa <__any_on+0x4e>
1000cc96:	2001      	movs	r0, #1
1000cc98:	f85d 4b04 	ldr.w	r4, [sp], #4
1000cc9c:	4770      	bx	lr
1000cc9e:	2001      	movs	r0, #1
1000cca0:	4770      	bx	lr
1000cca2:	f853 2d04 	ldr.w	r2, [r3, #-4]!
1000cca6:	2a00      	cmp	r2, #0
1000cca8:	d1f5      	bne.n	1000cc96 <__any_on+0x3a>
1000ccaa:	4283      	cmp	r3, r0
1000ccac:	d8f9      	bhi.n	1000cca2 <__any_on+0x46>
1000ccae:	2000      	movs	r0, #0
1000ccb0:	f85d 4b04 	ldr.w	r4, [sp], #4
1000ccb4:	4770      	bx	lr
1000ccb6:	bf00      	nop

1000ccb8 <category>:
1000ccb8:	4b15      	ldr	r3, [pc, #84]	@ (1000cd10 <category+0x58>)
1000ccba:	4298      	cmp	r0, r3
1000ccbc:	d826      	bhi.n	1000cd0c <category+0x54>
1000ccbe:	f640 0cf9 	movw	ip, #2297	@ 0x8f9
1000ccc2:	b570      	push	{r4, r5, r6, lr}
1000ccc4:	f04f 0e00 	mov.w	lr, #0
1000ccc8:	4d12      	ldr	r5, [pc, #72]	@ (1000cd14 <category+0x5c>)
1000ccca:	e003      	b.n	1000ccd4 <category+0x1c>
1000cccc:	f104 0e01 	add.w	lr, r4, #1
1000ccd0:	45f4      	cmp	ip, lr
1000ccd2:	db19      	blt.n	1000cd08 <category+0x50>
1000ccd4:	eb1e 020c 	adds.w	r2, lr, ip
1000ccd8:	bf48      	it	mi
1000ccda:	3201      	addmi	r2, #1
1000ccdc:	f022 0301 	bic.w	r3, r2, #1
1000cce0:	1054      	asrs	r4, r2, #1
1000cce2:	eb03 0362 	add.w	r3, r3, r2, asr #1
1000cce6:	eb05 0143 	add.w	r1, r5, r3, lsl #1
1000ccea:	005b      	lsls	r3, r3, #1
1000ccec:	784a      	ldrb	r2, [r1, #1]
1000ccee:	884e      	ldrh	r6, [r1, #2]
1000ccf0:	8889      	ldrh	r1, [r1, #4]
1000ccf2:	ea42 2206 	orr.w	r2, r2, r6, lsl #8
1000ccf6:	4411      	add	r1, r2
1000ccf8:	4288      	cmp	r0, r1
1000ccfa:	d8e7      	bhi.n	1000cccc <category+0x14>
1000ccfc:	4290      	cmp	r0, r2
1000ccfe:	f104 3cff 	add.w	ip, r4, #4294967295	@ 0xffffffff
1000cd02:	d3e5      	bcc.n	1000ccd0 <category+0x18>
1000cd04:	5ce8      	ldrb	r0, [r5, r3]
1000cd06:	bd70      	pop	{r4, r5, r6, pc}
1000cd08:	20ff      	movs	r0, #255	@ 0xff
1000cd0a:	bd70      	pop	{r4, r5, r6, pc}
1000cd0c:	20ff      	movs	r0, #255	@ 0xff
1000cd0e:	4770      	bx	lr
1000cd10:	000e01ef 	.word	0x000e01ef
1000cd14:	10011a30 	.word	0x10011a30

1000cd18 <_fini>:
1000cd18:	b5f8      	push	{r3, r4, r5, r6, r7, lr}
1000cd1a:	bf00      	nop
1000cd1c:	0000      	movs	r0, r0
	...

1000cd20 <____aeabi_uldivmod_veneer>:
1000cd20:	f85f f000 	ldr.w	pc, [pc]	@ 1000cd24 <____aeabi_uldivmod_veneer+0x4>
1000cd24:	200002a1 	.word	0x200002a1

1000cd28 <__mutex_exit_veneer>:
1000cd28:	f85f f000 	ldr.w	pc, [pc]	@ 1000cd2c <__mutex_exit_veneer+0x4>
1000cd2c:	20000265 	.word	0x20000265

1000cd30 <__mutex_enter_blocking_veneer>:
1000cd30:	f85f f000 	ldr.w	pc, [pc]	@ 1000cd34 <__mutex_enter_blocking_veneer+0x4>
1000cd34:	20000111 	.word	0x20000111

1000cd38 <__mutex_try_enter_block_until_veneer>:
1000cd38:	f85f f000 	ldr.w	pc, [pc]	@ 1000cd3c <__mutex_try_enter_block_until_veneer+0x4>
1000cd3c:	200001fd 	.word	0x200001fd

1000cd40 <__pre_init_runtime_init_bootrom_reset>:
1000cd40:	100049e1                                .I..

1000cd44 <__pre_init_runtime_init_early_resets>:
1000cd44:	10004955                                UI..

1000cd48 <__pre_init_runtime_init_usb_power_down>:
1000cd48:	10004989                                .I..

1000cd4c <__pre_init_runtime_init_clocks>:
1000cd4c:	10004a75                                uJ..

1000cd50 <__pre_init_runtime_init_post_clock_resets>:
1000cd50:	100049c1                                .I..

1000cd54 <__pre_init_runtime_init_boot_locks_reset>:
1000cd54:	100048b9                                .H..

1000cd58 <__pre_init_runtime_init_spin_locks_reset>:
1000cd58:	10004a09                                .J..

1000cd5c <__pre_init_runtime_init_bootrom_locking_enable>:
1000cd5c:	100048a5                                .H..

1000cd60 <__pre_init_runtime_init_mutex>:
1000cd60:	10003d0d                                .=..

1000cd64 <__pre_init_runtime_init_install_ram_vector_table>:
1000cd64:	10004a0d                                .J..

1000cd68 <__pre_init_runtime_init_default_alarm_pool>:
1000cd68:	10004089                                .@..

1000cd6c <__pre_init_first_per_core_initializer>:
1000cd6c:	10004905                                .I..

1000cd70 <__pre_init_runtime_init_per_core_bootrom_reset>:
1000cd70:	100049f5                                .I..

1000cd74 <__pre_init_runtime_init_per_core_enable_coprocessors>:
1000cd74:	100049a5                                .I..

1000cd78 <__pre_init_spinlock_set_extexclall>:
1000cd78:	10003bed                                .;..

1000cd7c <__pre_init_runtime_init_per_core_irq_priorities>:
1000cd7c:	10003c15                                .<..

1000cd80 <__frame_dummy_init_array_entry>:
1000cd80:	10000211                                ....

Disassembly of section .data:

20000110 <mutex_enter_blocking>:
20000110:	f04f 4350 	mov.w	r3, #3489660928	@ 0xd0000000
20000114:	b510      	push	{r4, lr}
20000116:	6802      	ldr	r2, [r0, #0]
20000118:	f993 4000 	ldrsb.w	r4, [r3]
2000011c:	f3ef 8310 	mrs	r3, PRIMASK
20000120:	b672      	cpsid	i
20000122:	e8d2 cfcf 	ldaexb	ip, [r2]
20000126:	2101      	movs	r1, #1
20000128:	f1bc 0f00 	cmp.w	ip, #0
2000012c:	d1f9      	bne.n	20000122 <mutex_enter_blocking+0x12>
2000012e:	e8c2 1f4c 	strexb	ip, r1, [r2]
20000132:	f1bc 0f00 	cmp.w	ip, #0
20000136:	d1f4      	bne.n	20000122 <mutex_enter_blocking+0x12>
20000138:	f3bf 8f5f 	dmb	sy
2000013c:	f990 2004 	ldrsb.w	r2, [r0, #4]
20000140:	2a00      	cmp	r2, #0
20000142:	db1c      	blt.n	2000017e <mutex_enter_blocking+0x6e>
20000144:	2100      	movs	r1, #0
20000146:	6802      	ldr	r2, [r0, #0]
20000148:	e8c2 1f8f 	stlb	r1, [r2]
2000014c:	f383 8810 	msr	PRIMASK, r3
20000150:	bf20      	wfe
20000152:	6802      	ldr	r2, [r0, #0]
20000154:	f3ef 8310 	mrs	r3, PRIMASK
20000158:	b672      	cpsid	i
2000015a:	e8d2 efcf 	ldaexb	lr, [r2]
2000015e:	f05f 0c01 	movs.w	ip, #1
20000162:	f1be 0f00 	cmp.w	lr, #0
20000166:	d1f8      	bne.n	2000015a <mutex_enter_blocking+0x4a>
20000168:	e8c2 cf4e 	strexb	lr, ip, [r2]
2000016c:	f1be 0f00 	cmp.w	lr, #0
20000170:	d1f3      	bne.n	2000015a <mutex_enter_blocking+0x4a>
20000172:	f3bf 8f5f 	dmb	sy
20000176:	f990 2004 	ldrsb.w	r2, [r0, #4]
2000017a:	2a00      	cmp	r2, #0
2000017c:	dae3      	bge.n	20000146 <mutex_enter_blocking+0x36>
2000017e:	2200      	movs	r2, #0
20000180:	6801      	ldr	r1, [r0, #0]
20000182:	7104      	strb	r4, [r0, #4]
20000184:	e8c1 2f8f 	stlb	r2, [r1]
20000188:	f383 8810 	msr	PRIMASK, r3
2000018c:	bd10      	pop	{r4, pc}
2000018e:	bf00      	nop

20000190 <mutex_enter_block_until>:
20000190:	f04f 4150 	mov.w	r1, #3489660928	@ 0xd0000000
20000194:	e92d 41f0 	stmdb	sp!, {r4, r5, r6, r7, r8, lr}
20000198:	2700      	movs	r7, #0
2000019a:	4604      	mov	r4, r0
2000019c:	4616      	mov	r6, r2
2000019e:	461d      	mov	r5, r3
200001a0:	f8d1 8000 	ldr.w	r8, [r1]
200001a4:	e008      	b.n	200001b8 <mutex_enter_block_until+0x28>
200001a6:	e8c1 7f8f 	stlb	r7, [r1]
200001aa:	f38c 8810 	msr	PRIMASK, ip
200001ae:	4630      	mov	r0, r6
200001b0:	4629      	mov	r1, r5
200001b2:	f000 fa35 	bl	20000620 <__best_effort_wfe_or_timeout_veneer>
200001b6:	b9e8      	cbnz	r0, 200001f4 <mutex_enter_block_until+0x64>
200001b8:	6821      	ldr	r1, [r4, #0]
200001ba:	f3ef 8c10 	mrs	ip, PRIMASK
200001be:	b672      	cpsid	i
200001c0:	e8d1 2fcf 	ldaexb	r2, [r1]
200001c4:	2301      	movs	r3, #1
200001c6:	2a00      	cmp	r2, #0
200001c8:	d1fa      	bne.n	200001c0 <mutex_enter_block_until+0x30>
200001ca:	e8c1 3f42 	strexb	r2, r3, [r1]
200001ce:	2a00      	cmp	r2, #0
200001d0:	d1f6      	bne.n	200001c0 <mutex_enter_block_until+0x30>
200001d2:	f3bf 8f5f 	dmb	sy
200001d6:	f994 3004 	ldrsb.w	r3, [r4, #4]
200001da:	6821      	ldr	r1, [r4, #0]
200001dc:	2b00      	cmp	r3, #0
200001de:	dae2      	bge.n	200001a6 <mutex_enter_block_until+0x16>
200001e0:	2300      	movs	r3, #0
200001e2:	f884 8004 	strb.w	r8, [r4, #4]
200001e6:	e8c1 3f8f 	stlb	r3, [r1]
200001ea:	f38c 8810 	msr	PRIMASK, ip
200001ee:	2001      	movs	r0, #1
200001f0:	e8bd 81f0 	ldmia.w	sp!, {r4, r5, r6, r7, r8, pc}
200001f4:	2000      	movs	r0, #0
200001f6:	e8bd 81f0 	ldmia.w	sp!, {r4, r5, r6, r7, r8, pc}
200001fa:	bf00      	nop

200001fc <mutex_try_enter_block_until>:
200001fc:	b530      	push	{r4, r5, lr}
200001fe:	6804      	ldr	r4, [r0, #0]
20000200:	f3ef 8c10 	mrs	ip, PRIMASK
20000204:	b672      	cpsid	i
20000206:	e8d4 efcf 	ldaexb	lr, [r4]
2000020a:	2501      	movs	r5, #1
2000020c:	f1be 0f00 	cmp.w	lr, #0
20000210:	d1f9      	bne.n	20000206 <mutex_try_enter_block_until+0xa>
20000212:	e8c4 5f4e 	strexb	lr, r5, [r4]
20000216:	f1be 0f00 	cmp.w	lr, #0
2000021a:	d1f4      	bne.n	20000206 <mutex_try_enter_block_until+0xa>
2000021c:	f3bf 8f5f 	dmb	sy
20000220:	f990 4004 	ldrsb.w	r4, [r0, #4]
20000224:	6805      	ldr	r5, [r0, #0]
20000226:	2c00      	cmp	r4, #0
20000228:	db10      	blt.n	2000024c <mutex_try_enter_block_until+0x50>
2000022a:	2100      	movs	r1, #0
2000022c:	e8c5 1f8f 	stlb	r1, [r5]
20000230:	f38c 8810 	msr	PRIMASK, ip
20000234:	f04f 4550 	mov.w	r5, #3489660928	@ 0xd0000000
20000238:	f995 5000 	ldrsb.w	r5, [r5]
2000023c:	42a5      	cmp	r5, r4
2000023e:	d101      	bne.n	20000244 <mutex_try_enter_block_until+0x48>
20000240:	4608      	mov	r0, r1
20000242:	bd30      	pop	{r4, r5, pc}
20000244:	e8bd 4030 	ldmia.w	sp!, {r4, r5, lr}
20000248:	f7ff bfa2 	b.w	20000190 <mutex_enter_block_until>
2000024c:	f04f 4250 	mov.w	r2, #3489660928	@ 0xd0000000
20000250:	6812      	ldr	r2, [r2, #0]
20000252:	2300      	movs	r3, #0
20000254:	7102      	strb	r2, [r0, #4]
20000256:	e8c5 3f8f 	stlb	r3, [r5]
2000025a:	f38c 8810 	msr	PRIMASK, ip
2000025e:	2001      	movs	r0, #1
20000260:	bd30      	pop	{r4, r5, pc}
20000262:	bf00      	nop

20000264 <mutex_exit>:
20000264:	6803      	ldr	r3, [r0, #0]
20000266:	f3ef 8210 	mrs	r2, PRIMASK
2000026a:	b672      	cpsid	i
2000026c:	e8d3 cfcf 	ldaexb	ip, [r3]
20000270:	2101      	movs	r1, #1
20000272:	f1bc 0f00 	cmp.w	ip, #0
20000276:	d1f9      	bne.n	2000026c <mutex_exit+0x8>
20000278:	e8c3 1f4c 	strexb	ip, r1, [r3]
2000027c:	f1bc 0f00 	cmp.w	ip, #0
20000280:	d1f4      	bne.n	2000026c <mutex_exit+0x8>
20000282:	f3bf 8f5f 	dmb	sy
20000286:	f04f 0cff 	mov.w	ip, #255	@ 0xff
2000028a:	2300      	movs	r3, #0
2000028c:	6801      	ldr	r1, [r0, #0]
2000028e:	f880 c004 	strb.w	ip, [r0, #4]
20000292:	e8c1 3f8f 	stlb	r3, [r1]
20000296:	f382 8810 	msr	PRIMASK, r2
2000029a:	bf40      	sev
2000029c:	4770      	bx	lr
2000029e:	bf00      	nop

200002a0 <__aeabi_uldivmod>:
200002a0:	b953      	cbnz	r3, 200002b8 <__aeabi_uldivmod+0x18>
200002a2:	b94a      	cbnz	r2, 200002b8 <__aeabi_uldivmod+0x18>
200002a4:	2900      	cmp	r1, #0
200002a6:	bf08      	it	eq
200002a8:	2800      	cmpeq	r0, #0
200002aa:	bf1c      	itt	ne
200002ac:	f04f 31ff 	movne.w	r1, #4294967295	@ 0xffffffff
200002b0:	f04f 30ff 	movne.w	r0, #4294967295	@ 0xffffffff
200002b4:	f000 b9b2 	b.w	2000061c <__aeabi_idiv0>
200002b8:	f1ad 0c08 	sub.w	ip, sp, #8
200002bc:	e96d ce04 	strd	ip, lr, [sp, #-16]!
200002c0:	f000 f806 	bl	200002d0 <__udivmoddi4>
200002c4:	f8dd e004 	ldr.w	lr, [sp, #4]
200002c8:	e9dd 2302 	ldrd	r2, r3, [sp, #8]
200002cc:	b004      	add	sp, #16
200002ce:	4770      	bx	lr

200002d0 <__udivmoddi4>:
200002d0:	e92d 4ff0 	stmdb	sp!, {r4, r5, r6, r7, r8, r9, sl, fp, lr}
200002d4:	468c      	mov	ip, r1
200002d6:	9e09      	ldr	r6, [sp, #36]	@ 0x24
200002d8:	4604      	mov	r4, r0
200002da:	460f      	mov	r7, r1
200002dc:	2b00      	cmp	r3, #0
200002de:	d148      	bne.n	20000372 <__udivmoddi4+0xa2>
200002e0:	428a      	cmp	r2, r1
200002e2:	4615      	mov	r5, r2
200002e4:	d95e      	bls.n	200003a4 <__udivmoddi4+0xd4>
200002e6:	fab2 f382 	clz	r3, r2
200002ea:	b13b      	cbz	r3, 200002fc <__udivmoddi4+0x2c>
200002ec:	f1c3 0220 	rsb	r2, r3, #32
200002f0:	409f      	lsls	r7, r3
200002f2:	409d      	lsls	r5, r3
200002f4:	409c      	lsls	r4, r3
200002f6:	fa20 f202 	lsr.w	r2, r0, r2
200002fa:	4317      	orrs	r7, r2
200002fc:	ea4f 4e15 	mov.w	lr, r5, lsr #16
20000300:	fa1f fc85 	uxth.w	ip, r5
20000304:	0c22      	lsrs	r2, r4, #16
20000306:	fbb7 f1fe 	udiv	r1, r7, lr
2000030a:	fb0e 7711 	mls	r7, lr, r1, r7
2000030e:	fb01 f00c 	mul.w	r0, r1, ip
20000312:	ea42 4207 	orr.w	r2, r2, r7, lsl #16
20000316:	4290      	cmp	r0, r2
20000318:	d907      	bls.n	2000032a <__udivmoddi4+0x5a>
2000031a:	18aa      	adds	r2, r5, r2
2000031c:	f101 37ff 	add.w	r7, r1, #4294967295	@ 0xffffffff
20000320:	d202      	bcs.n	20000328 <__udivmoddi4+0x58>
20000322:	4290      	cmp	r0, r2
20000324:	f200 8158 	bhi.w	200005d8 <__udivmoddi4+0x308>
20000328:	4639      	mov	r1, r7
2000032a:	1a12      	subs	r2, r2, r0
2000032c:	b2a4      	uxth	r4, r4
2000032e:	fbb2 f0fe 	udiv	r0, r2, lr
20000332:	fb0e 2210 	mls	r2, lr, r0, r2
20000336:	fb00 fc0c 	mul.w	ip, r0, ip
2000033a:	ea44 4402 	orr.w	r4, r4, r2, lsl #16
2000033e:	45a4      	cmp	ip, r4
20000340:	d90b      	bls.n	2000035a <__udivmoddi4+0x8a>
20000342:	192c      	adds	r4, r5, r4
20000344:	f100 32ff 	add.w	r2, r0, #4294967295	@ 0xffffffff
20000348:	bf2c      	ite	cs
2000034a:	2701      	movcs	r7, #1
2000034c:	2700      	movcc	r7, #0
2000034e:	45a4      	cmp	ip, r4
20000350:	d902      	bls.n	20000358 <__udivmoddi4+0x88>
20000352:	2f00      	cmp	r7, #0
20000354:	f000 8143 	beq.w	200005de <__udivmoddi4+0x30e>
20000358:	4610      	mov	r0, r2
2000035a:	ea40 4001 	orr.w	r0, r0, r1, lsl #16
2000035e:	eba4 040c 	sub.w	r4, r4, ip
20000362:	2100      	movs	r1, #0
20000364:	b11e      	cbz	r6, 2000036e <__udivmoddi4+0x9e>
20000366:	40dc      	lsrs	r4, r3
20000368:	2300      	movs	r3, #0
2000036a:	e9c6 4300 	strd	r4, r3, [r6]
2000036e:	e8bd 8ff0 	ldmia.w	sp!, {r4, r5, r6, r7, r8, r9, sl, fp, pc}
20000372:	428b      	cmp	r3, r1
20000374:	d906      	bls.n	20000384 <__udivmoddi4+0xb4>
20000376:	b10e      	cbz	r6, 2000037c <__udivmoddi4+0xac>
20000378:	e9c6 0100 	strd	r0, r1, [r6]
2000037c:	2100      	movs	r1, #0
2000037e:	4608      	mov	r0, r1
20000380:	e8bd 8ff0 	ldmia.w	sp!, {r4, r5, r6, r7, r8, r9, sl, fp, pc}
20000384:	fab3 f183 	clz	r1, r3
20000388:	2900      	cmp	r1, #0
2000038a:	d151      	bne.n	20000430 <__udivmoddi4+0x160>
2000038c:	4563      	cmp	r3, ip
2000038e:	f0c0 8116 	bcc.w	200005be <__udivmoddi4+0x2ee>
20000392:	4282      	cmp	r2, r0
20000394:	f240 8113 	bls.w	200005be <__udivmoddi4+0x2ee>
20000398:	4608      	mov	r0, r1
2000039a:	2e00      	cmp	r6, #0
2000039c:	d0e7      	beq.n	2000036e <__udivmoddi4+0x9e>
2000039e:	e9c6 4700 	strd	r4, r7, [r6]
200003a2:	e7e4      	b.n	2000036e <__udivmoddi4+0x9e>
200003a4:	2a00      	cmp	r2, #0
200003a6:	f000 80af 	beq.w	20000508 <__udivmoddi4+0x238>
200003aa:	fab2 f382 	clz	r3, r2
200003ae:	2b00      	cmp	r3, #0
200003b0:	f040 80c2 	bne.w	20000538 <__udivmoddi4+0x268>
200003b4:	1a8a      	subs	r2, r1, r2
200003b6:	ea4f 4e15 	mov.w	lr, r5, lsr #16
200003ba:	b2af      	uxth	r7, r5
200003bc:	2101      	movs	r1, #1
200003be:	0c20      	lsrs	r0, r4, #16
200003c0:	fbb2 fcfe 	udiv	ip, r2, lr
200003c4:	fb0e 221c 	mls	r2, lr, ip, r2
200003c8:	ea40 4202 	orr.w	r2, r0, r2, lsl #16
200003cc:	fb07 f00c 	mul.w	r0, r7, ip
200003d0:	4290      	cmp	r0, r2
200003d2:	d90e      	bls.n	200003f2 <__udivmoddi4+0x122>
200003d4:	18aa      	adds	r2, r5, r2
200003d6:	f10c 38ff 	add.w	r8, ip, #4294967295	@ 0xffffffff
200003da:	bf2c      	ite	cs
200003dc:	f04f 0901 	movcs.w	r9, #1
200003e0:	f04f 0900 	movcc.w	r9, #0
200003e4:	4290      	cmp	r0, r2
200003e6:	d903      	bls.n	200003f0 <__udivmoddi4+0x120>
200003e8:	f1b9 0f00 	cmp.w	r9, #0
200003ec:	f000 80f0 	beq.w	200005d0 <__udivmoddi4+0x300>
200003f0:	46c4      	mov	ip, r8
200003f2:	1a12      	subs	r2, r2, r0
200003f4:	b2a4      	uxth	r4, r4
200003f6:	fbb2 f0fe 	udiv	r0, r2, lr
200003fa:	fb0e 2210 	mls	r2, lr, r0, r2
200003fe:	fb00 f707 	mul.w	r7, r0, r7
20000402:	ea44 4402 	orr.w	r4, r4, r2, lsl #16
20000406:	42a7      	cmp	r7, r4
20000408:	d90e      	bls.n	20000428 <__udivmoddi4+0x158>
2000040a:	192c      	adds	r4, r5, r4
2000040c:	f100 32ff 	add.w	r2, r0, #4294967295	@ 0xffffffff
20000410:	bf2c      	ite	cs
20000412:	f04f 0e01 	movcs.w	lr, #1
20000416:	f04f 0e00 	movcc.w	lr, #0
2000041a:	42a7      	cmp	r7, r4
2000041c:	d903      	bls.n	20000426 <__udivmoddi4+0x156>
2000041e:	f1be 0f00 	cmp.w	lr, #0
20000422:	f000 80d2 	beq.w	200005ca <__udivmoddi4+0x2fa>
20000426:	4610      	mov	r0, r2
20000428:	1be4      	subs	r4, r4, r7
2000042a:	ea40 400c 	orr.w	r0, r0, ip, lsl #16
2000042e:	e799      	b.n	20000364 <__udivmoddi4+0x94>
20000430:	f1c1 0520 	rsb	r5, r1, #32
20000434:	408b      	lsls	r3, r1
20000436:	fa0c f401 	lsl.w	r4, ip, r1
2000043a:	fa00 f901 	lsl.w	r9, r0, r1
2000043e:	fa22 f705 	lsr.w	r7, r2, r5
20000442:	fa2c fc05 	lsr.w	ip, ip, r5
20000446:	408a      	lsls	r2, r1
20000448:	431f      	orrs	r7, r3
2000044a:	fa20 f305 	lsr.w	r3, r0, r5
2000044e:	0c38      	lsrs	r0, r7, #16
20000450:	4323      	orrs	r3, r4
20000452:	fa1f fe87 	uxth.w	lr, r7
20000456:	0c1c      	lsrs	r4, r3, #16
20000458:	fbbc f8f0 	udiv	r8, ip, r0
2000045c:	fb00 cc18 	mls	ip, r0, r8, ip
20000460:	ea44 440c 	orr.w	r4, r4, ip, lsl #16
20000464:	fb08 fc0e 	mul.w	ip, r8, lr
20000468:	45a4      	cmp	ip, r4
2000046a:	d90e      	bls.n	2000048a <__udivmoddi4+0x1ba>
2000046c:	193c      	adds	r4, r7, r4
2000046e:	f108 3aff 	add.w	sl, r8, #4294967295	@ 0xffffffff
20000472:	bf2c      	ite	cs
20000474:	f04f 0b01 	movcs.w	fp, #1
20000478:	f04f 0b00 	movcc.w	fp, #0
2000047c:	45a4      	cmp	ip, r4
2000047e:	d903      	bls.n	20000488 <__udivmoddi4+0x1b8>
20000480:	f1bb 0f00 	cmp.w	fp, #0
20000484:	f000 80b8 	beq.w	200005f8 <__udivmoddi4+0x328>
20000488:	46d0      	mov	r8, sl
2000048a:	eba4 040c 	sub.w	r4, r4, ip
2000048e:	fa1f fc83 	uxth.w	ip, r3
20000492:	fbb4 f3f0 	udiv	r3, r4, r0
20000496:	fb00 4413 	mls	r4, r0, r3, r4
2000049a:	fb03 fe0e 	mul.w	lr, r3, lr
2000049e:	ea4c 4404 	orr.w	r4, ip, r4, lsl #16
200004a2:	45a6      	cmp	lr, r4
200004a4:	d90e      	bls.n	200004c4 <__udivmoddi4+0x1f4>
200004a6:	193c      	adds	r4, r7, r4
200004a8:	f103 30ff 	add.w	r0, r3, #4294967295	@ 0xffffffff
200004ac:	bf2c      	ite	cs
200004ae:	f04f 0c01 	movcs.w	ip, #1
200004b2:	f04f 0c00 	movcc.w	ip, #0
200004b6:	45a6      	cmp	lr, r4
200004b8:	d903      	bls.n	200004c2 <__udivmoddi4+0x1f2>
200004ba:	f1bc 0f00 	cmp.w	ip, #0
200004be:	f000 809f 	beq.w	20000600 <__udivmoddi4+0x330>
200004c2:	4603      	mov	r3, r0
200004c4:	ea43 4008 	orr.w	r0, r3, r8, lsl #16
200004c8:	eba4 040e 	sub.w	r4, r4, lr
200004cc:	fba0 ec02 	umull	lr, ip, r0, r2
200004d0:	4564      	cmp	r4, ip
200004d2:	4673      	mov	r3, lr
200004d4:	46e0      	mov	r8, ip
200004d6:	d302      	bcc.n	200004de <__udivmoddi4+0x20e>
200004d8:	d107      	bne.n	200004ea <__udivmoddi4+0x21a>
200004da:	45f1      	cmp	r9, lr
200004dc:	d205      	bcs.n	200004ea <__udivmoddi4+0x21a>
200004de:	ebbe 0302 	subs.w	r3, lr, r2
200004e2:	eb6c 0c07 	sbc.w	ip, ip, r7
200004e6:	3801      	subs	r0, #1
200004e8:	46e0      	mov	r8, ip
200004ea:	b15e      	cbz	r6, 20000504 <__udivmoddi4+0x234>
200004ec:	ebb9 0203 	subs.w	r2, r9, r3
200004f0:	eb64 0408 	sbc.w	r4, r4, r8
200004f4:	fa04 f505 	lsl.w	r5, r4, r5
200004f8:	fa22 f301 	lsr.w	r3, r2, r1
200004fc:	40cc      	lsrs	r4, r1
200004fe:	431d      	orrs	r5, r3
20000500:	e9c6 5400 	strd	r5, r4, [r6]
20000504:	2100      	movs	r1, #0
20000506:	e732      	b.n	2000036e <__udivmoddi4+0x9e>
20000508:	0842      	lsrs	r2, r0, #1
2000050a:	462f      	mov	r7, r5
2000050c:	084b      	lsrs	r3, r1, #1
2000050e:	46ac      	mov	ip, r5
20000510:	ea42 72c1 	orr.w	r2, r2, r1, lsl #31
20000514:	46ae      	mov	lr, r5
20000516:	07c4      	lsls	r4, r0, #31
20000518:	0c11      	lsrs	r1, r2, #16
2000051a:	b292      	uxth	r2, r2
2000051c:	ea41 4103 	orr.w	r1, r1, r3, lsl #16
20000520:	ea42 4201 	orr.w	r2, r2, r1, lsl #16
20000524:	fbb1 f1f5 	udiv	r1, r1, r5
20000528:	fbb3 f0f5 	udiv	r0, r3, r5
2000052c:	231f      	movs	r3, #31
2000052e:	eba2 020c 	sub.w	r2, r2, ip
20000532:	ea41 4100 	orr.w	r1, r1, r0, lsl #16
20000536:	e742      	b.n	200003be <__udivmoddi4+0xee>
20000538:	409d      	lsls	r5, r3
2000053a:	f1c3 0220 	rsb	r2, r3, #32
2000053e:	4099      	lsls	r1, r3
20000540:	409c      	lsls	r4, r3
20000542:	fa2c fc02 	lsr.w	ip, ip, r2
20000546:	ea4f 4e15 	mov.w	lr, r5, lsr #16
2000054a:	fa20 f202 	lsr.w	r2, r0, r2
2000054e:	b2af      	uxth	r7, r5
20000550:	fbbc f8fe 	udiv	r8, ip, lr
20000554:	430a      	orrs	r2, r1
20000556:	fb0e cc18 	mls	ip, lr, r8, ip
2000055a:	0c11      	lsrs	r1, r2, #16
2000055c:	ea41 410c 	orr.w	r1, r1, ip, lsl #16
20000560:	fb08 fc07 	mul.w	ip, r8, r7
20000564:	458c      	cmp	ip, r1
20000566:	d950      	bls.n	2000060a <__udivmoddi4+0x33a>
20000568:	1869      	adds	r1, r5, r1
2000056a:	f108 30ff 	add.w	r0, r8, #4294967295	@ 0xffffffff
2000056e:	bf2c      	ite	cs
20000570:	f04f 0901 	movcs.w	r9, #1
20000574:	f04f 0900 	movcc.w	r9, #0
20000578:	458c      	cmp	ip, r1
2000057a:	d902      	bls.n	20000582 <__udivmoddi4+0x2b2>
2000057c:	f1b9 0f00 	cmp.w	r9, #0
20000580:	d030      	beq.n	200005e4 <__udivmoddi4+0x314>
20000582:	eba1 010c 	sub.w	r1, r1, ip
20000586:	fbb1 f8fe 	udiv	r8, r1, lr
2000058a:	fb08 fc07 	mul.w	ip, r8, r7
2000058e:	fb0e 1118 	mls	r1, lr, r8, r1
20000592:	b292      	uxth	r2, r2
20000594:	ea42 4201 	orr.w	r2, r2, r1, lsl #16
20000598:	4562      	cmp	r2, ip
2000059a:	d234      	bcs.n	20000606 <__udivmoddi4+0x336>
2000059c:	18aa      	adds	r2, r5, r2
2000059e:	f108 31ff 	add.w	r1, r8, #4294967295	@ 0xffffffff
200005a2:	bf2c      	ite	cs
200005a4:	f04f 0901 	movcs.w	r9, #1
200005a8:	f04f 0900 	movcc.w	r9, #0
200005ac:	4562      	cmp	r2, ip
200005ae:	d2be      	bcs.n	2000052e <__udivmoddi4+0x25e>
200005b0:	f1b9 0f00 	cmp.w	r9, #0
200005b4:	d1bb      	bne.n	2000052e <__udivmoddi4+0x25e>
200005b6:	f1a8 0102 	sub.w	r1, r8, #2
200005ba:	442a      	add	r2, r5
200005bc:	e7b7      	b.n	2000052e <__udivmoddi4+0x25e>
200005be:	1a84      	subs	r4, r0, r2
200005c0:	eb6c 0203 	sbc.w	r2, ip, r3
200005c4:	2001      	movs	r0, #1
200005c6:	4617      	mov	r7, r2
200005c8:	e6e7      	b.n	2000039a <__udivmoddi4+0xca>
200005ca:	442c      	add	r4, r5
200005cc:	3802      	subs	r0, #2
200005ce:	e72b      	b.n	20000428 <__udivmoddi4+0x158>
200005d0:	f1ac 0c02 	sub.w	ip, ip, #2
200005d4:	442a      	add	r2, r5
200005d6:	e70c      	b.n	200003f2 <__udivmoddi4+0x122>
200005d8:	3902      	subs	r1, #2
200005da:	442a      	add	r2, r5
200005dc:	e6a5      	b.n	2000032a <__udivmoddi4+0x5a>
200005de:	442c      	add	r4, r5
200005e0:	3802      	subs	r0, #2
200005e2:	e6ba      	b.n	2000035a <__udivmoddi4+0x8a>
200005e4:	eba5 0c0c 	sub.w	ip, r5, ip
200005e8:	f1a8 0002 	sub.w	r0, r8, #2
200005ec:	4461      	add	r1, ip
200005ee:	fbb1 f8fe 	udiv	r8, r1, lr
200005f2:	fb08 fc07 	mul.w	ip, r8, r7
200005f6:	e7ca      	b.n	2000058e <__udivmoddi4+0x2be>
200005f8:	f1a8 0802 	sub.w	r8, r8, #2
200005fc:	443c      	add	r4, r7
200005fe:	e744      	b.n	2000048a <__udivmoddi4+0x1ba>
20000600:	3b02      	subs	r3, #2
20000602:	443c      	add	r4, r7
20000604:	e75e      	b.n	200004c4 <__udivmoddi4+0x1f4>
20000606:	4641      	mov	r1, r8
20000608:	e791      	b.n	2000052e <__udivmoddi4+0x25e>
2000060a:	eba1 010c 	sub.w	r1, r1, ip
2000060e:	4640      	mov	r0, r8
20000610:	fbb1 f8fe 	udiv	r8, r1, lr
20000614:	fb08 fc07 	mul.w	ip, r8, r7
20000618:	e7b9      	b.n	2000058e <__udivmoddi4+0x2be>
2000061a:	bf00      	nop

2000061c <__aeabi_idiv0>:
2000061c:	4770      	bx	lr
2000061e:	bf00      	nop

20000620 <__best_effort_wfe_or_timeout_veneer>:
20000620:	f85f f000 	ldr.w	pc, [pc]	@ 20000624 <__best_effort_wfe_or_timeout_veneer+0x4>
20000624:	100042d1 	.word	0x100042d1

20000628 <round_rect_color.2>:
20000628:	                                         ..

2000062a <round_rect_x.3>:
2000062a:	                                         ..

2000062c <filled_round_rect_color.4>:
2000062c:	                                         ..

2000062e <filled_round_rect_x.5>:
2000062e:	                                         ..

20000630 <rect_color.6>:
20000630:	                                         ..

20000632 <rect_x.7>:
20000632:	                                         ,.

20000634 <filled_rect_color.8>:
20000634:	                                         ..

20000636 <filled_rect_x.9>:
20000636:	                                         ..

20000638 <circle_color.10>:
20000638:	                                         ..

2000063a <circle_x.11>:
2000063a:	                                         ..

2000063c <filled_circle_color.12>:
2000063c:	                                         ..

2000063e <restart_graphics>:
2000063e:	                                         ..

20000640 <address_pointer>:
20000640:	20001528                                (.. 

20000644 <striped_spin_lock_num>:
20000644:	00000010                                ....

20000648 <default_alarm_pool>:
	...
2000065c:	20000d38                                8.. 

20000660 <__malloc_sbrk_base>:
20000660:	ffffffff                                ....

20000664 <__malloc_trim_threshold>:
20000664:	00020000                                ....

20000668 <__malloc_av_>:
	...
20000670:	20000668 20000668 20000670 20000670     h.. h.. p.. p.. 
20000680:	20000678 20000678 20000680 20000680     x.. x.. ... ... 
20000690:	20000688 20000688 20000690 20000690     ... ... ... ... 
200006a0:	20000698 20000698 200006a0 200006a0     ... ... ... ... 
200006b0:	200006a8 200006a8 200006b0 200006b0     ... ... ... ... 
200006c0:	200006b8 200006b8 200006c0 200006c0     ... ... ... ... 
200006d0:	200006c8 200006c8 200006d0 200006d0     ... ... ... ... 
200006e0:	200006d8 200006d8 200006e0 200006e0     ... ... ... ... 
200006f0:	200006e8 200006e8 200006f0 200006f0     ... ... ... ... 
20000700:	200006f8 200006f8 20000700 20000700     ... ... ... ... 
20000710:	20000708 20000708 20000710 20000710     ... ... ... ... 
20000720:	20000718 20000718 20000720 20000720     ... ...  ..  .. 
20000730:	20000728 20000728 20000730 20000730     (.. (.. 0.. 0.. 
20000740:	20000738 20000738 20000740 20000740     8.. 8.. @.. @.. 
20000750:	20000748 20000748 20000750 20000750     H.. H.. P.. P.. 
20000760:	20000758 20000758 20000760 20000760     X.. X.. `.. `.. 
20000770:	20000768 20000768 20000770 20000770     h.. h.. p.. p.. 
20000780:	20000778 20000778 20000780 20000780     x.. x.. ... ... 
20000790:	20000788 20000788 20000790 20000790     ... ... ... ... 
200007a0:	20000798 20000798 200007a0 200007a0     ... ... ... ... 
200007b0:	200007a8 200007a8 200007b0 200007b0     ... ... ... ... 
200007c0:	200007b8 200007b8 200007c0 200007c0     ... ... ... ... 
200007d0:	200007c8 200007c8 200007d0 200007d0     ... ... ... ... 
200007e0:	200007d8 200007d8 200007e0 200007e0     ... ... ... ... 
200007f0:	200007e8 200007e8 200007f0 200007f0     ... ... ... ... 
20000800:	200007f8 200007f8 20000800 20000800     ... ... ... ... 
20000810:	20000808 20000808 20000810 20000810     ... ... ... ... 
20000820:	20000818 20000818 20000820 20000820     ... ...  ..  .. 
20000830:	20000828 20000828 20000830 20000830     (.. (.. 0.. 0.. 
20000840:	20000838 20000838 20000840 20000840     8.. 8.. @.. @.. 
20000850:	20000848 20000848 20000850 20000850     H.. H.. P.. P.. 
20000860:	20000858 20000858 20000860 20000860     X.. X.. `.. `.. 
20000870:	20000868 20000868 20000870 20000870     h.. h.. p.. p.. 
20000880:	20000878 20000878 20000880 20000880     x.. x.. ... ... 
20000890:	20000888 20000888 20000890 20000890     ... ... ... ... 
200008a0:	20000898 20000898 200008a0 200008a0     ... ... ... ... 
200008b0:	200008a8 200008a8 200008b0 200008b0     ... ... ... ... 
200008c0:	200008b8 200008b8 200008c0 200008c0     ... ... ... ... 
200008d0:	200008c8 200008c8 200008d0 200008d0     ... ... ... ... 
200008e0:	200008d8 200008d8 200008e0 200008e0     ... ... ... ... 
200008f0:	200008e8 200008e8 200008f0 200008f0     ... ... ... ... 
20000900:	200008f8 200008f8 20000900 20000900     ... ... ... ... 
20000910:	20000908 20000908 20000910 20000910     ... ... ... ... 
20000920:	20000918 20000918 20000920 20000920     ... ...  ..  .. 
20000930:	20000928 20000928 20000930 20000930     (.. (.. 0.. 0.. 
20000940:	20000938 20000938 20000940 20000940     8.. 8.. @.. @.. 
20000950:	20000948 20000948 20000950 20000950     H.. H.. P.. P.. 
20000960:	20000958 20000958 20000960 20000960     X.. X.. `.. `.. 
20000970:	20000968 20000968 20000970 20000970     h.. h.. p.. p.. 
20000980:	20000978 20000978 20000980 20000980     x.. x.. ... ... 
20000990:	20000988 20000988 20000990 20000990     ... ... ... ... 
200009a0:	20000998 20000998 200009a0 200009a0     ... ... ... ... 
200009b0:	200009a8 200009a8 200009b0 200009b0     ... ... ... ... 
200009c0:	200009b8 200009b8 200009c0 200009c0     ... ... ... ... 
200009d0:	200009c8 200009c8 200009d0 200009d0     ... ... ... ... 
200009e0:	200009d8 200009d8 200009e0 200009e0     ... ... ... ... 
200009f0:	200009e8 200009e8 200009f0 200009f0     ... ... ... ... 
20000a00:	200009f8 200009f8 20000a00 20000a00     ... ... ... ... 
20000a10:	20000a08 20000a08 20000a10 20000a10     ... ... ... ... 
20000a20:	20000a18 20000a18 20000a20 20000a20     ... ...  ..  .. 
20000a30:	20000a28 20000a28 20000a30 20000a30     (.. (.. 0.. 0.. 
20000a40:	20000a38 20000a38 20000a40 20000a40     8.. 8.. @.. @.. 
20000a50:	20000a48 20000a48 20000a50 20000a50     H.. H.. P.. P.. 
20000a60:	20000a58 20000a58 20000a60 20000a60     X.. X.. `.. `.. 

20000a70 <_impure_ptr>:
20000a70:	20000a78 00000000                       x.. ....

20000a78 <_impure_data>:
20000a78:	00000000 20000fb8 20001020 20001088     .......  .. ... 
	...
20000b10:	00000001 00000000 abcd330e e66d1234     .........3..4.m.
20000b20:	0005deec 0000000b 00000000 00000000     ................
	...

20000bb8 <__global_locale>:
20000bb8:	00000043 00000000 00000000 00000000     C...............
	...
20000bd8:	00000043 00000000 00000000 00000000     C...............
	...
20000bf8:	00000043 00000000 00000000 00000000     C...............
	...
20000c18:	00000043 00000000 00000000 00000000     C...............
	...
20000c38:	00000043 00000000 00000000 00000000     C...............
	...
20000c58:	00000043 00000000 00000000 00000000     C...............
	...
20000c78:	00000043 00000000 00000000 00000000     C...............
	...
20000c98:	1000b2e9 1000a061 00000000 1000e1e4     ....a...........
20000ca8:	1000d298 1000d1d8 1000d1d8 1000d1d8     ................
20000cb8:	1000d1d8 1000d1d8 1000d1d8 1000d1d8     ................
20000cc8:	1000d1d8 1000d1d8 ffffffff ffffffff     ................
20000cd8:	ffffffff 0000ffff 53410001 00494943     ..........ASCII.
	...
20000d00:	53410000 00494943 00000000 00000000     ..ASCII.........
	...

20000d24 <malloc_mutex>:
	...

20000d2c <print_mutex>:
	...
